(dp1
S'output'
p2
S"<type 'exceptions.ZeroDivisionError'> float division by zero"
p3
sS'layer'
p4
S'/home/rogoberto/web2py/applications/aluminum/views/cobranca/saldo_quitacao.html'
p5
sS'code'
p6
S'response.write(\'<!DOCTYPE html>\\n<!--[if (gt IE 9)|!(IE)]><!--> <html class="no-js" lang="\', escape=False)\nresponse.write(T.accepted_language or \'en\')\nresponse.write(\'"> <!--<![endif]-->\\n  <head>\\n    <meta charset="utf-8">\\n    <!-- www.phpied.com/conditional-comments-block-downloads/ -->\\n    <!-- Always force latest IE rendering engine\\n         (even in intranet) & Chrome Frame\\n         Remove this if you use the .htaccess -->\\n    <meta http-equiv="X-UA-Compatible" content="IE=edge\', escape=False)\nresponse.write(not request.is_local and \',chrome=1\' or \'\')\nresponse.write(\'">\\n    <!--  Mobile Viewport Fix\\n          j.mp/mobileviewport & davidbcalhoun.com/2010/viewport-metatag\\n          device-width: Occupy full width of the screen in its current orientation\\n          initial-scale = 1.0 retains dimensions instead of zooming out if page height > device height\\n          user-scalable = yes allows the user to zoom in -->\\n    <meta name="viewport" content="width=device-width, initial-scale=1.0">\\n       <title>Aluminum System</title>\\n    <!-- http://dev.w3.org/html5/markup/meta.name.html -->\\n    <meta name="application-name" content="sistema credi\\xc3\\xa1rio panela">\\n    <!-- Speaking of Google, don\\\'t forget to set your site up:\\n         http://google.com/webmasters -->\\n    <meta name="google-site-verification" content="peneleiro Juazeiro, panela credi\\xc3\\xa1rio, sistema panela">\\n    <!-- include stylesheets -->\\n    <link rel="stylesheet" href="https://cdnjs.cloudflare.com/ajax/libs/font-awesome/4.7.0/css/font-awesome.min.css"/>\\n    <link rel="stylesheet" href="\', escape=False)\nresponse.write(URL(\'static\',\'css/bootstrap.min.css\'))\nresponse.write(\'"/>\\n    <link rel="stylesheet" href="\', escape=False)\nresponse.write(URL(\'static\',\'css/web2py-bootstrap4.css\'))\nresponse.write(\'"/>\\n    <link rel="shortcut icon" href="\', escape=False)\nresponse.write(URL(\'static\',\'images/ico.ico\'))\nresponse.write(\'" type="image/x-icon">\\n    <link rel="apple-touch-icon" href="\', escape=False)\nresponse.write(URL(\'static\',\'images/ico.png\'))\nresponse.write(\'">\\n    <!-- All JavaScript at the bottom, except for Modernizr which enables\\n         HTML5 elements & feature detects -->\\n    <script src="\', escape=False)\nresponse.write(URL(\'static\',\'js/modernizr-2.8.3.min.js\'))\nresponse.write(\'"></script>\\n    <!-- Favicons -->\\n    \', escape=False)\nresponse.write(\'<script type="text/javascript"><!--\\n    // These variables are used by the web2py_ajax_init function in web2py_ajax.js (which is loaded below).\\n    \', escape=False)\nresponse.write(ASSIGNJS(\nw2p_ajax_confirm_message = T(\'Are you sure you want to delete this object?\'),\nw2p_ajax_disable_with_message = T(\'Working...\'),\nw2p_ajax_date_format = T(\'%Y-%m-%d\'),\nw2p_ajax_datetime_format = T(\'%Y-%m-%d %H:%M:%S\'),\najax_error_500 = T.M(\'An error occured, please [[reload %s]] the page\') % URL(args=request.args, vars=request.get_vars)\n))\nresponse.write(\'\\n    //--></script>\\n\', escape=False)\nresponse.files.insert(0,URL(\'static\',\'js/jquery.js\'))\nresponse.files.insert(1,URL(\'static\',\'css/calendar.css\'))\nresponse.files.insert(2,URL(\'static\',\'js/calendar.js\'))\nresponse.files.insert(3,URL(\'static\',\'js/web2py.js\'))\nresponse.include_meta()\nresponse.include_files()\nresponse.write(\'\\n\', escape=False)\nresponse.write(\' <!-- this includes jquery.js, calendar.js/.css and web2py.js -->\\n    \', escape=False)\nresponse.write(\'\\n  </head>\\n  <body>\\n      \\n        <style  type="text/css">\\n    @media print{\\n        .btn{\\n             display: none;\\n        }\\n        #noprint { display:none; } \\n      a:link{font:15px "verdana"; color:#8B4513; text-decoration:none;}\\n\\na:hover{font:20px "verdana"; color:black; text-decoration:underline;}\\n    }\\n      </style>\\n    <div class="w2p_flash alert alert-dismissable">\', escape=False)\nresponse.write(response.flash or \'\')\nresponse.write(\'</div>\\n    <!-- Navbar ======================================= -->\\n    <nav class="navbar navbar-light navbar-expand-md bg-faded justify-content-center">\\n        <a class="navbar-brand" href="https://rogoberto.pythonanywhere.com/aluminum/#acesso">Aluminum</a>\\n       <button class="navbar-toggler" type="button" data-toggle="collapse" data-target="#navbarNavDropdown" aria-controls="navbarNavDropdown" aria-expanded="false" aria-label="Toggle navigation">\\n         <span class="navbar-toggler-icon"></span>\\n       </button>\\n       <div class="navbar-collapse collapse w-100" id="navbarNavDropdown">\\n         <ul class="navbar-nav w-100 justify-content-center">\\n          \', escape=False)\nfor _item in response.menu or []:\n    response.write(\'\\n          \', escape=False)\n    if len(_item)<4 or not _item[3]:\n        response.write(\'\\n          <li class="nav-item \', escape=False)\n        if _item[1]:\n            response.write(\'active\', escape=False)\n            pass\n        response.write(\'">\\n            <a class="nav-link" href="\', escape=False)\n        response.write(_item[2])\n        response.write(\'">\', escape=False)\n        response.write(_item[0])\n        response.write(\'</a>\\n          </li>\\n          \', escape=False)\n    else:\n        response.write(\'\\n          <li class="nav-item dropdown">\\n            <a class="nav-link dropdown-toggle" href="\', escape=False)\n        response.write(_item[2])\n        response.write(\'" data-toggle="dropdown" aria-haspopup="true" aria-expanded="false">\', escape=False)\n        response.write(_item[0])\n        response.write(\'</a>\\n            <div class="dropdown-menu">\\n              \', escape=False)\n        for _subitem in _item[3]:\n            response.write(\'\\n              <a class="dropdown-item" href="\', escape=False)\n            response.write(_subitem[2])\n            response.write(\'">\', escape=False)\n            response.write(_subitem[0])\n            response.write(\'</a>\\n              \', escape=False)\n            pass\n        response.write(\'\\n            </div>\\n          </li>\\n          \', escape=False)\n        pass\n    response.write(\'\\n          \', escape=False)\n    pass\nresponse.write(\'\\n        </ul>\\n\\n        \', escape=False)\nif \'auth\' in globals():\n    response.write(\'\\n        <ul class="nav navbar-nav ml-auto w-100 justify-content-end">\\n          <li class="nav-item dropdown">\\n            <a class="nav-link dropdown-toggle" href="#" data-toggle="dropdown" aria-haspopup="true" aria-expanded="false">\\n              \', escape=False)\n    if auth.user:\n        response.write(auth.user.first_name)\n    else:\n        response.write(\'LOGIN\', escape=False)\n        pass\n    response.write(\'\\n            </a>\\n            <div class="dropdown-menu dropdown-menu-right">\\n              \', escape=False)\n    if auth.user:\n        response.write(\'\\n              <a class="dropdown-item" href="\', escape=False)\n        response.write(URL(\'default\',\'user/profile\'))\n        response.write(\'">\', escape=False)\n        response.write(T(\'Profile\'))\n        response.write(\'</a>\\n              \', escape=False)\n        if \'change_password\' not in auth.settings.actions_disabled:\n            response.write(\'\\n              <a class="dropdown-item" href="\', escape=False)\n            response.write(URL(\'default\',\'user/change_password\'))\n            response.write(\'">\', escape=False)\n            response.write(T(\'Change Password\'))\n            response.write(\'</a>\\n              \', escape=False)\n            pass\n        response.write(\'\\n              <a class="dropdown-item" href="\', escape=False)\n        response.write(URL(\'default\',\'user/logout\'))\n        response.write(\'">\', escape=False)\n        response.write(T(\'Logout\'))\n        response.write(\'</a>\\n              \', escape=False)\n    else:\n        response.write(\'\\n              <a class="dropdown-item" href="\', escape=False)\n        response.write(URL(\'default\',\'user/login\'))\n        response.write(\'">\', escape=False)\n        response.write(T(\'Login\'))\n        response.write(\'</a>\\n              \', escape=False)\n        if \'register\' not in auth.settings.actions_disabled:\n            response.write(\'\\n              <a class="dropdown-item" href="\', escape=False)\n            response.write(URL(\'default\',\'user/register\'))\n            response.write(\'">\', escape=False)\n            response.write(T(\'Sign up\'))\n            response.write(\'</a>\\n              \', escape=False)\n            pass\n        response.write(\'\\n              \', escape=False)\n        if \'retrieve_password\' not in auth.settings.actions_disabled:\n            response.write(\'\\n              <a class="dropdown-item" href="\', escape=False)\n            response.write(URL(\'default\',\'user/retrieve_password\'))\n            response.write(\'">\', escape=False)\n            response.write(T(\'Lost Password\'))\n            response.write(\'</a>\\n              \', escape=False)\n            pass\n        response.write(\'\\n              \', escape=False)\n        pass\n    response.write(\'\\n            </div>\\n          </li>\\n        </ul>\\n        \', escape=False)\n    pass\nresponse.write(\'\\n      </div>\\n    </nav>\\n\\n    <!-- Masthead ===================================== -->\\n    \', escape=False)\nresponse.write(\'\\n<header class="header container-fluid d-none d-print-block">\\n     <div class="row">\\n        <div class="col-md-12">\\n          <div class="copyright pull-left">Aluminum System</div>\\n          <div id="poweredBy" class="pull-right">\\n            Gest\\xc3\\xa3o de vendas e cobran\\xc3\\xa7as artefatos de aluminio\\n            \\n          </div>\\n        </div>\\n      </div>\\n</header>\\n    \', escape=False)\nresponse.write(\'\\n    <!-- Main ========================================= -->\\n    <!-- Begin page content -->\\n    <div class="container-fluid main-container">\\n      \', escape=False)\nresponse.write(\'\\n\', escape=False)\nvenda=0\nresponse.write(\'\\n\', escape=False)\nfichas=0\nresponse.write(\'\\n\', escape=False)\nrecebido=0\nresponse.write(\'\\n\', escape=False)\ndevolvido=0\nresponse.write(\'\\n\', escape=False)\nprego=0\nresponse.write(\'\\n\', escape=False)\na=0\nresponse.write(\'\\n\', escape=False)\nsaldototal=0\nresponse.write(\'\\n\', escape=False)\ndebitototal=0\nresponse.write(\'\\n<div class="row">\\n    <div class="col-md-6">\\n        <a  class="btn btn-outline-light" href="\', escape=False)\nresponse.write(URL(\'projeto\',\'acesso_projeto\', args=projeto.id))\nresponse.write(\'">\\n            <i class="fa text-danger fa-arrow-left  fa-2x"></i>\\n        </a>\\n    </div>\\n</div>\\nVendas e Cobran\\xc3\\xa7as\\n<div class="table-responsive">\\n    <table class="table table-bordered table-sm table-striped">\\n        <thead>\\n            <tr>\\n                <th>#</th>\\n                <th>Nome</th>\\n                <th>Venda</th>\\n                <th>Recebido</th>\\n                <th>Devolvido</th>\\n                <th>Prego</th>\\n                <th>Fichas</th>\\n            </tr>\\n        </thead>\\n        <tbody>\\n            \', escape=False)\nfor row in rows:\n    response.write(\'\\n\\n            <tr>\\n                \', escape=False)\n    a+=1\n    response.write(\'\\n                <td>\', escape=False)\n    response.write(a)\n    response.write(\'\\xc2\\xba</td>\\n\\n                <td>\', escape=False)\n    response.write(row.nome)\n    response.write(\'</td>\\n                <td>R$ \', escape=False)\n    response.write("{:,}".format(round(row.total_vendas,1)).replace(",","."))\n    response.write(\'0</td>\\n                <td>R$ \', escape=False)\n    response.write("{:,}".format(round(row.total_recebido,1)).replace(",","."))\n    response.write(\'0</td>\\n                <td>R$ \', escape=False)\n    response.write("{:,}".format(round(row.total_devolvido,1)).replace(",","."))\n    response.write(\'0</a></td>\\n                <td>R$ \', escape=False)\n    response.write("{:,}".format(round(row.total_prego,1)).replace(",","."))\n    response.write(\'0</a></td>\\n                <td>\', escape=False)\n    response.write(row.total_fichas)\n    response.write(\'</a></td>\\n\', escape=False)\n    venda+=row.total_vendas\n    response.write(\'\\n\', escape=False)\n    recebido+=row.total_recebido\n    response.write(\'\\n\', escape=False)\n    fichas+=row.total_fichas\n    response.write(\'\\n\', escape=False)\n    devolvido+=row.total_devolvido\n    response.write(\'\\n\', escape=False)\n    prego+=row.total_prego\n    response.write(\'\\n            </tr>\\n            \', escape=False)\n    pass\nresponse.write(\'\\n            <tr>\\n                <th>#</th>\\n                <th></th>\\n                <th>R$ \', escape=False)\nresponse.write("{:,}".format(round(venda,1)).replace(",","."))\nresponse.write(\'0</th>\\n                <th>R$ \', escape=False)\nresponse.write("{:,}".format(round(recebido,1)).replace(",","."))\nresponse.write(\'0</th>\\n                <th>R$ \', escape=False)\nresponse.write("{:,}".format(round(devolvido,1)).replace(",","."))\nresponse.write(\'0</th>\\n                <th>R$ \', escape=False)\nresponse.write("{:,}".format(round(prego,1)).replace(",","."))\nresponse.write(\'0</th>\\n                <th>\', escape=False)\nresponse.write(fichas)\nresponse.write(\'</th>\\n            </tr>\\n        </tbody>\\n    </table>\\n</div>\\n<hr>\\n<br>\\n\\n\', escape=False)\nvenda=0\nresponse.write(\'\\n\', escape=False)\nrecebido=0\nresponse.write(\'\\n\', escape=False)\ncomissaovt=0\nresponse.write(\'\\n\', escape=False)\ncomissaoct=0\nresponse.write(\'\\n\', escape=False)\nsaldototal=0\nresponse.write(\'\\nQuita\\xc3\\xa7\\xc3\\xa3o e Comiss\\xc3\\xa3o\\n<div class="table-responsive">\\n    <table class="table table-bordered table-sm table-striped">\\n        <thead>\\n            <tr>\\n                <th>Nome</th>\\n                <th>Venda</th>\\n                <th>Comiss\\xc3\\xa3o</th>\\n                <th>Recebido</th>\\n                <th>Comiss\\xc3\\xa3o</th>\\n                <th>Saldo</th>\\n                <th>%</th>\\n            </tr>\\n        </thead>\\n        <tbody>\\n            \\n            \', escape=False)\nfor row in rows:\n    response.write(\'\\n            \', escape=False)\n    comissaov=0\n    response.write(\'\\n            \', escape=False)\n    comissaoc=0\n    response.write(\'\\n            \', escape=False)\n    percent=0\n    response.write(\'\\n            \', escape=False)\n    if row.total_vendas>0:\n        response.write(\'\\n            \', escape=False)\n        comissaov=row.total_vendas*row.comissao_venda/100\n        response.write(\'\\n            \', escape=False)\n        pass\n    response.write(\'\\n            \', escape=False)\n    if row.total_recebido>0:\n        response.write(\'\\n            \', escape=False)\n        percent=row.total_recebido/row.total_vendas*100\n        response.write(\'\\n            \', escape=False)\n        comissaoc=row.total_recebido*row.comissao_cobranca/100\n        response.write(\'\\n            \', escape=False)\n        pass\n    response.write(\'\\n            \', escape=False)\n    saldo=comissaoc-comissaov\n    response.write(\'\\n            \\n            <tr>\\n                <td><a href="\', escape=False)\n    response.write(URL(\'cobranca\',\'alterar_comissao\', args=row.id))\n    response.write(\'">\', escape=False)\n    response.write(row.nome)\n    response.write(\'</a></td>\\n                <td>R$ \', escape=False)\n    response.write("{:,}".format(round(row.total_vendas,1)).replace(",","."))\n    response.write(\'0</td>\\n                <td>R$ \', escape=False)\n    response.write("{:,}".format(round(comissaov,1)).replace(",","."))\n    response.write(\'0</td>\\n                <td>R$ \', escape=False)\n    response.write("{:,}".format(round(row.total_recebido,1)).replace(",","."))\n    response.write(\'0</a></td>\\n                <td>R$ \', escape=False)\n    response.write("{:,}".format(round(comissaoc,1)).replace(",","."))\n    response.write(\'0</a></td>\\n     \', escape=False)\n    if saldo>0:\n        response.write(\'\\n                <td>R$ \', escape=False)\n        response.write("{:,}".format(round(saldo,1)).replace(",","."))\n        response.write(\'0</a></td>\\n\', escape=False)\n    else:\n        response.write(\'\\n<td class="text-danger">R$ \', escape=False)\n        response.write("{:,}".format(round(saldo,1)).replace(",","."))\n        response.write(\'0</a></td>\\n\', escape=False)\n        pass\n    response.write(\'\\n                <td>\', escape=False)\n    response.write("{:,}".format(round(percent,1)).replace(",","."))\n    response.write(\'%</a></td>\\n            </tr>\\n\', escape=False)\n    venda+=row.total_vendas\n    response.write(\'\\n\', escape=False)\n    recebido+=row.total_recebido\n    response.write(\'\\n\', escape=False)\n    comissaovt+=comissaov\n    response.write(\'\\n\', escape=False)\n    comissaoct+=comissaoc\n    response.write(\'\\n\', escape=False)\n    if saldo>0:\n        response.write(\'\\n\', escape=False)\n        saldototal+=saldo\n        response.write(\'\\n\', escape=False)\n    else:\n        response.write(\'\\n\\n\', escape=False)\n        debitototal+=saldo\n        response.write(\'\\n\', escape=False)\n        pass\n    response.write(\'\\n\', escape=False)\n    perctotal=0\n    response.write(\'\\n            \', escape=False)\n    pass\nresponse.write(\'\\n            <tr>\\n                <th></th>\\n                <th>R$ \', escape=False)\nresponse.write("{:,}".format(round(venda,1)).replace(",","."))\nresponse.write(\'0</th>\\n                <th>R$ \', escape=False)\nresponse.write("{:,}".format(round(comissaovt,1)).replace(",","."))\nresponse.write(\'0</th>\\n                <th>R$ \', escape=False)\nresponse.write("{:,}".format(round(recebido,1)).replace(",","."))\nresponse.write(\'0</th>\\n                <th>R$ \', escape=False)\nresponse.write("{:,}".format(round(comissaoct,1)).replace(",","."))\nresponse.write(\'0</th>\\n                <th>R$ \', escape=False)\nresponse.write("{:,}".format(round(saldototal,1)).replace(",","."))\nresponse.write(\'0</th>\\n                \', escape=False)\nif recebido>0:\n    response.write(\'\\n                \', escape=False)\n    perctotal=recebido/venda*100\n    response.write(\'\\n                \', escape=False)\n    pass\nresponse.write(\'\\n                <th>\', escape=False)\nresponse.write("{:,}".format(round(perctotal,1)).replace(",","."))\nresponse.write(\'%</th>\\n            </tr>\\n   </tbody>\\n    </table>\\n</div>\\n<hr>\\n<div class="table-responsive">\\n    <table class="table table-bordered table-sm table-striped">\\n         <thead>\\n            <tr>\\n                <th>Nome</th>\\n                <th>Venda</th>\\n                <th>Comiss\\xc3\\xa3o</th>\\n                <th>Recebido</th>\\n                <th>Comiss\\xc3\\xa3o</th>\\n                <th>Saldo</th>\\n                <th>%</th>\\n            </tr>\\n        </thead>\\n        <tbody>\\n <tr>\\n                <th>\', escape=False)\nresponse.write(projeto.nome_chefe)\nresponse.write(\'</th>\\n                <th>R$ \', escape=False)\nresponse.write("{:,}".format(round(venda,1)).replace(",","."))\nresponse.write(\'0</th>\\n     \', escape=False)\ncom_venda_chefe=venda*projeto.comissao_praso/100\nresponse.write(\'\\n                <th>R$ \', escape=False)\nresponse.write("{:,}".format(round(com_venda_chefe,1)).replace(",","."))\nresponse.write(\'0</th>\\n                <th>R$ \', escape=False)\nresponse.write("{:,}".format(round(recebido,1)).replace(",","."))\nresponse.write(\'0</th>\\n     \\n     \', escape=False)\ncom_cobranca_chefe=recebido*projeto.comissao_cobranca/100\nresponse.write(\'\\n                <th>R$ \', escape=False)\nresponse.write("{:,}".format(round(com_cobranca_chefe,1)).replace(",","."))\nresponse.write(\'0</th>\\n     \\n     \', escape=False)\nsaldochefe=com_cobranca_chefe-com_venda_chefe\nresponse.write(\'\\n                <th>R$ \', escape=False)\nresponse.write("{:,}".format(round(saldochefe,1)).replace(",","."))\nresponse.write(\'0</th>\\n                \', escape=False)\nif recebido>0:\n    response.write(\'\\n                \', escape=False)\n    perctotal=recebido/venda*100\n    response.write(\'\\n                \', escape=False)\n    pass\nresponse.write(\'\\n                <th>\', escape=False)\nresponse.write("{:,}".format(round(perctotal,1)).replace(",","."))\nresponse.write(\'%</th>\\n            </tr>\\n        </tbody>\\n    </table>\\n</div>\\n\', escape=False)\nprojeto.total_saldo_quitacao_chefe=saldochefe\nresponse.write(\'\\n\', escape=False)\nprojeto.total_saldo_quitacao_vendedores=saldototal\nresponse.write(\'\\n\', escape=False)\nprojeto.total_debito_quitacao_vendedores=debitototal\nresponse.write(\'\\n\\n\', escape=False)\nprojeto.quant_vendedores=a\nresponse.write(\'\\n\', escape=False)\nprojeto.update_record()\nresponse.write(\'\\n\', escape=False)\nresponse.write(\'\\n      \', escape=False)\nresponse.write(response.toolbar() if response.show_toolbar else \'\')\nresponse.write(\'\\n    </div>\\n    \', escape=False)\nresponse.write(\' <!-- this is default footer -->\\n    <footer id="noprint" class="footer container-fluid ">\\n      <div class="row">\\n        <div class="col-md-12">\\n          <div class="copyright pull-left">\', escape=False)\nresponse.write(T(\'Copyright\'))\nresponse.write(\' &#169; \', escape=False)\nresponse.write(request.now.year)\nresponse.write(\'</div>\\n          <div id="poweredBy" class="pull-right">\\n              Suporte <a href="https://api.whatsapp.com/send?phone=5588981126816">(88)98112-6816</a>\\n            </div>\\n        </div>\\n      </div>\\n    </footer>\\n <footer class="footer container-fluid d-none d-print-block">\\n      <div class="row">\\n        <div class="col-md-12">\\n          <div class="copyright pull-left">Suporte - (88)98112-6816</div>\\n          <div id="poweredBy" class="pull-right">\\n             \', escape=False)\nif auth.user:\n    response.write(auth.user.first_name)\n    response.write(\' \', escape=False)\n    response.write(auth.user.last_name)\nelse:\n    response.write(\'Aluminum System\', escape=False)\n    pass\nresponse.write(\'\\n          </div>\\n        </div>\\n      </div>\\n    </footer>\\n    \', escape=False)\nresponse.write(\'\\n    <!-- The javascript =============================== -->\\n    <script src="\', escape=False)\nresponse.write(URL(\'static\',\'js/bootstrap.bundle.min.js\'))\nresponse.write(\'"></script>\\n    <script src="\', escape=False)\nresponse.write(URL(\'static\',\'js/web2py-bootstrap4.js\'))\nresponse.write(\'"></script>\\n    \', escape=False)\nresponse.write(\'\\n    \', escape=False)\nif response.google_analytics_id:\n    response.write(\'\\n    <!-- Analytics ==================================== -->\\n    <script src="\', escape=False)\n    response.write(URL(\'static\',\'js/analytics.min.js\'))\n    response.write(\'"></script>\\n    <script type="text/javascript">\\n      analytics.initialize({\\n      \\\'Google Analytics\\\':{trackingId:\\\'\', escape=False)\n    response.write(response.google_analytics_id)\n    response.write("\'}\\n      });\\n    </script>\\n    ", escape=False)\n    pass\nresponse.write(\'\\n  </body>\\n</html>\\n\', escape=False)'
p7
sS'snapshot'
p8
(dp9
S'exception'
p10
(dp11
S'__getslice__'
p12
S"<method-wrapper '__getslice__' of exceptions.ZeroDivisionError object>"
p13
sS'__str__'
p14
S"<method-wrapper '__str__' of exceptions.ZeroDivisionError object>"
p15
sS'__reduce__'
p16
S'<built-in method __reduce__ of exceptions.ZeroDivisionError object>'
p17
sS'__dict__'
p18
S'{}'
p19
sS'message'
p20
S"'float division by zero'"
p21
sS'__sizeof__'
p22
S'<built-in method __sizeof__ of exceptions.ZeroDivisionError object>'
p23
sS'__init__'
p24
S"<method-wrapper '__init__' of exceptions.ZeroDivisionError object>"
p25
sS'__setattr__'
p26
S"<method-wrapper '__setattr__' of exceptions.ZeroDivisionError object>"
p27
sS'__reduce_ex__'
p28
S'<built-in method __reduce_ex__ of exceptions.ZeroDivisionError object>'
p29
sS'__new__'
p30
S'<built-in method __new__ of type object>'
p31
sS'__format__'
p32
S'<built-in method __format__ of exceptions.ZeroDivisionError object>'
p33
sS'__class__'
p34
S"<type 'exceptions.ZeroDivisionError'>"
p35
sS'__doc__'
p36
S"'Second argument to a division or modulo operation was zero.'"
p37
sS'__getitem__'
p38
S"<method-wrapper '__getitem__' of exceptions.ZeroDivisionError object>"
p39
sS'__setstate__'
p40
S'<built-in method __setstate__ of exceptions.ZeroDivisionError object>'
p41
sS'__getattribute__'
p42
S"<method-wrapper '__getattribute__' of exceptions.ZeroDivisionError object>"
p43
sS'args'
p44
S"('float division by zero',)"
p45
sS'__subclasshook__'
p46
S'<built-in method __subclasshook__ of type object>'
p47
sS'__unicode__'
p48
S'<built-in method __unicode__ of exceptions.ZeroDivisionError object>'
p49
sS'__delattr__'
p50
S"<method-wrapper '__delattr__' of exceptions.ZeroDivisionError object>"
p51
sS'__repr__'
p52
S"<method-wrapper '__repr__' of exceptions.ZeroDivisionError object>"
p53
sS'__hash__'
p54
S"<method-wrapper '__hash__' of exceptions.ZeroDivisionError object>"
p55
ssS'evalue'
p56
S'float division by zero'
p57
sS'request'
p58
cgluon.html
XML_unpickle
p59
(S's\x15Z\x00\x00<div><table><tr><td style="font-weight:bold;vertical-align:top;">ajax</td><td style="vertical-align:top;">:</td><td><div>False</div></td></tr><tr><td style="font-weight:bold;vertical-align:top;">application</td><td style="vertical-align:top;">:</td><td><div>aluminum</div></td></tr><tr><td style="font-weight:bold;vertical-align:top;">args</td><td style="vertical-align:top;">:</td><td><div><table><tr><td><div>21</div></td></tr></table></div></td></tr><tr><td style="font-weight:bold;vertical-align:top;">cid</td><td style="vertical-align:top;">:</td><td><div>None</div></td></tr><tr><td style="font-weight:bold;vertical-align:top;">client</td><td style="vertical-align:top;">:</td><td><div>177.25.178.64</div></td></tr><tr><td style="font-weight:bold;vertical-align:top;">controller</td><td style="vertical-align:top;">:</td><td><div>cobranca</div></td></tr><tr><td style="font-weight:bold;vertical-align:top;">cookies</td><td style="vertical-align:top;">:</td><td><div><table><tr><td style="font-weight:bold;vertical-align:top;">session_id_abencoado</td><td style="vertical-align:top;">:</td><td><div>45.7.165.10-9c4e4131-6011-4744-985c-e030ce80d78c<table><tr><td style="font-weight:bold;vertical-align:top;">comment</td><td style="vertical-align:top;">:</td><td><div></div></td></tr><tr><td style="font-weight:bold;vertical-align:top;">domain</td><td style="vertical-align:top;">:</td><td><div></div></td></tr><tr><td style="font-weight:bold;vertical-align:top;">expires</td><td style="vertical-align:top;">:</td><td><div></div></td></tr><tr><td style="font-weight:bold;vertical-align:top;">httponly</td><td style="vertical-align:top;">:</td><td><div></div></td></tr><tr><td style="font-weight:bold;vertical-align:top;">max-age</td><td style="vertical-align:top;">:</td><td><div></div></td></tr><tr><td style="font-weight:bold;vertical-align:top;">path</td><td style="vertical-align:top;">:</td><td><div></div></td></tr><tr><td style="font-weight:bold;vertical-align:top;">secure</td><td style="vertical-align:top;">:</td><td><div></div></td></tr><tr><td style="font-weight:bold;vertical-align:top;">version</td><td style="vertical-align:top;">:</td><td><div></div></td></tr></table></div></td></tr><tr><td style="font-weight:bold;vertical-align:top;">session_id_aluminum</td><td style="vertical-align:top;">:</td><td><div>177.25.185.85-354ef28b-b699-4f74-b067-f554afbff3fa<table><tr><td style="font-weight:bold;vertical-align:top;">comment</td><td style="vertical-align:top;">:</td><td><div></div></td></tr><tr><td style="font-weight:bold;vertical-align:top;">domain</td><td style="vertical-align:top;">:</td><td><div></div></td></tr><tr><td style="font-weight:bold;vertical-align:top;">expires</td><td style="vertical-align:top;">:</td><td><div></div></td></tr><tr><td style="font-weight:bold;vertical-align:top;">httponly</td><td style="vertical-align:top;">:</td><td><div></div></td></tr><tr><td style="font-weight:bold;vertical-align:top;">max-age</td><td style="vertical-align:top;">:</td><td><div></div></td></tr><tr><td style="font-weight:bold;vertical-align:top;">path</td><td style="vertical-align:top;">:</td><td><div></div></td></tr><tr><td style="font-weight:bold;vertical-align:top;">secure</td><td style="vertical-align:top;">:</td><td><div></div></td></tr><tr><td style="font-weight:bold;vertical-align:top;">version</td><td style="vertical-align:top;">:</td><td><div></div></td></tr></table></div></td></tr></table></div></td></tr><tr><td style="font-weight:bold;vertical-align:top;">env</td><td style="vertical-align:top;">:</td><td><div><table><tr><td style="font-weight:bold;vertical-align:top;">CONTENT_LENGTH</td><td style="vertical-align:top;">:</td><td><div></div></td></tr><tr><td style="font-weight:bold;vertical-align:top;">CONTENT_TYPE</td><td style="vertical-align:top;">:</td><td><div></div></td></tr><tr><td style="font-weight:bold;vertical-align:top;">DOCUMENT_ROOT</td><td style="vertical-align:top;">:</td><td><div>/usr/local/openresty/nginx/html</div></td></tr><tr><td style="font-weight:bold;vertical-align:top;">HTTPS</td><td style="vertical-align:top;">:</td><td><div>on</div></td></tr><tr><td style="font-weight:bold;vertical-align:top;">HTTP_ACCEPT</td><td style="vertical-align:top;">:</td><td><div>text/html,application/xhtml+xml,application/xml;q=0.9,image/webp,image/apng,*/*;q=0.8,application/signed-exchange;v=b3;q=0.9</div></td></tr><tr><td style="font-weight:bold;vertical-align:top;">HTTP_ACCEPT_ENCODING</td><td style="vertical-align:top;">:</td><td><div>gzip, deflate, br</div></td></tr><tr><td style="font-weight:bold;vertical-align:top;">HTTP_ACCEPT_LANGUAGE</td><td style="vertical-align:top;">:</td><td><div>pt-BR,pt;q=0.9,en-US;q=0.8,en;q=0.7</div></td></tr><tr><td style="font-weight:bold;vertical-align:top;">HTTP_CONNECTION</td><td style="vertical-align:top;">:</td><td><div>close</div></td></tr><tr><td style="font-weight:bold;vertical-align:top;">HTTP_COOKIE</td><td style="vertical-align:top;">:</td><td><div>_ga=GA1.2.539622042.1573038765; session_id_abencoado=45.7.165.10-9c4e4131-6011-4744-985c-e030ce80d78c; session_id_aluminum=177.25.185.85-354ef28b-b699-4f74-b067-f554afbff3fa; _gid=GA1.2.29350893.1593108514</div></td></tr><tr><td style="font-weight:bold;vertical-align:top;">HTTP_HOST</td><td style="vertical-align:top;">:</td><td><div>rogoberto.pythonanywhere.com</div></td></tr><tr><td style="font-weight:bold;vertical-align:top;">HTTP_REFERER</td><td style="vertical-align:top;">:</td><td><div>https://rogoberto.pythonanywhere.com/aluminum/usuario/abencoado/21</div></td></tr><tr><td style="font-weight:bold;vertical-align:top;">HTTP_SEC_FETCH_DEST</td><td style="vertical-align:top;">:</td><td><div>document</div></td></tr><tr><td style="font-weight:bold;vertical-align:top;">HTTP_SEC_FETCH_MODE</td><td style="vertical-align:top;">:</td><td><div>navigate</div></td></tr><tr><td style="font-weight:bold;vertical-align:top;">HTTP_SEC_FETCH_SITE</td><td style="vertical-align:top;">:</td><td><div>same-origin</div></td></tr><tr><td style="font-weight:bold;vertical-align:top;">HTTP_SEC_FETCH_USER</td><td style="vertical-align:top;">:</td><td><div>?1</div></td></tr><tr><td style="font-weight:bold;vertical-align:top;">HTTP_UPGRADE_INSECURE_REQUESTS</td><td style="vertical-align:top;">:</td><td><div>1</div></td></tr><tr><td style="font-weight:bold;vertical-align:top;">HTTP_USER_AGENT</td><td style="vertical-align:top;">:</td><td><div>Mozilla/5.0 (Windows NT 6.1; Win64; x64) AppleWebKit/537.36 (KHTML, like Gecko) Chrome/83.0.4103.97 Safari/537.36</div></td></tr><tr><td style="font-weight:bold;vertical-align:top;">HTTP_X_FORWARDED_FOR</td><td style="vertical-align:top;">:</td><td><div>177.25.178.64</div></td></tr><tr><td style="font-weight:bold;vertical-align:top;">HTTP_X_REAL_IP</td><td style="vertical-align:top;">:</td><td><div>177.25.178.64</div></td></tr><tr><td style="font-weight:bold;vertical-align:top;">PATH_INFO</td><td style="vertical-align:top;">:</td><td><div>/aluminum/cobranca/saldo_quitacao/21</div></td></tr><tr><td style="font-weight:bold;vertical-align:top;">QUERY_STRING</td><td style="vertical-align:top;">:</td><td><div></div></td></tr><tr><td style="font-weight:bold;vertical-align:top;">REMOTE_ADDR</td><td style="vertical-align:top;">:</td><td><div>10.0.0.52</div></td></tr><tr><td style="font-weight:bold;vertical-align:top;">REMOTE_PORT</td><td style="vertical-align:top;">:</td><td><div>51090</div></td></tr><tr><td style="font-weight:bold;vertical-align:top;">REQUEST_METHOD</td><td style="vertical-align:top;">:</td><td><div>GET</div></td></tr><tr><td style="font-weight:bold;vertical-align:top;">REQUEST_URI</td><td style="vertical-align:top;">:</td><td><div>/aluminum/cobranca/saldo_quitacao/21</div></td></tr><tr><td style="font-weight:bold;vertical-align:top;">SCRIPT_NAME</td><td style="vertical-align:top;">:</td><td><div></div></td></tr><tr><td style="font-weight:bold;vertical-align:top;">SERVER_NAME</td><td style="vertical-align:top;">:</td><td><div>rogoberto.pythonanywhere.com</div></td></tr><tr><td style="font-weight:bold;vertical-align:top;">SERVER_PORT</td><td style="vertical-align:top;">:</td><td><div>443</div></td></tr><tr><td style="font-weight:bold;vertical-align:top;">SERVER_PROTOCOL</td><td style="vertical-align:top;">:</td><td><div>HTTP/1.1</div></td></tr><tr><td style="font-weight:bold;vertical-align:top;">app_folders</td><td style="vertical-align:top;">:</td><td><div>set([&#x27;/home/rogoberto/web2py/applications/welcome/&#x27;, &#x27;/home/rogoberto/web2py/applications/aluminum/&#x27;, &#x27;/home/rogoberto/web2py/applications/localfs/&#x27;, &#x27;/home/rogoberto/web2py/applications/admin/&#x27;])</div></td></tr><tr><td style="font-weight:bold;vertical-align:top;">applications_parent</td><td style="vertical-align:top;">:</td><td><div>/home/rogoberto/web2py</div></td></tr><tr><td style="font-weight:bold;vertical-align:top;">content_length</td><td style="vertical-align:top;">:</td><td><div></div></td></tr><tr><td style="font-weight:bold;vertical-align:top;">content_type</td><td style="vertical-align:top;">:</td><td><div></div></td></tr><tr><td style="font-weight:bold;vertical-align:top;">db_sessions</td><td style="vertical-align:top;">:</td><td><div>set([])</div></td></tr><tr><td style="font-weight:bold;vertical-align:top;">debugging</td><td style="vertical-align:top;">:</td><td><div>True</div></td></tr><tr><td style="font-weight:bold;vertical-align:top;">document_root</td><td style="vertical-align:top;">:</td><td><div>/usr/local/openresty/nginx/html</div></td></tr><tr><td style="font-weight:bold;vertical-align:top;">gluon_parent</td><td style="vertical-align:top;">:</td><td><div>/home/rogoberto/web2py</div></td></tr><tr><td style="font-weight:bold;vertical-align:top;">http_accept</td><td style="vertical-align:top;">:</td><td><div>text/html,application/xhtml+xml,application/xml;q=0.9,image/webp,image/apng,*/*;q=0.8,application/signed-exchange;v=b3;q=0.9</div></td></tr><tr><td style="font-weight:bold;vertical-align:top;">http_accept_encoding</td><td style="vertical-align:top;">:</td><td><div>gzip, deflate, br</div></td></tr><tr><td style="font-weight:bold;vertical-align:top;">http_accept_language</td><td style="vertical-align:top;">:</td><td><div>pt-BR,pt;q=0.9,en-US;q=0.8,en;q=0.7</div></td></tr><tr><td style="font-weight:bold;vertical-align:top;">http_connection</td><td style="vertical-align:top;">:</td><td><div>close</div></td></tr><tr><td style="font-weight:bold;vertical-align:top;">http_cookie</td><td style="vertical-align:top;">:</td><td><div>_ga=GA1.2.539622042.1573038765; session_id_abencoado=45.7.165.10-9c4e4131-6011-4744-985c-e030ce80d78c; session_id_aluminum=177.25.185.85-354ef28b-b699-4f74-b067-f554afbff3fa; _gid=GA1.2.29350893.1593108514</div></td></tr><tr><td style="font-weight:bold;vertical-align:top;">http_host</td><td style="vertical-align:top;">:</td><td><div>rogoberto.pythonanywhere.com</div></td></tr><tr><td style="font-weight:bold;vertical-align:top;">http_referer</td><td style="vertical-align:top;">:</td><td><div>https://rogoberto.pythonanywhere.com/aluminum/usuario/abencoado/21</div></td></tr><tr><td style="font-weight:bold;vertical-align:top;">http_sec_fetch_dest</td><td style="vertical-align:top;">:</td><td><div>document</div></td></tr><tr><td style="font-weight:bold;vertical-align:top;">http_sec_fetch_mode</td><td style="vertical-align:top;">:</td><td><div>navigate</div></td></tr><tr><td style="font-weight:bold;vertical-align:top;">http_sec_fetch_site</td><td style="vertical-align:top;">:</td><td><div>same-origin</div></td></tr><tr><td style="font-weight:bold;vertical-align:top;">http_sec_fetch_user</td><td style="vertical-align:top;">:</td><td><div>?1</div></td></tr><tr><td style="font-weight:bold;vertical-align:top;">http_upgrade_insecure_requests</td><td style="vertical-align:top;">:</td><td><div>1</div></td></tr><tr><td style="font-weight:bold;vertical-align:top;">http_user_agent</td><td style="vertical-align:top;">:</td><td><div>Mozilla/5.0 (Windows NT 6.1; Win64; x64) AppleWebKit/537.36 (KHTML, like Gecko) Chrome/83.0.4103.97 Safari/537.36</div></td></tr><tr><td style="font-weight:bold;vertical-align:top;">http_x_forwarded_for</td><td style="vertical-align:top;">:</td><td><div>177.25.178.64</div></td></tr><tr><td style="font-weight:bold;vertical-align:top;">http_x_real_ip</td><td style="vertical-align:top;">:</td><td><div>177.25.178.64</div></td></tr><tr><td style="font-weight:bold;vertical-align:top;">https</td><td style="vertical-align:top;">:</td><td><div>on</div></td></tr><tr><td style="font-weight:bold;vertical-align:top;">is_jython</td><td style="vertical-align:top;">:</td><td><div>False</div></td></tr><tr><td style="font-weight:bold;vertical-align:top;">is_py2</td><td style="vertical-align:top;">:</td><td><div>True</div></td></tr><tr><td style="font-weight:bold;vertical-align:top;">is_pypy</td><td style="vertical-align:top;">:</td><td><div>False</div></td></tr><tr><td style="font-weight:bold;vertical-align:top;">is_source</td><td style="vertical-align:top;">:</td><td><div>True</div></td></tr><tr><td style="font-weight:bold;vertical-align:top;">local_hosts</td><td style="vertical-align:top;">:</td><td><div><table><tr><td><div>35.173.69.207</div></td></tr><tr><td><div>::ffff:127.0.0.1</div></td></tr><tr><td><div>::1</div></td></tr><tr><td><div>rogoberto.pythonanywhere.com</div></td></tr><tr><td><div>127.0.0.1</div></td></tr><tr><td><div>green-liveweb14</div></td></tr><tr><td><div>localhost</div></td></tr></table></div></td></tr><tr><td style="font-weight:bold;vertical-align:top;">path_info</td><td style="vertical-align:top;">:</td><td><div>/aluminum/cobranca/saldo_quitacao/21</div></td></tr><tr><td style="font-weight:bold;vertical-align:top;">query_string</td><td style="vertical-align:top;">:</td><td><div></div></td></tr><tr><td style="font-weight:bold;vertical-align:top;">remote_addr</td><td style="vertical-align:top;">:</td><td><div>10.0.0.52</div></td></tr><tr><td style="font-weight:bold;vertical-align:top;">remote_port</td><td style="vertical-align:top;">:</td><td><div>51090</div></td></tr><tr><td style="font-weight:bold;vertical-align:top;">request_method</td><td style="vertical-align:top;">:</td><td><div>GET</div></td></tr><tr><td style="font-weight:bold;vertical-align:top;">request_uri</td><td style="vertical-align:top;">:</td><td><div>/aluminum/cobranca/saldo_quitacao/21</div></td></tr><tr><td style="font-weight:bold;vertical-align:top;">script_name</td><td style="vertical-align:top;">:</td><td><div></div></td></tr><tr><td style="font-weight:bold;vertical-align:top;">server_name</td><td style="vertical-align:top;">:</td><td><div>rogoberto.pythonanywhere.com</div></td></tr><tr><td style="font-weight:bold;vertical-align:top;">server_port</td><td style="vertical-align:top;">:</td><td><div>443</div></td></tr><tr><td style="font-weight:bold;vertical-align:top;">server_protocol</td><td style="vertical-align:top;">:</td><td><div>HTTP/1.1</div></td></tr><tr><td style="font-weight:bold;vertical-align:top;">uwsgi.node</td><td style="vertical-align:top;">:</td><td><div>green-liveweb14</div></td></tr><tr><td style="font-weight:bold;vertical-align:top;">uwsgi.version</td><td style="vertical-align:top;">:</td><td><div>2.0.17.1</div></td></tr><tr><td style="font-weight:bold;vertical-align:top;">uwsgi_node</td><td style="vertical-align:top;">:</td><td><div>green-liveweb14</div></td></tr><tr><td style="font-weight:bold;vertical-align:top;">uwsgi_version</td><td style="vertical-align:top;">:</td><td><div>2.0.17.1</div></td></tr><tr><td style="font-weight:bold;vertical-align:top;">web2py_path</td><td style="vertical-align:top;">:</td><td><div>/home/rogoberto/web2py</div></td></tr><tr><td style="font-weight:bold;vertical-align:top;">web2py_version</td><td style="vertical-align:top;">:</td><td><div>2.17.1-stable+timestamp.2018.08.06.01.02.56</div></td></tr><tr><td style="font-weight:bold;vertical-align:top;">wsgi.errors</td><td style="vertical-align:top;">:</td><td><div>&lt;uwsgi_file__bin_user_wsgi_wrapper.ErrorLogFile object at 0x7f7bf3aa8d10&gt;</div></td></tr><tr><td style="font-weight:bold;vertical-align:top;">wsgi.file_wrapper</td><td style="vertical-align:top;">:</td><td><div>&lt;built-in function uwsgi_sendfile&gt;</div></td></tr><tr><td style="font-weight:bold;vertical-align:top;">wsgi.input</td><td style="vertical-align:top;">:</td><td><div>&lt;uwsgi._Input object at 0x7f7bf3a80cc0&gt;</div></td></tr><tr><td style="font-weight:bold;vertical-align:top;">wsgi.multiprocess</td><td style="vertical-align:top;">:</td><td><div>False</div></td></tr><tr><td style="font-weight:bold;vertical-align:top;">wsgi.multithread</td><td style="vertical-align:top;">:</td><td><div>False</div></td></tr><tr><td style="font-weight:bold;vertical-align:top;">wsgi.run_once</td><td style="vertical-align:top;">:</td><td><div>False</div></td></tr><tr><td style="font-weight:bold;vertical-align:top;">wsgi.url_scheme</td><td style="vertical-align:top;">:</td><td><div>https</div></td></tr><tr><td style="font-weight:bold;vertical-align:top;">wsgi.version</td><td style="vertical-align:top;">:</td><td><div><table><tr><td><div>1</div></td></tr><tr><td><div>0</div></td></tr></table></div></td></tr><tr><td style="font-weight:bold;vertical-align:top;">wsgi_errors</td><td style="vertical-align:top;">:</td><td><div>&lt;uwsgi_file__bin_user_wsgi_wrapper.ErrorLogFile object at 0x7f7bf3aa8d10&gt;</div></td></tr><tr><td style="font-weight:bold;vertical-align:top;">wsgi_file_wrapper</td><td style="vertical-align:top;">:</td><td><div>&lt;built-in function uwsgi_sendfile&gt;</div></td></tr><tr><td style="font-weight:bold;vertical-align:top;">wsgi_input</td><td style="vertical-align:top;">:</td><td><div>&lt;uwsgi._Input object at 0x7f7bf3a80cc0&gt;</div></td></tr><tr><td style="font-weight:bold;vertical-align:top;">wsgi_multiprocess</td><td style="vertical-align:top;">:</td><td><div>False</div></td></tr><tr><td style="font-weight:bold;vertical-align:top;">wsgi_multithread</td><td style="vertical-align:top;">:</td><td><div>False</div></td></tr><tr><td style="font-weight:bold;vertical-align:top;">wsgi_run_once</td><td style="vertical-align:top;">:</td><td><div>False</div></td></tr><tr><td style="font-weight:bold;vertical-align:top;">wsgi_url_scheme</td><td style="vertical-align:top;">:</td><td><div>https</div></td></tr><tr><td style="font-weight:bold;vertical-align:top;">wsgi_version</td><td style="vertical-align:top;">:</td><td><div><table><tr><td><div>1</div></td></tr><tr><td><div>0</div></td></tr></table></div></td></tr></table></div></td></tr><tr><td style="font-weight:bold;vertical-align:top;">extension</td><td style="vertical-align:top;">:</td><td><div>html</div></td></tr><tr><td style="font-weight:bold;vertical-align:top;">folder</td><td style="vertical-align:top;">:</td><td><div>/home/rogoberto/web2py/applications/aluminum/</div></td></tr><tr><td style="font-weight:bold;vertical-align:top;">function</td><td style="vertical-align:top;">:</td><td><div>saldo_quitacao</div></td></tr><tr><td style="font-weight:bold;vertical-align:top;">global_settings</td><td style="vertical-align:top;">:</td><td><div><table><tr><td style="font-weight:bold;vertical-align:top;">app_folders</td><td style="vertical-align:top;">:</td><td><div>set([&#x27;/home/rogoberto/web2py/applications/welcome/&#x27;, &#x27;/home/rogoberto/web2py/applications/aluminum/&#x27;, &#x27;/home/rogoberto/web2py/applications/localfs/&#x27;, &#x27;/home/rogoberto/web2py/applications/admin/&#x27;])</div></td></tr><tr><td style="font-weight:bold;vertical-align:top;">applications_parent</td><td style="vertical-align:top;">:</td><td><div>/home/rogoberto/web2py</div></td></tr><tr><td style="font-weight:bold;vertical-align:top;">db_sessions</td><td style="vertical-align:top;">:</td><td><div>set([])</div></td></tr><tr><td style="font-weight:bold;vertical-align:top;">debugging</td><td style="vertical-align:top;">:</td><td><div>True</div></td></tr><tr><td style="font-weight:bold;vertical-align:top;">gluon_parent</td><td style="vertical-align:top;">:</td><td><div>/home/rogoberto/web2py</div></td></tr><tr><td style="font-weight:bold;vertical-align:top;">is_jython</td><td style="vertical-align:top;">:</td><td><div>False</div></td></tr><tr><td style="font-weight:bold;vertical-align:top;">is_py2</td><td style="vertical-align:top;">:</td><td><div>True</div></td></tr><tr><td style="font-weight:bold;vertical-align:top;">is_pypy</td><td style="vertical-align:top;">:</td><td><div>False</div></td></tr><tr><td style="font-weight:bold;vertical-align:top;">is_source</td><td style="vertical-align:top;">:</td><td><div>True</div></td></tr><tr><td style="font-weight:bold;vertical-align:top;">local_hosts</td><td style="vertical-align:top;">:</td><td><div><table><tr><td><div>35.173.69.207</div></td></tr><tr><td><div>::ffff:127.0.0.1</div></td></tr><tr><td><div>::1</div></td></tr><tr><td><div>rogoberto.pythonanywhere.com</div></td></tr><tr><td><div>127.0.0.1</div></td></tr><tr><td><div>green-liveweb14</div></td></tr><tr><td><div>localhost</div></td></tr></table></div></td></tr><tr><td style="font-weight:bold;vertical-align:top;">web2py_version</td><td style="vertical-align:top;">:</td><td><div>2.17.1-stable+timestamp.2018.08.06.01.02.56</div></td></tr></table></div></td></tr><tr><td style="font-weight:bold;vertical-align:top;">is_https</td><td style="vertical-align:top;">:</td><td><div>True</div></td></tr><tr><td style="font-weight:bold;vertical-align:top;">is_local</td><td style="vertical-align:top;">:</td><td><div>False</div></td></tr><tr><td style="font-weight:bold;vertical-align:top;">is_restful</td><td style="vertical-align:top;">:</td><td><div>False</div></td></tr><tr><td style="font-weight:bold;vertical-align:top;">is_scheduler</td><td style="vertical-align:top;">:</td><td><div>False</div></td></tr><tr><td style="font-weight:bold;vertical-align:top;">is_shell</td><td style="vertical-align:top;">:</td><td><div>False</div></td></tr><tr><td style="font-weight:bold;vertical-align:top;">method</td><td style="vertical-align:top;">:</td><td><div>GET</div></td></tr><tr><td style="font-weight:bold;vertical-align:top;">now</td><td style="vertical-align:top;">:</td><td><div>datetime.datetime(2020, 6, 25, 18, 50, 50, 371127)</div></td></tr><tr><td style="font-weight:bold;vertical-align:top;">raw_args</td><td style="vertical-align:top;">:</td><td><div>21</div></td></tr><tr><td style="font-weight:bold;vertical-align:top;">raw_extension</td><td style="vertical-align:top;">:</td><td><div>None</div></td></tr><tr><td style="font-weight:bold;vertical-align:top;">url</td><td style="vertical-align:top;">:</td><td><div>/aluminum/cobranca/saldo_quitacao/21</div></td></tr><tr><td style="font-weight:bold;vertical-align:top;">utcnow</td><td style="vertical-align:top;">:</td><td><div>datetime.datetime(2020, 6, 25, 18, 50, 50, 371151)</div></td></tr><tr><td style="font-weight:bold;vertical-align:top;">wsgi</td><td style="vertical-align:top;">:</td><td><div>&lt;gluon.main.LazyWSGI object at 0x7f7bf07a19d0&gt;</div></td></tr></table></div>'
tRp60
sS'frames'
p61
(lp62
(dp63
S'file'
p64
S'/home/rogoberto/web2py/gluon/restricted.py'
p65
sS'dump'
p66
(dp67
S'environment'
p68
S"{'A': <class 'gluon.html.A'>, 'ANY_OF': <class 'gluon.validators.ANY_OF'>, 'ASSIGNJS': <function ASSIGNJS>, 'AppConfig': <function AppConfig>, 'Auth': <class 'gluon.tools.Auth'>, 'B': <class 'gluon.html.B'>, 'BEAUTIFY': <class 'gluon.html.BEAUTIFY'>, 'BODY': <class 'gluon.html.BODY'>, 'BR': <class 'gluon.html.BR'>, 'BUTTON': <class 'gluon.html.BUTTON'>, ...}"
p69
sS'ccode'
p70
S'<code object <module> at 0x7f7bf04c8330, file "/...inum/views/cobranca/saldo_quitacao.html", line 1>'
p71
ssS'lnum'
p72
I219
sS'lines'
p73
(dp74
I214
S'    if environment is None:'
p75
sI215
S'        environment = {}'
p76
sI216
S"    environment['__file__'] = layer"
p77
sI217
S"    environment['__name__'] = '__restricted__'"
p78
sI218
S'    try:'
p79
sI219
S'        exec(ccode, environment)'
p80
sI220
S'    except HTTP:'
p81
sI221
S'        raise'
p82
sI222
S'    except RestrictedError:'
p83
sI223
S'        # do not encapsulate (obfuscate) the original RestrictedError'
p84
ssS'call'
p85
S'(ccode=<code object <module> at 0x7f7bf04c8330, file "/...inum/views/cobranca/saldo_quitacao.html", line 1>, environment={\'A\': <class \'gluon.html.A\'>, \'ANY_OF\': <class \'gluon.validators.ANY_OF\'>, \'ASSIGNJS\': <function ASSIGNJS>, \'AppConfig\': <function AppConfig>, \'Auth\': <class \'gluon.tools.Auth\'>, \'B\': <class \'gluon.html.B\'>, \'BEAUTIFY\': <class \'gluon.html.BEAUTIFY\'>, \'BODY\': <class \'gluon.html.BODY\'>, \'BR\': <class \'gluon.html.BR\'>, \'BUTTON\': <class \'gluon.html.BUTTON\'>, ...}, layer=\'/home/rogoberto/web2py/applications/aluminum/views/cobranca/saldo_quitacao.html\', scode=r"response.write(\'<!DOCTYPE html>\\n<!--[if (gt IE ...nse.write(\'\\n  </body>\\n</html>\\n\', escape=False)")'
p86
sS'func'
p87
S'restricted'
p88
sa(dp89
g64
S'/home/rogoberto/web2py/applications/aluminum/views/cobranca/saldo_quitacao.html'
p90
sg66
(dp91
sg72
I205
sg73
(dp92
I196
S"    response.write('\\n            ', escape=False)"
p93
sI197
S'    if row.total_vendas>0:'
p94
sI198
S"        response.write('\\n            ', escape=False)"
p95
sI199
S'        comissaov=row.total_vendas*row.comissao_venda/100'
p96
sI200
S"        response.write('\\n            ', escape=False)"
p97
sI201
S'        pass'
p98
sI202
S"    response.write('\\n            ', escape=False)"
p99
sI203
S'    if row.total_recebido>0:'
p100
sI204
S"        response.write('\\n            ', escape=False)"
p101
sI205
S'        percent=row.total_recebido/row.total_vendas*100'
p102
sI206
S"        response.write('\\n            ', escape=False)"
p103
sI207
S'        comissaoc=row.total_recebido*row.comissao_cobranca/100'
p104
sI208
S"        response.write('\\n            ', escape=False)"
p105
sI209
S'        pass'
p106
sI210
S"    response.write('\\n            ', escape=False)"
p107
sI211
S'    saldo=comissaoc-comissaov'
p108
sI212
S'    response.write(\'\\n            \\n            <tr>\\n                <td><a href="\', escape=False)'
p109
sI213
S"    response.write(URL('cobranca','alterar_comissao', args=row.id))"
p110
sI214
S'    response.write(\'">\', escape=False)'
p111
sI215
S'    response.write(row.nome)'
p112
ssg85
S'()'
p113
sg87
S'<module>'
p114
sasS'pyver'
p115
S'Python 2.7.12: /usr/local/bin/uwsgi (prefix: /usr)'
p116
sS'session'
p117
g59
(S's\xec\x08\x00\x00<div><table><tr><td style="font-weight:bold;vertical-align:top;">auth</td><td style="vertical-align:top;">:</td><td><div><table><tr><td style="font-weight:bold;vertical-align:top;">expiration</td><td style="vertical-align:top;">:</td><td><div>2592000</div></td></tr><tr><td style="font-weight:bold;vertical-align:top;">hmac_key</td><td style="vertical-align:top;">:</td><td><div>c3963b22-0ade-48d1-8c47-228f785a80ab</div></td></tr><tr><td style="font-weight:bold;vertical-align:top;">last_visit</td><td style="vertical-align:top;">:</td><td><div>datetime.datetime(2020, 6, 22, 19, 14, 14, 983096)</div></td></tr><tr><td style="font-weight:bold;vertical-align:top;">remember_me</td><td style="vertical-align:top;">:</td><td><div>True</div></td></tr><tr><td style="font-weight:bold;vertical-align:top;">user</td><td style="vertical-align:top;">:</td><td><div><table><tr><td style="font-weight:bold;vertical-align:top;">email</td><td style="vertical-align:top;">:</td><td><div>meme@gmail.com</div></td></tr><tr><td style="font-weight:bold;vertical-align:top;">first_name</td><td style="vertical-align:top;">:</td><td><div>Meme</div></td></tr><tr><td style="font-weight:bold;vertical-align:top;">id</td><td style="vertical-align:top;">:</td><td><div>6L</div></td></tr><tr><td style="font-weight:bold;vertical-align:top;">last_name</td><td style="vertical-align:top;">:</td><td><div>Aben\xc3\xa7oado </div></td></tr><tr><td style="font-weight:bold;vertical-align:top;">registration_id</td><td style="vertical-align:top;">:</td><td><div></div></td></tr><tr><td style="font-weight:bold;vertical-align:top;">registration_key</td><td style="vertical-align:top;">:</td><td><div></div></td></tr><tr><td style="font-weight:bold;vertical-align:top;">reset_password_key</td><td style="vertical-align:top;">:</td><td><div></div></td></tr></table></div></td></tr><tr><td style="font-weight:bold;vertical-align:top;">user_groups</td><td style="vertical-align:top;">:</td><td><div><table><tr><td style="font-weight:bold;vertical-align:top;">5</td><td style="vertical-align:top;">:</td><td><div>user_6</div></td></tr></table></div></td></tr></table></div></td></tr><tr><td style="font-weight:bold;vertical-align:top;">flash</td><td style="vertical-align:top;">:</td><td><div>None</div></td></tr></table></div>'
tRp118
sS'etype'
p119
S"<type 'exceptions.ZeroDivisionError'>"
p120
sS'date'
p121
S'Thu Jun 25 18:50:50 2020'
p122
sS'response'
p123
g59
(S's\x1e\x1d\x00\x00<div><table><tr><td style="font-weight:bold;vertical-align:top;">body</td><td style="vertical-align:top;">:</td><td><div>&lt;cStringIO.StringO object at 0x7f7bf0d8d110&gt;</div></td></tr><tr><td style="font-weight:bold;vertical-align:top;">cookies</td><td style="vertical-align:top;">:</td><td><div><table><tr><td style="font-weight:bold;vertical-align:top;">session_id_aluminum</td><td style="vertical-align:top;">:</td><td><div>177.25.185.85-354ef28b-b699-4f74-b067-f554afbff3fa<table><tr><td style="font-weight:bold;vertical-align:top;">comment</td><td style="vertical-align:top;">:</td><td><div></div></td></tr><tr><td style="font-weight:bold;vertical-align:top;">domain</td><td style="vertical-align:top;">:</td><td><div></div></td></tr><tr><td style="font-weight:bold;vertical-align:top;">expires</td><td style="vertical-align:top;">:</td><td><div></div></td></tr><tr><td style="font-weight:bold;vertical-align:top;">httponly</td><td style="vertical-align:top;">:</td><td><div></div></td></tr><tr><td style="font-weight:bold;vertical-align:top;">max-age</td><td style="vertical-align:top;">:</td><td><div></div></td></tr><tr><td style="font-weight:bold;vertical-align:top;">path</td><td style="vertical-align:top;">:</td><td><div>/</div></td></tr><tr><td style="font-weight:bold;vertical-align:top;">secure</td><td style="vertical-align:top;">:</td><td><div></div></td></tr><tr><td style="font-weight:bold;vertical-align:top;">version</td><td style="vertical-align:top;">:</td><td><div></div></td></tr></table></div></td></tr></table></div></td></tr><tr><td style="font-weight:bold;vertical-align:top;">delimiters</td><td style="vertical-align:top;">:</td><td><div><table><tr><td><div>{{</div></td></tr><tr><td><div>}}</div></td></tr></table></div></td></tr><tr><td style="font-weight:bold;vertical-align:top;">files</td><td style="vertical-align:top;">:</td><td><div><table><tr><td><div>/aluminum/static/js/jquery.js</div></td></tr><tr><td><div>/aluminum/static/css/calendar.css</div></td></tr><tr><td><div>/aluminum/static/js/calendar.js</div></td></tr><tr><td><div>/aluminum/static/js/web2py.js</div></td></tr></table></div></td></tr><tr><td style="font-weight:bold;vertical-align:top;">flash</td><td style="vertical-align:top;">:</td><td><div></div></td></tr><tr><td style="font-weight:bold;vertical-align:top;">form_label_separator</td><td style="vertical-align:top;">:</td><td><div></div></td></tr><tr><td style="font-weight:bold;vertical-align:top;">formstyle</td><td style="vertical-align:top;">:</td><td><div>bootstrap4_inline</div></td></tr><tr><td style="font-weight:bold;vertical-align:top;">generic_patterns</td><td style="vertical-align:top;">:</td><td><div><table></table></div></td></tr><tr><td style="font-weight:bold;vertical-align:top;">google_analytics_id</td><td style="vertical-align:top;">:</td><td><div>None</div></td></tr><tr><td style="font-weight:bold;vertical-align:top;">headers</td><td style="vertical-align:top;">:</td><td><div><table><tr><td style="font-weight:bold;vertical-align:top;">X-Powered-By</td><td style="vertical-align:top;">:</td><td><div>web2py</div></td></tr></table></div></td></tr><tr><td style="font-weight:bold;vertical-align:top;">menu</td><td style="vertical-align:top;">:</td><td><div><table><tr><td><div><table><tr><td><div>Principal</div></td></tr><tr><td><div>False</div></td></tr><tr><td><div>/aluminum/default/index</div></td></tr><tr><td><div><table></table></div></td></tr></table></div></td></tr></table></div></td></tr><tr><td style="font-weight:bold;vertical-align:top;">meta</td><td style="vertical-align:top;">:</td><td><div><table><tr><td style="font-weight:bold;vertical-align:top;">author</td><td style="vertical-align:top;">:</td><td><div>Your Name &lt;you@example.com&gt;</div></td></tr><tr><td style="font-weight:bold;vertical-align:top;">description</td><td style="vertical-align:top;">:</td><td><div>a cool new app</div></td></tr><tr><td style="font-weight:bold;vertical-align:top;">generator</td><td style="vertical-align:top;">:</td><td><div>Web2py Web Framework</div></td></tr><tr><td style="font-weight:bold;vertical-align:top;">keywords</td><td style="vertical-align:top;">:</td><td><div><table><tr><td><div>web2py</div></td></tr><tr><td><div>python</div></td></tr><tr><td><div>framework</div></td></tr></table></div></td></tr></table></div></td></tr><tr><td style="font-weight:bold;vertical-align:top;">models_to_run</td><td style="vertical-align:top;">:</td><td><div><table><tr><td><div>^\\w+\\.py$</div></td></tr><tr><td><div>^cobranca/\\w+\\.py$</div></td></tr><tr><td><div>^cobranca/saldo_quitacao/\\w+\\.py$</div></td></tr></table></div></td></tr><tr><td style="font-weight:bold;vertical-align:top;">postprocessing</td><td style="vertical-align:top;">:</td><td><div><table></table></div></td></tr><tr><td style="font-weight:bold;vertical-align:top;">session_client</td><td style="vertical-align:top;">:</td><td><div>177.25.178.64</div></td></tr><tr><td style="font-weight:bold;vertical-align:top;">session_cookie_compression_level</td><td style="vertical-align:top;">:</td><td><div>None</div></td></tr><tr><td style="font-weight:bold;vertical-align:top;">session_cookie_expires</td><td style="vertical-align:top;">:</td><td><div>2592000</div></td></tr><tr><td style="font-weight:bold;vertical-align:top;">session_data_name</td><td style="vertical-align:top;">:</td><td><div>session_data_aluminum</div></td></tr><tr><td style="font-weight:bold;vertical-align:top;">session_file</td><td style="vertical-align:top;">:</td><td><div>&lt;open file &#x27;/home/rogoberto/web2py/applications/aluminum/sessions/0e0/107/177.25.185.85-354ef28b-b699-4f74-b067-f554afbff3fa&#x27;, mode &#x27;rb+&#x27; at 0x7f7bf0cd7b70&gt;</div></td></tr><tr><td style="font-weight:bold;vertical-align:top;">session_filename</td><td style="vertical-align:top;">:</td><td><div>/home/rogoberto/web2py/applications/aluminum/sessions/177.25.185.85-354ef28b-b699-4f74-b067-f554afbff3fa</div></td></tr><tr><td style="font-weight:bold;vertical-align:top;">session_hash</td><td style="vertical-align:top;">:</td><td><div>e809428ab14f9691620708812297e642</div></td></tr><tr><td style="font-weight:bold;vertical-align:top;">session_id</td><td style="vertical-align:top;">:</td><td><div>177.25.185.85-354ef28b-b699-4f74-b067-f554afbff3fa</div></td></tr><tr><td style="font-weight:bold;vertical-align:top;">session_id_name</td><td style="vertical-align:top;">:</td><td><div>session_id_aluminum</div></td></tr><tr><td style="font-weight:bold;vertical-align:top;">session_locked</td><td style="vertical-align:top;">:</td><td><div>True</div></td></tr><tr><td style="font-weight:bold;vertical-align:top;">session_masterapp</td><td style="vertical-align:top;">:</td><td><div>aluminum</div></td></tr><tr><td style="font-weight:bold;vertical-align:top;">session_new</td><td style="vertical-align:top;">:</td><td><div>False</div></td></tr><tr><td style="font-weight:bold;vertical-align:top;">session_storage_type</td><td style="vertical-align:top;">:</td><td><div>file</div></td></tr><tr><td style="font-weight:bold;vertical-align:top;">show_toolbar</td><td style="vertical-align:top;">:</td><td><div>False</div></td></tr><tr><td style="font-weight:bold;vertical-align:top;">status</td><td style="vertical-align:top;">:</td><td><div>200</div></td></tr><tr><td style="font-weight:bold;vertical-align:top;">view</td><td style="vertical-align:top;">:</td><td><div>cobranca/saldo_quitacao.html</div></td></tr></table></div>'
tRp124
sS'locals'
p125
(dp126
S'IFRAME'
p127
S"<class 'gluon.html.IFRAME'>"
p128
sS'TR'
p129
S"<class 'gluon.html.TR'>"
p130
sS'PY2'
p131
S'True'
p132
sS'OBJECT'
p133
S"<class 'gluon.html.OBJECT'>"
p134
sS'SQLDB'
p135
S"<class 'pydal.base.DAL'>"
p136
sg117
S"<Storage {'_formkey[despesa/638]': ['878f9951-01...162]': ['577c6cc2-bede-4644-a041-a81e16b056c0']}>"
p137
sS'LINK'
p138
S"<class 'gluon.html.LINK'>"
p139
sS'BR'
p140
S"<class 'gluon.html.BR'>"
p141
sS'local_import'
p142
S'<function <lambda>>'
p143
sS'OPTGROUP'
p144
S"<class 'gluon.html.OPTGROUP'>"
p145
sS'venda'
p146
S'403000.0'
p147
sS'row'
p148
S'<Row {\'venda\': <Set ("venda"."vendedor" = 160)>,....0, \'total_fichas_retorno\': 0L, \'descricao\': \'\'}>'
p149
sS'PRE'
p150
S"<class 'gluon.html.PRE'>"
p151
sS'IS_INT_IN_RANGE'
p152
S"<class 'gluon.validators.IS_INT_IN_RANGE'>"
p153
sS'to_bytes'
p154
S'<function to_bytes>'
p155
sS'IS_LOWER'
p156
S"<class 'gluon.validators.IS_LOWER'>"
p157
sS'IS_STRONG'
p158
S"<class 'gluon.validators.IS_STRONG'>"
p159
sS'cache'
p160
S'<gluon.cache.Cache object>'
p161
sS'IS_IN_DB'
p162
S"<class 'gluon.validators.IS_IN_DB'>"
p163
sS'TAG'
p164
S'<gluon.html.__TAG__ object>'
p165
sS'SQLField'
p166
S"<class 'pydal.objects.Field'>"
p167
sS'mail'
p168
S'<gluon.tools.Mail object>'
p169
sS'BODY'
p170
S"<class 'gluon.html.BODY'>"
p171
sS'IS_DATE_IN_RANGE'
p172
S"<class 'gluon.validators.IS_DATE_IN_RANGE'>"
p173
sS'saldototal'
p174
S'2924.0'
p175
sS'URL'
p176
S'<function URL>'
p177
sS'__file__'
p178
S"'/home/rogoberto/web2py/applications/aluminum/views/cobranca/saldo_quitacao.html'"
p179
sS'db'
p180
S'<DAL uri="sqlite://storage.sqlite">'
p181
sS'auth'
p182
S'<gluon.tools.Auth object>'
p183
sS'P'
S"<class 'gluon.html.P'>"
p184
sS'TFOOT'
p185
S"<class 'gluon.html.TFOOT'>"
p186
sS'iteritems'
p187
S'<function <lambda>>'
p188
sS'XHTML'
p189
S"<class 'gluon.html.XHTML'>"
p190
sS'ON'
p191
g132
sS'OL'
p192
S"<class 'gluon.html.OL'>"
p193
sS'TEXTAREA'
p194
S"<class 'gluon.html.TEXTAREA'>"
p195
sS'MENU'
p196
S"<class 'gluon.html.MENU'>"
p197
sS'__package__'
p198
S'None'
p199
sS'IS_IMAGE'
p200
S"<class 'gluon.validators.IS_IMAGE'>"
p201
sS'comissaovt'
p202
S'34640.0'
p203
sS'EM'
p204
S"<class 'gluon.html.EM'>"
p205
sS'CODE'
p206
S"<class 'gluon.html.CODE'>"
p207
sS'HTTP'
p208
S"<class 'gluon.http.HTTP'>"
p209
sS'HR'
p210
S"<class 'gluon.html.HR'>"
p211
sS'IS_DATETIME'
p212
S"<class 'gluon.validators.IS_DATETIME'>"
p213
sS'reduce'
p214
S'<built-in function reduce>'
p215
sS'STYLE'
p216
S"<class 'gluon.html.STYLE'>"
p217
sS'LABEL'
p218
S"<class 'gluon.html.LABEL'>"
p219
sS'CLEANUP'
p220
S"<class 'gluon.validators.CLEANUP'>"
p221
sS'BUTTON'
p222
S"<class 'gluon.html.BUTTON'>"
p223
sS'SELECT'
p224
S"<class 'gluon.html.SELECT'>"
p225
sS'CENTER'
p226
S"<class 'gluon.html.CENTER'>"
p227
sS'Auth'
p228
S"<class 'gluon.tools.Auth'>"
p229
sS'__builtins__'
p230
S"{'ArithmeticError': <type 'exceptions.ArithmeticError'>, 'AssertionError': <type 'exceptions.AssertionError'>, 'AttributeError': <type 'exceptions.AttributeError'>, 'BaseException': <type 'exceptions.BaseException'>, 'BufferError': <type 'exceptions.BufferError'>, 'BytesWarning': <type 'exceptions.BytesWarning'>, 'DeprecationWarning': <type 'exceptions.DeprecationWarning'>, 'EOFError': <type 'exceptions.EOFError'>, 'Ellipsis': Ellipsis, 'EnvironmentError': <type 'exceptions.EnvironmentError'>, ...}"
p231
sS'HTML'
p232
S"<class 'gluon.html.HTML'>"
p233
sS'SQLFORM'
p234
S"<class 'gluon.sqlhtml.SQLFORM'>"
p235
sS'_item'
p236
S"(<lazyT 'Home'>, False, '/aluminum/default/index', [])"
p237
sS'LOAD'
p238
S'<function LOAD>'
p239
sS'redirect'
p240
S'<function redirect>'
p241
sS'perctotal'
p242
S'0'
sS'FIELDSET'
p243
S"<class 'gluon.html.FIELDSET'>"
p244
sS'IS_EQUAL_TO'
p245
S"<class 'gluon.validators.IS_EQUAL_TO'>"
p246
sS'embed64'
p247
S'<function embed64>'
p248
sS'IS_LIST_OF'
p249
S"<class 'gluon.validators.IS_LIST_OF'>"
p250
sS'__name__'
p251
S"'__restricted__'"
p252
sS'EMBED'
p253
S"<class 'gluon.html.EMBED'>"
p254
sS'configuration'
p255
S"{'host': {'names': 'localhost:*, 127.0.0.1:*, *:...': 'sqlite://storage.sqlite', 'pool_size': '10'}}"
p256
sS'devolvido'
p257
S'63300.0'
p258
sS'H2'
p259
S"<class 'gluon.html.H2'>"
p260
sS'H3'
p261
S"<class 'gluon.html.H3'>"
p262
sS'projeto'
p263
S"<Row {'empresa': 4L, 'total_salario_funcionario'...ado': 285000.0, 'total_pecas_mercadoria': 1550L}>"
p264
sS'H1'
p265
S"<class 'gluon.html.H1'>"
p266
sS'H6'
p267
S"<class 'gluon.html.H6'>"
p268
sS'H4'
p269
S"<class 'gluon.html.H4'>"
p270
sS'H5'
p271
S"<class 'gluon.html.H5'>"
p272
sS'UL'
p273
S"<class 'gluon.html.UL'>"
p274
sS'debitototal'
p275
S'-6494.0'
p276
sS'IS_UPPER'
p277
S"<class 'gluon.validators.IS_UPPER'>"
p278
sS'xmlescape'
p279
S'<function xmlescape>'
p280
sS'IS_TIME'
p281
S"<class 'gluon.validators.IS_TIME'>"
p282
sS'OPTION'
p283
S"<class 'gluon.html.OPTION'>"
p284
sS'TITLE'
p285
S"<class 'gluon.html.TITLE'>"
p286
sS'CRYPT'
p287
S"<class 'gluon.validators.CRYPT'>"
p288
sS'IS_EMPTY_OR'
p289
S"<class 'gluon.validators.IS_EMPTY_OR'>"
p290
sS'MARKMIN'
p291
S"<class 'gluon.html.MARKMIN'>"
p292
sS'comissaoct'
p293
S'31070.0'
p294
sS'INPUT'
p295
S"<class 'gluon.html.INPUT'>"
p296
sS'STRONG'
p297
S"<class 'gluon.html.STRONG'>"
p298
sS'COL'
p299
S"<class 'gluon.html.COL'>"
p300
sS'rows'
p301
S'<Rows (11)>'
p302
sS'SCRIPT'
p303
S"<class 'gluon.html.SCRIPT'>"
p304
sS'recebido'
p305
S'260500.0'
p306
sS'TABLE'
p307
S"<class 'gluon.html.TABLE'>"
p308
sS'IS_IPV4'
p309
S"<class 'gluon.validators.IS_IPV4'>"
p310
sS'IS_LENGTH'
p311
S"<class 'gluon.validators.IS_LENGTH'>"
p312
sS'IS_IPV6'
p313
S"<class 'gluon.validators.IS_IPV6'>"
p314
sS'XML'
p315
S"<class 'gluon.html.XML'>"
p316
sS'ANY_OF'
p317
S"<class 'gluon.validators.ANY_OF'>"
p318
sS'B'
S"<class 'gluon.html.B'>"
p319
sS'IMG'
p320
S"<class 'gluon.html.IMG'>"
p321
sS'SQLTABLE'
p322
S"<class 'gluon.sqlhtml.SQLTABLE'>"
p323
sS'IS_MATCH'
p324
S"<class 'gluon.validators.IS_MATCH'>"
p325
sS'IS_ALPHANUMERIC'
p326
S"<class 'gluon.validators.IS_ALPHANUMERIC'>"
p327
sS'prego'
p328
S'26700.0'
p329
sS'SPAN'
p330
S"<class 'gluon.html.SPAN'>"
p331
sS'IS_JSON'
p332
S"<class 'gluon.validators.IS_JSON'>"
p333
sS'IS_IPADDRESS'
p334
S"<class 'gluon.validators.IS_IPADDRESS'>"
p335
sS'IS_SLUG'
p336
S"<class 'gluon.validators.IS_SLUG'>"
p337
sS'BEAUTIFY'
p338
S"<class 'gluon.html.BEAUTIFY'>"
p339
sS'META'
p340
S"<class 'gluon.html.META'>"
p341
sS'AppConfig'
p342
S'<function AppConfig>'
p343
sS'IS_DATE'
p344
S"<class 'gluon.validators.IS_DATE'>"
p345
sS'IS_EMAIL'
p346
S"<class 'gluon.validators.IS_EMAIL'>"
p347
sS'IS_NOT_EMPTY'
p348
S"<class 'gluon.validators.IS_NOT_EMPTY'>"
p349
sS'xrange'
p350
S"<type 'xrange'>"
p351
sS'TBODY'
p352
S"<class 'gluon.html.TBODY'>"
p353
sS'CAT'
p354
S"<class 'gluon.html.CAT'>"
p355
sS'Field'
p356
S"<class 'pydal.objects.Field'>"
p357
sS'IS_LIST_OF_EMAILS'
p358
S"<class 'gluon.validators.IS_LIST_OF_EMAILS'>"
p359
sg58
S"<Storage {'function': 'saldo_quitacao', 'cookies...se, 'is_https': True, 'client': '177.25.178.64'}>"
p360
sS'DIV'
p361
S"<class 'gluon.html.DIV'>"
p362
sS'LEGEND'
p363
S"<class 'gluon.html.LEGEND'>"
p364
sS'comissaov'
p365
S'0'
sS'to_native'
p366
S'<function to_native>'
p367
sS'COLGROUP'
p368
S"<class 'gluon.html.COLGROUP'>"
p369
sS'DAL'
p370
S"<class 'pydal.base.DAL'>"
p371
sS'ASSIGNJS'
p372
S'<function ASSIGNJS>'
p373
sS'percent'
p374
S'0'
sS'LI'
p375
S"<class 'gluon.html.LI'>"
p376
sS'comissaoc'
p377
S'0'
sS'TH'
p378
S"<class 'gluon.html.TH'>"
p379
sS'TD'
p380
S"<class 'gluon.html.TD'>"
p381
sS'IS_URL'
p382
S"<class 'gluon.validators.IS_URL'>"
p383
sS'A'
S"<class 'gluon.html.A'>"
p384
sS'HEAD'
p385
S"<class 'gluon.html.HEAD'>"
p386
sS'IS_DATETIME_IN_RANGE'
p387
S"<class 'gluon.validators.IS_DATETIME_IN_RANGE'>"
p388
sS'FORM'
p389
S"<class 'gluon.html.FORM'>"
p390
sS'I'
S"<class 'gluon.html.I'>"
p391
sS'IS_NOT_IN_DB'
p392
S"<class 'gluon.validators.IS_NOT_IN_DB'>"
p393
sS'saldo'
p394
S'400.0'
p395
sg123
S"<Storage {'body': <cStringIO.StringO object at 0...f080c8>, 'view': 'cobranca/saldo_quitacao.html'}>"
p396
sS'THEAD'
p397
S"<class 'gluon.html.THEAD'>"
p398
sS'a'
S'11'
p399
sS'IS_NULL_OR'
p400
S"<class 'gluon.validators.IS_EMPTY_OR'>"
p401
sS'fichas'
p402
S'1136L'
p403
sS'IS_FLOAT_IN_RANGE'
p404
S"<class 'gluon.validators.IS_FLOAT_IN_RANGE'>"
p405
sS'IS_EXPR'
p406
S"<class 'gluon.validators.IS_EXPR'>"
p407
sS'T'
S'<gluon.languages.translator object>'
p408
sS'IS_IN_SET'
p409
S"<class 'gluon.validators.IS_IN_SET'>"
p410
sS'IS_UPLOAD_FILENAME'
p411
S"<class 'gluon.validators.IS_UPLOAD_FILENAME'>"
p412
sS'TT'
p413
S"<class 'gluon.html.TT'>"
p414
sS'IS_DECIMAL_IN_RANGE'
p415
S"<class 'gluon.validators.IS_DECIMAL_IN_RANGE'>"
p416
sssS'traceback'
p417
S'Traceback (most recent call last):\n  File "/home/rogoberto/web2py/gluon/restricted.py", line 219, in restricted\n    exec(ccode, environment)\n  File "/home/rogoberto/web2py/applications/aluminum/views/cobranca/saldo_quitacao.html", line 205, in <module>\nZeroDivisionError: float division by zero\n'
p418
s.