(dp1
S'output'
p2
S'missing "pass" in view'
p3
sS'layer'
p4
S'ParserContainer'
p5
sS'code'
p6
S'response.write(\'<!DOCTYPE html>\\n<!--[if (gt IE 9)|!(IE)]><!--> <html class="no-js" lang="\', escape=False)\nresponse.write(T.accepted_language or \'en\')\nresponse.write(\'"> <!--<![endif]-->\\n  <head>\\n    <meta charset="utf-8">\\n    <!-- www.phpied.com/conditional-comments-block-downloads/ -->\\n    <!-- Always force latest IE rendering engine\\n         (even in intranet) & Chrome Frame\\n         Remove this if you use the .htaccess -->\\n    <meta http-equiv="X-UA-Compatible" content="IE=edge\', escape=False)\nresponse.write(not request.is_local and \',chrome=1\' or \'\')\nresponse.write(\'">\\n    <!--  Mobile Viewport Fix\\n          j.mp/mobileviewport & davidbcalhoun.com/2010/viewport-metatag\\n          device-width: Occupy full width of the screen in its current orientation\\n          initial-scale = 1.0 retains dimensions instead of zooming out if page height > device height\\n          user-scalable = yes allows the user to zoom in -->\\n    <meta name="viewport" content="width=device-width, initial-scale=1.0">\\n       <title>Aluminum System</title>\\n    <!-- http://dev.w3.org/html5/markup/meta.name.html -->\\n    <meta name="application-name" content="sistema credi\\xc3\\xa1rio panela">\\n    <!-- Speaking of Google, don\\\'t forget to set your site up:\\n         http://google.com/webmasters -->\\n    <meta name="google-site-verification" content="peneleiro Juazeiro, panela credi\\xc3\\xa1rio, sistema panela">\\n    <!-- include stylesheets -->\\n    <link rel="stylesheet" href="https://cdnjs.cloudflare.com/ajax/libs/font-awesome/4.7.0/css/font-awesome.min.css"/>\\n    <link rel="stylesheet" href="\', escape=False)\nresponse.write(URL(\'static\',\'css/bootstrap.min.css\'))\nresponse.write(\'"/>\\n    <link rel="stylesheet" href="\', escape=False)\nresponse.write(URL(\'static\',\'css/web2py-bootstrap4.css\'))\nresponse.write(\'"/>\\n    <link rel="shortcut icon" href="\', escape=False)\nresponse.write(URL(\'static\',\'images/ico.ico\'))\nresponse.write(\'" type="image/x-icon">\\n    <link rel="apple-touch-icon" href="\', escape=False)\nresponse.write(URL(\'static\',\'images/ico.png\'))\nresponse.write(\'">\\n    <!-- All JavaScript at the bottom, except for Modernizr which enables\\n         HTML5 elements & feature detects -->\\n    <script src="\', escape=False)\nresponse.write(URL(\'static\',\'js/modernizr-2.8.3.min.js\'))\nresponse.write(\'"></script>\\n    <!-- Favicons -->\\n    \', escape=False)\nresponse.write(\'<script type="text/javascript"><!--\\n    // These variables are used by the web2py_ajax_init function in web2py_ajax.js (which is loaded below).\\n    \', escape=False)\nresponse.write(ASSIGNJS(\nw2p_ajax_confirm_message = T(\'Are you sure you want to delete this object?\'),\nw2p_ajax_disable_with_message = T(\'Working...\'),\nw2p_ajax_date_format = T(\'%Y-%m-%d\'),\nw2p_ajax_datetime_format = T(\'%Y-%m-%d %H:%M:%S\'),\najax_error_500 = T.M(\'An error occured, please [[reload %s]] the page\') % URL(args=request.args, vars=request.get_vars)\n))\nresponse.write(\'\\n    //--></script>\\n\', escape=False)\nresponse.files.insert(0,URL(\'static\',\'js/jquery.js\'))\nresponse.files.insert(1,URL(\'static\',\'css/calendar.css\'))\nresponse.files.insert(2,URL(\'static\',\'js/calendar.js\'))\nresponse.files.insert(3,URL(\'static\',\'js/web2py.js\'))\nresponse.include_meta()\nresponse.include_files()\nresponse.write(\'\\n\', escape=False)\nresponse.write(\' <!-- this includes jquery.js, calendar.js/.css and web2py.js -->\\n    \', escape=False)\nresponse.write(\'\\n  </head>\\n  <body>\\n      \\n        <style  type="text/css">\\n    @media print{\\n        .btn{\\n             display: none;\\n        }\\n        #noprint { display:none; } \\n      a:link{font:15px "verdana"; color:#8B4513; text-decoration:none;}\\n\\na:hover{font:20px "verdana"; color:black; text-decoration:underline;}\\n    }\\n      </style>\\n    <div class="w2p_flash alert alert-dismissable">\', escape=False)\nresponse.write(response.flash or \'\')\nresponse.write(\'</div>\\n    <!-- Navbar ======================================= -->\\n    <nav class="navbar navbar-light navbar-expand-md bg-faded justify-content-center">\\n        <a class="navbar-brand" href="https://rogoberto.pythonanywhere.com/aluminum/#acesso">Aluminum</a>\\n       <button class="navbar-toggler" type="button" data-toggle="collapse" data-target="#navbarNavDropdown" aria-controls="navbarNavDropdown" aria-expanded="false" aria-label="Toggle navigation">\\n         <span class="navbar-toggler-icon"></span>\\n       </button>\\n       <div class="navbar-collapse collapse w-100" id="navbarNavDropdown">\\n         <ul class="navbar-nav w-100 justify-content-center">\\n          \', escape=False)\nfor _item in response.menu or []:\n    response.write(\'\\n          \', escape=False)\n    if len(_item)<4 or not _item[3]:\n        response.write(\'\\n          <li class="nav-item \', escape=False)\n        if _item[1]:\n            response.write(\'active\', escape=False)\n            pass\n        response.write(\'">\\n            <a class="nav-link" href="\', escape=False)\n        response.write(_item[2])\n        response.write(\'">\', escape=False)\n        response.write(_item[0])\n        response.write(\'</a>\\n          </li>\\n          \', escape=False)\n    else:\n        response.write(\'\\n          <li class="nav-item dropdown">\\n            <a class="nav-link dropdown-toggle" href="\', escape=False)\n        response.write(_item[2])\n        response.write(\'" data-toggle="dropdown" aria-haspopup="true" aria-expanded="false">\', escape=False)\n        response.write(_item[0])\n        response.write(\'</a>\\n            <div class="dropdown-menu">\\n              \', escape=False)\n        for _subitem in _item[3]:\n            response.write(\'\\n              <a class="dropdown-item" href="\', escape=False)\n            response.write(_subitem[2])\n            response.write(\'">\', escape=False)\n            response.write(_subitem[0])\n            response.write(\'</a>\\n              \', escape=False)\n            pass\n        response.write(\'\\n            </div>\\n          </li>\\n          \', escape=False)\n        pass\n    response.write(\'\\n          \', escape=False)\n    pass\nresponse.write(\'\\n        </ul>\\n\\n        \', escape=False)\nif \'auth\' in globals():\n    response.write(\'\\n        <ul class="nav navbar-nav ml-auto w-100 justify-content-end">\\n          <li class="nav-item dropdown">\\n            <a class="nav-link dropdown-toggle" href="#" data-toggle="dropdown" aria-haspopup="true" aria-expanded="false">\\n              \', escape=False)\n    if auth.user:\n        response.write(auth.user.first_name)\n    else:\n        response.write(\'LOGIN\', escape=False)\n        pass\n    response.write(\'\\n            </a>\\n            <div class="dropdown-menu dropdown-menu-right">\\n              \', escape=False)\n    if auth.user:\n        response.write(\'\\n              <a class="dropdown-item" href="\', escape=False)\n        response.write(URL(\'default\',\'user/profile\'))\n        response.write(\'">\', escape=False)\n        response.write(T(\'Profile\'))\n        response.write(\'</a>\\n              \', escape=False)\n        if \'change_password\' not in auth.settings.actions_disabled:\n            response.write(\'\\n              <a class="dropdown-item" href="\', escape=False)\n            response.write(URL(\'default\',\'user/change_password\'))\n            response.write(\'">\', escape=False)\n            response.write(T(\'Change Password\'))\n            response.write(\'</a>\\n              \', escape=False)\n            pass\n        response.write(\'\\n              <a class="dropdown-item" href="\', escape=False)\n        response.write(URL(\'default\',\'user/logout\'))\n        response.write(\'">\', escape=False)\n        response.write(T(\'Logout\'))\n        response.write(\'</a>\\n              \', escape=False)\n    else:\n        response.write(\'\\n              <a class="dropdown-item" href="\', escape=False)\n        response.write(URL(\'default\',\'user/login\'))\n        response.write(\'">\', escape=False)\n        response.write(T(\'Login\'))\n        response.write(\'</a>\\n              \', escape=False)\n        if \'register\' not in auth.settings.actions_disabled:\n            response.write(\'\\n              <a class="dropdown-item" href="\', escape=False)\n            response.write(URL(\'default\',\'user/register\'))\n            response.write(\'">\', escape=False)\n            response.write(T(\'Sign up\'))\n            response.write(\'</a>\\n              \', escape=False)\n            pass\n        response.write(\'\\n              \', escape=False)\n        if \'retrieve_password\' not in auth.settings.actions_disabled:\n            response.write(\'\\n              <a class="dropdown-item" href="\', escape=False)\n            response.write(URL(\'default\',\'user/retrieve_password\'))\n            response.write(\'">\', escape=False)\n            response.write(T(\'Lost Password\'))\n            response.write(\'</a>\\n              \', escape=False)\n            pass\n        response.write(\'\\n              \', escape=False)\n        pass\n    response.write(\'\\n            </div>\\n          </li>\\n        </ul>\\n        \', escape=False)\n    pass\nresponse.write(\'\\n      </div>\\n    </nav>\\n\\n    <!-- Masthead ===================================== -->\\n    \', escape=False)\nresponse.write(\'\\n<header class="header container-fluid d-none d-print-block">\\n     <div class="row">\\n        <div class="col-md-12">\\n          <div class="copyright pull-left">Aluminum System</div>\\n          <div id="poweredBy" class="pull-right">\\n            Gest\\xc3\\xa3o de vendas e cobran\\xc3\\xa7as artefatos de aluminio\\n            \\n          </div>\\n        </div>\\n      </div>\\n</header>\\n    \', escape=False)\nresponse.write(\'\\n    <!-- Main ========================================= -->\\n    <!-- Begin page content -->\\n    <div class="container-fluid main-container">\\n      \', escape=False)\nresponse.write(\'\\n\\n\', escape=False)\ndias=0\nresponse.write(\'\\n\', escape=False)\nwhile date.today()>data:\n    response.write(\'\\n\', escape=False)\n    data = data + timedelta(days=1)\n    response.write(\'\\n\', escape=False)\n    dias+=1\n    response.write(\'\\n\', escape=False)\n    pass\nresponse.write(\'\\n\\n<div class="section">\\n    <div class="container">\\n        <div class="row">\\n            <div class="col-md-12">\\n                <center style="background-color:white; color:black; padding:3px">\\n                    <h3>Flavio Alum\\xc3\\xadnio</h3>\\n                </center>\\n            </div>\\n            <div class="col-md-6">\\n                <div class="blockquote">\\n                    <p class="mb-0">\', escape=False)\nresponse.write(projeto.descricao)\nresponse.write(\'</p>\\n                    <div class="blockquote-footer">Flavio Alum\\xc3\\xadnio</div>\\n                </div>\\n                <ol>\\n                    <li>\\n                        <i class="fa fa-bar-chart text-success mr-2"></i>\\n                        <a class="text-info" href="\', escape=False)\nresponse.write(URL(\'projeto\',\'investimento\', args=[projeto.id]))\nresponse.write(\'">&nbsp;INVESTIMENTOS</a>\\n                    </li>\\n                    <hr>\\n                    <li>\\n                        <i class="fa fa-bar-chart text-primary mr-2"></i>\\n                        <a href="\', escape=False)\nresponse.write(URL(\'registro\',\'acesso_registro_venda\', args=[projeto.id,\'venda_vista\']))\nresponse.write(\'">&nbsp;VENDA \\xc3\\x80 VISTA</a>\\n                    </li>\\n                    <hr>\\n                    <li>\\n                        <i class="fa fa-bars text-primary mr-2"></i>\\n                        <a href="\', escape=False)\nresponse.write(URL(\'mercadoria\',\'acesso_carradas\', args=projeto.id))\nresponse.write(\'">MERCADORIA</a>\\n                    </li>\\n                    <hr>\\n                    <li>\\n                        <i class="fa fa-users  text-primary mr-2"></i>\\n                        <a href="\', escape=False)\nresponse.write(URL(\'equipe_venda\',\'acesso_equipe\', args=projeto.id))\nresponse.write(\'">&nbsp;EQUIPE DE VENDAS</a>\\n                    </li>\\n                    <hr>\\n                    <li>\\n                        <i class="fa fa-user-circle-o text-primary mr-2"></i>\\n                        <a href="\', escape=False)\nresponse.write(URL(\'funcionario\',\'acesso_funcionario\', args=projeto.id))\nresponse.write(\'">&nbsp;FUNCIONARIOS</a>\\n                    </li>\\n                    <hr>\\n                    <li>\\n                        <i class="fa fa-sticky-note-o text-primary mr-2"></i>\\n                        <a href="\', escape=False)\nresponse.write(URL(\'despesa\',\'acessar_despesa\', args=[projeto.id,\'Despesa_Venda\']))\nresponse.write(\'">&nbsp;DESPESAS (VENDA)</a>\\n                    </li>\\n                   \\n                   \\n                     <hr>\\n                    <li>\\n                        <i class="fa fa-list-ol  text-primary mr-2"></i>\\n                        <a href="\', escape=False)\nresponse.write(URL(\'chefe\',\'relatorio\', args=projeto.id))\nresponse.write(\'">&nbsp;RELATORIO</a>\\n                    </li>\\n                </ol>\\n                    <hr>\\n                    <br>\\n               </div>\\n     <div class="col-md-6">\\n\\n            </div>\\n        </div>\\n    </div>\\n</div>\\n\', escape=False)\nelse:\n    response.write(\'\\n<nav class="navbar navbar-expand-md navbar-dark bg-dark" >\\n    <div class="container">\\n        <a class="navbar-brand" href="\', escape=False)\n    response.write(URL(\'default\',\'alterar_projeto\', args=projeto.id))\n    response.write(\'">\\n            <i class="fa d-inline fa-lg fa-hashtag"></i>\\n            <h6> \', escape=False)\n    response.write(projeto.descricao)\n    response.write(\'</h6>\\n        </a>\\n        <button class="navbar-toggler navbar-toggler-right border-0" type="button" data-toggle="collapse" data-target="#navbar10">\\n            <span class="navbar-toggler-icon"></span>\\n        </button>\\n        <div class="collapse navbar-collapse" id="navbar10">\\n            <ul class="navbar-nav ml-auto">\\n                <li class="nav-item">\\n                    <a class="nav-link" href="\', escape=False)\n    response.write(URL(\'default\',\'acesso_inicial\'))\n    response.write(\'">Projetos</a>\\n                </li>\\n                <li class="nav-item">\\n                    <a class="nav-link" href="\', escape=False)\n    response.write(URL(\'projeto\',\'prestacao_venda\', args=projeto.id))\n    response.write(\'">Presta\\xc3\\xa7\\xc3\\xa3o Venda</a>\\n                </li>\\n            </ul>\\n        </div>\\n    </div>\\n</nav>\\n<div class="py-3" >\\n    <div class="container">\\n        <div class="row">\\n        <div class="col-md-3">\\n            <div class="card">\\n                <div class="card-header"> Mercadoria</div>\\n                    <div class="card-body">\\n                        <ul class="list-group list-group-flush">\\n                            <li class="list-group-item"><i class="fa fa-cogs  text-primary mr-2"></i>\\n                                <a href="\', escape=False)\n    response.write(URL(\'default\',\'alterar_projeto\', args=projeto.id))\n    response.write(\'">Alterar Dados</a>\\n                            </li>\\n                            <li class="list-group-item"><i class="fa fa-truck  text-primary mr-2"></i>\\n                                <a href="\', escape=False)\n    response.write(URL(\'mercadoria\',\'acesso_carradas\', args=projeto.id))\n    response.write(\'">Carradas</a>\\n                            </li>\\n                            <li class="list-group-item"><i class="fa fa-sort-amount-desc text-primary mr-2"></i>\\n                                <a href="\', escape=False)\n    response.write(URL(\'mercadoria\',\'acesso_item\', args=projeto.id))\n    response.write(\'">Retorno</a>\\n                            </li>\\n                            <li class="list-group-item"><i class="fa fa-id-card-o  text-primary mr-2"></i>\\n                                <a href="\', escape=False)\n    response.write(URL(\'chefe\',\'acesso_chefe\', args=projeto.id))\n    response.write(\'">&nbsp;Chefe Equipe</a>\\n                            </li>\\n                            <li class="list-group-item"><i class="fa fa-file-text-o text-primary mr-2"></i>\\n                                <a href="\', escape=False)\n    response.write(URL(\'mercadoria\',\'relatorio_item_carrada\', args=projeto.id))\n    response.write(\'">&nbsp;Relat\\xc3\\xb3rio(Merc)</a>\\n                            </li>\\n                        </ul>\\n                    </div>\\n                </div>\\n                <br>\\n            </div>\\n        <div class="col-md-3">\\n            <div class="card">\\n                <div class="card-header" style="">Equipe</div>\\n                    <div class="card-body">\\n                        <ul class="list-group list-group-flush">\\n                            <li class="list-group-item"><i class="fa fa-bars text-primary mr-2"></i>\\n                                <a href="\', escape=False)\n    response.write(URL(\'registro\',\'acesso_registro_venda\', args=[projeto.id,\'venda_vista\']))\n    response.write(\'">&nbsp;Venda \\xc3\\xa0 Vista</a>\\n                            </li>\\n                            <li class="list-group-item"><i class="fa fa-window-restore text-primary mr-2"></i>\\n                                <a href="\', escape=False)\n    response.write(URL(\'venda\',\'acesso_particao\', args=projeto.id))\n    response.write(\'">&nbsp;Parti\\xc3\\xa7\\xc3\\xb5es</a>\\n                            </li>\\n                            <li class="list-group-item"><i class="fa fa-users text-primary mr-2"></i>\\n                                <a href="\', escape=False)\n    response.write(URL(\'funcionario\',\'acesso_funcionario\', args=projeto.id))\n    response.write(\'">&nbsp;Funcionario</a>\\n                            </li>\\n                            <li class="list-group-item"><i class="fa fa-sitemap text-primary mr-2"></i>\\n                                <a href="\', escape=False)\n    response.write(URL(\'equipe_venda\',\'acesso_equipe\', args=projeto.id))\n    response.write(\'">&nbsp;Equipe Vendas</a>\\n                            </li>\\n                            <li class="list-group-item"><i class="fa fa-file-text text-primary mr-2"></i>\\n                                <a href="\', escape=False)\n    response.write(URL(\'chefe\',\'relatorio\', args=projeto.id))\n    response.write(\'">&nbsp;Relat\\xc3\\xb3rio Chefe</a>\\n                            </li>\\n                        </ul>\\n                    </div>\\n                </div>\\n                <br>\\n            </div>\\n        <div class="col-md-3">\\n            <div class="card">\\n                <div class="card-header"> Despesa</div>\\n                    <div class="card-body">\\n                        <ul class="list-group list-group-flush">\\n                            <li class="list-group-item">\\n                                <i class="fa fa-book text-primary mr-2" ></i>\\n                                <a href="\', escape=False)\n    response.write(URL(\'despesa\',\'acessar_despesa\', args=[projeto.id,\'Despesa_Local\']))\n    response.write(\'">&nbsp;Despesa Local</a>\\n                            </li>\\n                            <li class="list-group-item">\\n                                <i class="fa fa-book text-primary mr-2"></i>\\n                                <a href="\', escape=False)\n    response.write(URL(\'despesa\',\'acessar_despesa\', args=[projeto.id,\'Despesa_Venda\']))\n    response.write(\'">&nbsp;Despesa na Venda</a>\\n                            </li>\\n                            <li class="list-group-item"><i class="fa fa-bars text-primary mr-2"></i>\\n                                <a href="\', escape=False)\n    response.write(URL(\'registro\',\'acesso_registro_venda\', args=[projeto.id,\'caderno_chefe\']))\n    response.write(\'">&nbsp;Caderno Chefe</a>\\n                            </li>\\n                            <li class="list-group-item"><i class="fa fa-book text-primary mr-2"></i>\\n                                <a href="\', escape=False)\n    response.write(URL(\'registro\',\'acesso_registro_venda\', args=[projeto.id,\'Gratificacao\']))\n    response.write(\'">&nbsp;Gratifica\\xc3\\xa7\\xc3\\xa3o</a>\\n                            </li>\\n                            <li class="list-group-item"><i class="fa fa-book text-primary mr-2"></i>\\n                                <a href="\', escape=False)\n    response.write(URL(\'despesa\',\'relatorio_despesa\', args=projeto.id))\n    response.write(\'">&nbsp;Relat\\xc3\\xb3rio(Despesa)</a>\\n                            </li>\\n                        </ul>\\n                    </div>\\n                </div>\\n                <br>\\n            </div>\\n        <div class="col-md-3">\\n            <div class="card">\\n                <div class="card-header"> Cobran\\xc3\\xa7a</div>\\n                    <div class="card-body">\\n                        <ul class="list-group list-group-flush">\\n                            \', escape=False)\n    if projeto.total_venda_prazo>0:\n        response.write(\'\\n                            <li class="list-group-item">\\n                                <i class="fa fa-life-ring text-primary mr-2"></i><a href="\', escape=False)\n        response.write(URL(\'cobranca\',\'acessar_cobrancas\', args=projeto.id))\n        response.write(\'">&nbsp;Cobran\\xc3\\xa7a</a></li>\\n                            \', escape=False)\n    else:\n        response.write(\'\\n                            <li class="list-group-item">\\n                                <i class="fa fa-life-ring text-primary mr-2"></i>&nbsp;Cobran\\xc3\\xa7a</li>\\n                            \', escape=False)\n        pass\n    response.write(\'\\n                            \', escape=False)\n    if projeto.venda_finalizada:\n        response.write(\'\\n                            <li class="list-group-item">\\n                                <i class="fa fa-life-ring text-primary mr-2"></i><a href="\', escape=False)\n        response.write(URL(\'cobranca\',\'saldo_quitacao\', args=projeto.id))\n        response.write(\'">&nbsp;Saldo Quita\\xc3\\xa7\\xc3\\xa3o</a></li>\\n                            \', escape=False)\n    else:\n        response.write(\'\\n                            <li class="list-group-item">\\n                                <i class="fa fa-life-ring text-primary mr-2"></i>&nbsp;Saldo Quita\\xc3\\xa7\\xc3\\xa3o</li>\\n                            \', escape=False)\n        pass\n    response.write(\'\\n                            <li class="list-group-item">\\n                                <i class="fa fa-life-ring text-primary mr-2"></i><a href="\', escape=False)\n    response.write(URL(\'projeto\',\'prestacao_individual\', args=projeto.id))\n    response.write(\'">&nbsp;Presta\\xc3\\xa7\\xc3\\xa3o Vendedor</a></li>\\n                            <li class="list-group-item">\\n                                <i class="fa fa-bell text-primary mr-2"></i>&nbsp;Relatorio Retorno</li>\\n                            <li class="list-group-item">\\n                                <i class="fa fa-paper-plane text-primary mr-2"></i>&nbsp;Proje\\xc3\\xa7\\xc3\\xa3o Ideal</li>\\n                        </ul>\\n                    </div>\\n                </div>\\n            </div>\\n        </div>\\n        <br>\\n    </div>\\n</div>\\n\', escape=False)\n    response.write(\'\\n      \', escape=False)\n    response.write(response.toolbar() if response.show_toolbar else \'\')\n    response.write(\'\\n    </div>\\n    \', escape=False)\n    response.write(\' <!-- this is default footer -->\\n    <footer id="noprint" class="footer container-fluid ">\\n      <div class="row">\\n        <div class="col-md-12">\\n          <div class="copyright pull-left">\', escape=False)\n    response.write(T(\'Copyright\'))\n    response.write(\' &#169; \', escape=False)\n    response.write(request.now.year)\n    response.write(\'</div>\\n          <div id="poweredBy" class="pull-right">\\n              Suporte <a href="https://api.whatsapp.com/send?phone=5588981126816">(88)98112-6816</a>\\n            </div>\\n        </div>\\n      </div>\\n    </footer>\\n <footer class="footer container-fluid d-none d-print-block">\\n      <div class="row">\\n        <div class="col-md-12">\\n          <div class="copyright pull-left">Suporte - (88)98112-6816</div>\\n          <div id="poweredBy" class="pull-right">\\n             \', escape=False)\n    if auth.user:\n        response.write(auth.user.first_name)\n        response.write(\' \', escape=False)\n        response.write(auth.user.last_name)\n    else:\n        response.write(\'Aluminum System\', escape=False)\n        pass\n    response.write(\'\\n          </div>\\n        </div>\\n      </div>\\n    </footer>\\n    \', escape=False)\n    response.write(\'\\n    <!-- The javascript =============================== -->\\n    <script src="\', escape=False)\n    response.write(URL(\'static\',\'js/bootstrap.bundle.min.js\'))\n    response.write(\'"></script>\\n    <script src="\', escape=False)\n    response.write(URL(\'static\',\'js/web2py-bootstrap4.js\'))\n    response.write(\'"></script>\\n    \', escape=False)\n    response.write(\'\\n    \', escape=False)\n    if response.google_analytics_id:\n        response.write(\'\\n    <!-- Analytics ==================================== -->\\n    <script src="\', escape=False)\n        response.write(URL(\'static\',\'js/analytics.min.js\'))\n        response.write(\'"></script>\\n    <script type="text/javascript">\\n      analytics.initialize({\\n      \\\'Google Analytics\\\':{trackingId:\\\'\', escape=False)\n        response.write(response.google_analytics_id)\n        response.write("\'}\\n      });\\n    </script>\\n    ", escape=False)\n        pass\n    response.write(\'\\n  </body>\\n</html>\\n\', escape=False)'
p7
sS'snapshot'
p8
(dp9
sS'traceback'
p10
S'None\n'
p11
s.