(dp1
S'output'
p2
S"<type 'exceptions.NameError'> name 'auth_user' is not defined"
p3
sS'layer'
p4
S'/home/rogoberto/web2py/applications/aluminum/models/menu.py'
p5
sS'code'
p6
S'<code object <module> at 0x7fd14cb795b0, file "/home/rogoberto/web2py/applications/aluminum/models/menu.py", line 9>'
p7
sS'snapshot'
p8
(dp9
S'exception'
p10
(dp11
S'__getslice__'
p12
S"<method-wrapper '__getslice__' of exceptions.NameError object>"
p13
sS'__str__'
p14
S"<method-wrapper '__str__' of exceptions.NameError object>"
p15
sS'__reduce__'
p16
S'<built-in method __reduce__ of exceptions.NameError object>'
p17
sS'__dict__'
p18
S'{}'
p19
sS'message'
p20
S'"name \'auth_user\' is not defined"'
p21
sS'__sizeof__'
p22
S'<built-in method __sizeof__ of exceptions.NameError object>'
p23
sS'__init__'
p24
S"<method-wrapper '__init__' of exceptions.NameError object>"
p25
sS'__setattr__'
p26
S"<method-wrapper '__setattr__' of exceptions.NameError object>"
p27
sS'__reduce_ex__'
p28
S'<built-in method __reduce_ex__ of exceptions.NameError object>'
p29
sS'__new__'
p30
S'<built-in method __new__ of type object>'
p31
sS'__format__'
p32
S'<built-in method __format__ of exceptions.NameError object>'
p33
sS'__class__'
p34
S"<type 'exceptions.NameError'>"
p35
sS'__doc__'
p36
S"'Name not found globally.'"
p37
sS'__getitem__'
p38
S"<method-wrapper '__getitem__' of exceptions.NameError object>"
p39
sS'__setstate__'
p40
S'<built-in method __setstate__ of exceptions.NameError object>'
p41
sS'__getattribute__'
p42
S"<method-wrapper '__getattribute__' of exceptions.NameError object>"
p43
sS'args'
p44
S'("name \'auth_user\' is not defined",)'
p45
sS'__subclasshook__'
p46
S'<built-in method __subclasshook__ of type object>'
p47
sS'__unicode__'
p48
S'<built-in method __unicode__ of exceptions.NameError object>'
p49
sS'__delattr__'
p50
S"<method-wrapper '__delattr__' of exceptions.NameError object>"
p51
sS'__repr__'
p52
S"<method-wrapper '__repr__' of exceptions.NameError object>"
p53
sS'__hash__'
p54
S"<method-wrapper '__hash__' of exceptions.NameError object>"
p55
ssS'evalue'
p56
S"name 'auth_user' is not defined"
p57
sS'request'
p58
cgluon.html
XML_unpickle
p59
(S's}\x99\x00\x00<div><table><tr><td style="font-weight:bold;vertical-align:top;">ajax</td><td style="vertical-align:top;">:</td><td><div>False</div></td></tr><tr><td style="font-weight:bold;vertical-align:top;">application</td><td style="vertical-align:top;">:</td><td><div>aluminum</div></td></tr><tr><td style="font-weight:bold;vertical-align:top;">args</td><td style="vertical-align:top;">:</td><td><div><table></table></div></td></tr><tr><td style="font-weight:bold;vertical-align:top;">cid</td><td style="vertical-align:top;">:</td><td><div>None</div></td></tr><tr><td style="font-weight:bold;vertical-align:top;">client</td><td style="vertical-align:top;">:</td><td><div>177.37.193.173</div></td></tr><tr><td style="font-weight:bold;vertical-align:top;">controller</td><td style="vertical-align:top;">:</td><td><div>default</div></td></tr><tr><td style="font-weight:bold;vertical-align:top;">cookies</td><td style="vertical-align:top;">:</td><td><div><table><tr><td style="font-weight:bold;vertical-align:top;">session_id_abencoado</td><td style="vertical-align:top;">:</td><td><div>177.37.193.173-5c33fbd4-2ff7-4b72-a367-8f79c85757da<table><tr><td style="font-weight:bold;vertical-align:top;">comment</td><td style="vertical-align:top;">:</td><td><div></div></td></tr><tr><td style="font-weight:bold;vertical-align:top;">domain</td><td style="vertical-align:top;">:</td><td><div></div></td></tr><tr><td style="font-weight:bold;vertical-align:top;">expires</td><td style="vertical-align:top;">:</td><td><div></div></td></tr><tr><td style="font-weight:bold;vertical-align:top;">httponly</td><td style="vertical-align:top;">:</td><td><div></div></td></tr><tr><td style="font-weight:bold;vertical-align:top;">max-age</td><td style="vertical-align:top;">:</td><td><div></div></td></tr><tr><td style="font-weight:bold;vertical-align:top;">path</td><td style="vertical-align:top;">:</td><td><div></div></td></tr><tr><td style="font-weight:bold;vertical-align:top;">secure</td><td style="vertical-align:top;">:</td><td><div></div></td></tr><tr><td style="font-weight:bold;vertical-align:top;">version</td><td style="vertical-align:top;">:</td><td><div></div></td></tr></table></div></td></tr><tr><td style="font-weight:bold;vertical-align:top;">session_id_admin</td><td style="vertical-align:top;">:</td><td><div>177.37.193.173-688b205c-47f2-4876-95b4-900c6df72e1f<table><tr><td style="font-weight:bold;vertical-align:top;">comment</td><td style="vertical-align:top;">:</td><td><div></div></td></tr><tr><td style="font-weight:bold;vertical-align:top;">domain</td><td style="vertical-align:top;">:</td><td><div></div></td></tr><tr><td style="font-weight:bold;vertical-align:top;">expires</td><td style="vertical-align:top;">:</td><td><div></div></td></tr><tr><td style="font-weight:bold;vertical-align:top;">httponly</td><td style="vertical-align:top;">:</td><td><div></div></td></tr><tr><td style="font-weight:bold;vertical-align:top;">max-age</td><td style="vertical-align:top;">:</td><td><div></div></td></tr><tr><td style="font-weight:bold;vertical-align:top;">path</td><td style="vertical-align:top;">:</td><td><div></div></td></tr><tr><td style="font-weight:bold;vertical-align:top;">secure</td><td style="vertical-align:top;">:</td><td><div></div></td></tr><tr><td style="font-weight:bold;vertical-align:top;">version</td><td style="vertical-align:top;">:</td><td><div></div></td></tr></table></div></td></tr><tr><td style="font-weight:bold;vertical-align:top;">session_id_aluminum</td><td style="vertical-align:top;">:</td><td><div>177.37.193.173-7726ae46-73d7-4730-99b7-af5ccf50d67e<table><tr><td style="font-weight:bold;vertical-align:top;">comment</td><td style="vertical-align:top;">:</td><td><div></div></td></tr><tr><td style="font-weight:bold;vertical-align:top;">domain</td><td style="vertical-align:top;">:</td><td><div></div></td></tr><tr><td style="font-weight:bold;vertical-align:top;">expires</td><td style="vertical-align:top;">:</td><td><div></div></td></tr><tr><td style="font-weight:bold;vertical-align:top;">httponly</td><td style="vertical-align:top;">:</td><td><div></div></td></tr><tr><td style="font-weight:bold;vertical-align:top;">max-age</td><td style="vertical-align:top;">:</td><td><div></div></td></tr><tr><td style="font-weight:bold;vertical-align:top;">path</td><td style="vertical-align:top;">:</td><td><div></div></td></tr><tr><td style="font-weight:bold;vertical-align:top;">secure</td><td style="vertical-align:top;">:</td><td><div></div></td></tr><tr><td style="font-weight:bold;vertical-align:top;">version</td><td style="vertical-align:top;">:</td><td><div></div></td></tr></table></div></td></tr><tr><td style="font-weight:bold;vertical-align:top;">session_id_chefe_equipe</td><td style="vertical-align:top;">:</td><td><div>177.37.193.5-32d1d927-6731-4aa5-adc3-5b459f950879<table><tr><td style="font-weight:bold;vertical-align:top;">comment</td><td style="vertical-align:top;">:</td><td><div></div></td></tr><tr><td style="font-weight:bold;vertical-align:top;">domain</td><td style="vertical-align:top;">:</td><td><div></div></td></tr><tr><td style="font-weight:bold;vertical-align:top;">expires</td><td style="vertical-align:top;">:</td><td><div></div></td></tr><tr><td style="font-weight:bold;vertical-align:top;">httponly</td><td style="vertical-align:top;">:</td><td><div></div></td></tr><tr><td style="font-weight:bold;vertical-align:top;">max-age</td><td style="vertical-align:top;">:</td><td><div></div></td></tr><tr><td style="font-weight:bold;vertical-align:top;">path</td><td style="vertical-align:top;">:</td><td><div></div></td></tr><tr><td style="font-weight:bold;vertical-align:top;">secure</td><td style="vertical-align:top;">:</td><td><div></div></td></tr><tr><td style="font-weight:bold;vertical-align:top;">version</td><td style="vertical-align:top;">:</td><td><div></div></td></tr></table></div></td></tr><tr><td style="font-weight:bold;vertical-align:top;">session_id_customer_list</td><td style="vertical-align:top;">:</td><td><div>177.37.193.173-1f26d170-925b-476c-90c8-d4dfae10d649<table><tr><td style="font-weight:bold;vertical-align:top;">comment</td><td style="vertical-align:top;">:</td><td><div></div></td></tr><tr><td style="font-weight:bold;vertical-align:top;">domain</td><td style="vertical-align:top;">:</td><td><div></div></td></tr><tr><td style="font-weight:bold;vertical-align:top;">expires</td><td style="vertical-align:top;">:</td><td><div></div></td></tr><tr><td style="font-weight:bold;vertical-align:top;">httponly</td><td style="vertical-align:top;">:</td><td><div></div></td></tr><tr><td style="font-weight:bold;vertical-align:top;">max-age</td><td style="vertical-align:top;">:</td><td><div></div></td></tr><tr><td style="font-weight:bold;vertical-align:top;">path</td><td style="vertical-align:top;">:</td><td><div></div></td></tr><tr><td style="font-weight:bold;vertical-align:top;">secure</td><td style="vertical-align:top;">:</td><td><div></div></td></tr><tr><td style="font-weight:bold;vertical-align:top;">version</td><td style="vertical-align:top;">:</td><td><div></div></td></tr></table></div></td></tr><tr><td style="font-weight:bold;vertical-align:top;">session_id_sales_credit</td><td style="vertical-align:top;">:</td><td><div>177.37.193.173-4510e294-3b1d-4c1a-8d0c-af797e7c8355<table><tr><td style="font-weight:bold;vertical-align:top;">comment</td><td style="vertical-align:top;">:</td><td><div></div></td></tr><tr><td style="font-weight:bold;vertical-align:top;">domain</td><td style="vertical-align:top;">:</td><td><div></div></td></tr><tr><td style="font-weight:bold;vertical-align:top;">expires</td><td style="vertical-align:top;">:</td><td><div></div></td></tr><tr><td style="font-weight:bold;vertical-align:top;">httponly</td><td style="vertical-align:top;">:</td><td><div></div></td></tr><tr><td style="font-weight:bold;vertical-align:top;">max-age</td><td style="vertical-align:top;">:</td><td><div></div></td></tr><tr><td style="font-weight:bold;vertical-align:top;">path</td><td style="vertical-align:top;">:</td><td><div></div></td></tr><tr><td style="font-weight:bold;vertical-align:top;">secure</td><td style="vertical-align:top;">:</td><td><div></div></td></tr><tr><td style="font-weight:bold;vertical-align:top;">version</td><td style="vertical-align:top;">:</td><td><div></div></td></tr></table></div></td></tr><tr><td style="font-weight:bold;vertical-align:top;">session_id_sales_leader</td><td style="vertical-align:top;">:</td><td><div>177.37.193.173-d37735f5-7127-4dc0-a238-a888f0b81608<table><tr><td style="font-weight:bold;vertical-align:top;">comment</td><td style="vertical-align:top;">:</td><td><div></div></td></tr><tr><td style="font-weight:bold;vertical-align:top;">domain</td><td style="vertical-align:top;">:</td><td><div></div></td></tr><tr><td style="font-weight:bold;vertical-align:top;">expires</td><td style="vertical-align:top;">:</td><td><div></div></td></tr><tr><td style="font-weight:bold;vertical-align:top;">httponly</td><td style="vertical-align:top;">:</td><td><div></div></td></tr><tr><td style="font-weight:bold;vertical-align:top;">max-age</td><td style="vertical-align:top;">:</td><td><div></div></td></tr><tr><td style="font-weight:bold;vertical-align:top;">path</td><td style="vertical-align:top;">:</td><td><div></div></td></tr><tr><td style="font-weight:bold;vertical-align:top;">secure</td><td style="vertical-align:top;">:</td><td><div></div></td></tr><tr><td style="font-weight:bold;vertical-align:top;">version</td><td style="vertical-align:top;">:</td><td><div></div></td></tr></table></div></td></tr><tr><td style="font-weight:bold;vertical-align:top;">session_id_sales_tracking</td><td style="vertical-align:top;">:</td><td><div>177.37.193.173-152c7ead-9cb7-4f28-8f8e-8920f5fdeab0<table><tr><td style="font-weight:bold;vertical-align:top;">comment</td><td style="vertical-align:top;">:</td><td><div></div></td></tr><tr><td style="font-weight:bold;vertical-align:top;">domain</td><td style="vertical-align:top;">:</td><td><div></div></td></tr><tr><td style="font-weight:bold;vertical-align:top;">expires</td><td style="vertical-align:top;">:</td><td><div></div></td></tr><tr><td style="font-weight:bold;vertical-align:top;">httponly</td><td style="vertical-align:top;">:</td><td><div></div></td></tr><tr><td style="font-weight:bold;vertical-align:top;">max-age</td><td style="vertical-align:top;">:</td><td><div></div></td></tr><tr><td style="font-weight:bold;vertical-align:top;">path</td><td style="vertical-align:top;">:</td><td><div></div></td></tr><tr><td style="font-weight:bold;vertical-align:top;">secure</td><td style="vertical-align:top;">:</td><td><div></div></td></tr><tr><td style="font-weight:bold;vertical-align:top;">version</td><td style="vertical-align:top;">:</td><td><div></div></td></tr></table></div></td></tr><tr><td style="font-weight:bold;vertical-align:top;">session_id_sistem</td><td style="vertical-align:top;">:</td><td><div>177.37.193.173-a7d396fb-e105-4229-bb9a-1ab8bc99fcb1<table><tr><td style="font-weight:bold;vertical-align:top;">comment</td><td style="vertical-align:top;">:</td><td><div></div></td></tr><tr><td style="font-weight:bold;vertical-align:top;">domain</td><td style="vertical-align:top;">:</td><td><div></div></td></tr><tr><td style="font-weight:bold;vertical-align:top;">expires</td><td style="vertical-align:top;">:</td><td><div></div></td></tr><tr><td style="font-weight:bold;vertical-align:top;">httponly</td><td style="vertical-align:top;">:</td><td><div></div></td></tr><tr><td style="font-weight:bold;vertical-align:top;">max-age</td><td style="vertical-align:top;">:</td><td><div></div></td></tr><tr><td style="font-weight:bold;vertical-align:top;">path</td><td style="vertical-align:top;">:</td><td><div></div></td></tr><tr><td style="font-weight:bold;vertical-align:top;">secure</td><td style="vertical-align:top;">:</td><td><div></div></td></tr><tr><td style="font-weight:bold;vertical-align:top;">version</td><td style="vertical-align:top;">:</td><td><div></div></td></tr></table></div></td></tr><tr><td style="font-weight:bold;vertical-align:top;">session_id_uzl</td><td style="vertical-align:top;">:</td><td><div>177.37.193.173-4bb86edc-4856-436d-ab21-794f0ea3f5d2<table><tr><td style="font-weight:bold;vertical-align:top;">comment</td><td style="vertical-align:top;">:</td><td><div></div></td></tr><tr><td style="font-weight:bold;vertical-align:top;">domain</td><td style="vertical-align:top;">:</td><td><div></div></td></tr><tr><td style="font-weight:bold;vertical-align:top;">expires</td><td style="vertical-align:top;">:</td><td><div></div></td></tr><tr><td style="font-weight:bold;vertical-align:top;">httponly</td><td style="vertical-align:top;">:</td><td><div></div></td></tr><tr><td style="font-weight:bold;vertical-align:top;">max-age</td><td style="vertical-align:top;">:</td><td><div></div></td></tr><tr><td style="font-weight:bold;vertical-align:top;">path</td><td style="vertical-align:top;">:</td><td><div></div></td></tr><tr><td style="font-weight:bold;vertical-align:top;">secure</td><td style="vertical-align:top;">:</td><td><div></div></td></tr><tr><td style="font-weight:bold;vertical-align:top;">version</td><td style="vertical-align:top;">:</td><td><div></div></td></tr></table></div></td></tr><tr><td style="font-weight:bold;vertical-align:top;">session_id_welcome</td><td style="vertical-align:top;">:</td><td><div>177.37.193.173-17262ad5-bc7e-440e-bb6d-e2171ba7b51e<table><tr><td style="font-weight:bold;vertical-align:top;">comment</td><td style="vertical-align:top;">:</td><td><div></div></td></tr><tr><td style="font-weight:bold;vertical-align:top;">domain</td><td style="vertical-align:top;">:</td><td><div></div></td></tr><tr><td style="font-weight:bold;vertical-align:top;">expires</td><td style="vertical-align:top;">:</td><td><div></div></td></tr><tr><td style="font-weight:bold;vertical-align:top;">httponly</td><td style="vertical-align:top;">:</td><td><div></div></td></tr><tr><td style="font-weight:bold;vertical-align:top;">max-age</td><td style="vertical-align:top;">:</td><td><div></div></td></tr><tr><td style="font-weight:bold;vertical-align:top;">path</td><td style="vertical-align:top;">:</td><td><div></div></td></tr><tr><td style="font-weight:bold;vertical-align:top;">secure</td><td style="vertical-align:top;">:</td><td><div></div></td></tr><tr><td style="font-weight:bold;vertical-align:top;">version</td><td style="vertical-align:top;">:</td><td><div></div></td></tr></table></div></td></tr><tr><td style="font-weight:bold;vertical-align:top;">xe_domain</td><td style="vertical-align:top;">:</td><td><div>NE4yQlM5RTA5MCw4RTA2QkFCNS1BNUMyLTc2MDQtRDRDNi0wMjkwQ0Y2QzE1QUM=<table><tr><td style="font-weight:bold;vertical-align:top;">comment</td><td style="vertical-align:top;">:</td><td><div></div></td></tr><tr><td style="font-weight:bold;vertical-align:top;">domain</td><td style="vertical-align:top;">:</td><td><div></div></td></tr><tr><td style="font-weight:bold;vertical-align:top;">expires</td><td style="vertical-align:top;">:</td><td><div></div></td></tr><tr><td style="font-weight:bold;vertical-align:top;">httponly</td><td style="vertical-align:top;">:</td><td><div></div></td></tr><tr><td style="font-weight:bold;vertical-align:top;">max-age</td><td style="vertical-align:top;">:</td><td><div></div></td></tr><tr><td style="font-weight:bold;vertical-align:top;">path</td><td style="vertical-align:top;">:</td><td><div></div></td></tr><tr><td style="font-weight:bold;vertical-align:top;">secure</td><td style="vertical-align:top;">:</td><td><div></div></td></tr><tr><td style="font-weight:bold;vertical-align:top;">version</td><td style="vertical-align:top;">:</td><td><div></div></td></tr></table></div></td></tr><tr><td style="font-weight:bold;vertical-align:top;">xe_visitor</td><td style="vertical-align:top;">:</td><td><div>eyJpZCI6IjA1NzgxODM5LTg3NTktNDJlOC1hZDMxLTlkZTY0MTBmMGJiZiIsImVtYWlsIjoiIn0=<table><tr><td style="font-weight:bold;vertical-align:top;">comment</td><td style="vertical-align:top;">:</td><td><div></div></td></tr><tr><td style="font-weight:bold;vertical-align:top;">domain</td><td style="vertical-align:top;">:</td><td><div></div></td></tr><tr><td style="font-weight:bold;vertical-align:top;">expires</td><td style="vertical-align:top;">:</td><td><div></div></td></tr><tr><td style="font-weight:bold;vertical-align:top;">httponly</td><td style="vertical-align:top;">:</td><td><div></div></td></tr><tr><td style="font-weight:bold;vertical-align:top;">max-age</td><td style="vertical-align:top;">:</td><td><div></div></td></tr><tr><td style="font-weight:bold;vertical-align:top;">path</td><td style="vertical-align:top;">:</td><td><div></div></td></tr><tr><td style="font-weight:bold;vertical-align:top;">secure</td><td style="vertical-align:top;">:</td><td><div></div></td></tr><tr><td style="font-weight:bold;vertical-align:top;">version</td><td style="vertical-align:top;">:</td><td><div></div></td></tr></table></div></td></tr></table></div></td></tr><tr><td style="font-weight:bold;vertical-align:top;">env</td><td style="vertical-align:top;">:</td><td><div><table><tr><td style="font-weight:bold;vertical-align:top;">CONTENT_LENGTH</td><td style="vertical-align:top;">:</td><td><div></div></td></tr><tr><td style="font-weight:bold;vertical-align:top;">CONTENT_TYPE</td><td style="vertical-align:top;">:</td><td><div></div></td></tr><tr><td style="font-weight:bold;vertical-align:top;">DOCUMENT_ROOT</td><td style="vertical-align:top;">:</td><td><div>/usr/local/openresty/nginx/html</div></td></tr><tr><td style="font-weight:bold;vertical-align:top;">HTTPS</td><td style="vertical-align:top;">:</td><td><div>on</div></td></tr><tr><td style="font-weight:bold;vertical-align:top;">HTTP_ACCEPT</td><td style="vertical-align:top;">:</td><td><div>text/html,application/xhtml+xml,application/xml;q=0.9,image/webp,image/apng,*/*;q=0.8,application/signed-exchange;v=b3;q=0.9</div></td></tr><tr><td style="font-weight:bold;vertical-align:top;">HTTP_ACCEPT_ENCODING</td><td style="vertical-align:top;">:</td><td><div>gzip, deflate, br</div></td></tr><tr><td style="font-weight:bold;vertical-align:top;">HTTP_ACCEPT_LANGUAGE</td><td style="vertical-align:top;">:</td><td><div>pt-BR,pt;q=0.9,en-US;q=0.8,en;q=0.7</div></td></tr><tr><td style="font-weight:bold;vertical-align:top;">HTTP_CONNECTION</td><td style="vertical-align:top;">:</td><td><div>close</div></td></tr><tr><td style="font-weight:bold;vertical-align:top;">HTTP_COOKIE</td><td style="vertical-align:top;">:</td><td><div>_ga=GA1.2.373890618.1569722219; session_id_chefe_equipe=177.37.193.5-32d1d927-6731-4aa5-adc3-5b459f950879; session_id_sistem=177.37.193.173-a7d396fb-e105-4229-bb9a-1ab8bc99fcb1; __utma=17286586.373890618.1569722219.1581792172.1581792172.1; __utmz=17286586.1581792172.1.1.utmcsr=(direct)|utmccn=(direct)|utmcmd=(none); xe_domain=NE4yQlM5RTA5MCw4RTA2QkFCNS1BNUMyLTc2MDQtRDRDNi0wMjkwQ0Y2QzE1QUM=; _fbp=fb.1.1581792178690.1981190; xe_visitor=eyJpZCI6IjA1NzgxODM5LTg3NTktNDJlOC1hZDMxLTlkZTY0MTBmMGJiZiIsImVtYWlsIjoiIn0=; _gcl_au=1.1.282131937.1582247844; __lfcc=1; session_id_admin=177.37.193.173-688b205c-47f2-4876-95b4-900c6df72e1f; session_id_aluminum=177.37.193.173-7726ae46-73d7-4730-99b7-af5ccf50d67e; session_id_abencoado=177.37.193.173-5c33fbd4-2ff7-4b72-a367-8f79c85757da; session_id_uzl=177.37.193.173-4bb86edc-4856-436d-ab21-794f0ea3f5d2; session_id_welcome=177.37.193.173-17262ad5-bc7e-440e-bb6d-e2171ba7b51e; session_id_sales_credit=177.37.193.173-4510e294-3b1d-4c1a-8d0c-af797e7c8355; session_id_sales_leader=177.37.193.173-d37735f5-7127-4dc0-a238-a888f0b81608; session_id_sales_tracking=177.37.193.173-152c7ead-9cb7-4f28-8f8e-8920f5fdeab0; session_id_customer_list=177.37.193.173-1f26d170-925b-476c-90c8-d4dfae10d649</div></td></tr><tr><td style="font-weight:bold;vertical-align:top;">HTTP_HOST</td><td style="vertical-align:top;">:</td><td><div>rogoberto.pythonanywhere.com</div></td></tr><tr><td style="font-weight:bold;vertical-align:top;">HTTP_REFERER</td><td style="vertical-align:top;">:</td><td><div>https://rogoberto.pythonanywhere.com/aluminum/default/index</div></td></tr><tr><td style="font-weight:bold;vertical-align:top;">HTTP_SEC_FETCH_DEST</td><td style="vertical-align:top;">:</td><td><div>document</div></td></tr><tr><td style="font-weight:bold;vertical-align:top;">HTTP_SEC_FETCH_MODE</td><td style="vertical-align:top;">:</td><td><div>navigate</div></td></tr><tr><td style="font-weight:bold;vertical-align:top;">HTTP_SEC_FETCH_SITE</td><td style="vertical-align:top;">:</td><td><div>same-origin</div></td></tr><tr><td style="font-weight:bold;vertical-align:top;">HTTP_SEC_FETCH_USER</td><td style="vertical-align:top;">:</td><td><div>?1</div></td></tr><tr><td style="font-weight:bold;vertical-align:top;">HTTP_UPGRADE_INSECURE_REQUESTS</td><td style="vertical-align:top;">:</td><td><div>1</div></td></tr><tr><td style="font-weight:bold;vertical-align:top;">HTTP_USER_AGENT</td><td style="vertical-align:top;">:</td><td><div>Mozilla/5.0 (Windows NT 6.1; Win64; x64) AppleWebKit/537.36 (KHTML, like Gecko) Chrome/80.0.3987.132 Safari/537.36</div></td></tr><tr><td style="font-weight:bold;vertical-align:top;">HTTP_X_FORWARDED_FOR</td><td style="vertical-align:top;">:</td><td><div>177.37.193.173</div></td></tr><tr><td style="font-weight:bold;vertical-align:top;">HTTP_X_REAL_IP</td><td style="vertical-align:top;">:</td><td><div>177.37.193.173</div></td></tr><tr><td style="font-weight:bold;vertical-align:top;">PATH_INFO</td><td style="vertical-align:top;">:</td><td><div>/aluminum/default/acesso_inicial</div></td></tr><tr><td style="font-weight:bold;vertical-align:top;">QUERY_STRING</td><td style="vertical-align:top;">:</td><td><div></div></td></tr><tr><td style="font-weight:bold;vertical-align:top;">REMOTE_ADDR</td><td style="vertical-align:top;">:</td><td><div>10.0.0.121</div></td></tr><tr><td style="font-weight:bold;vertical-align:top;">REMOTE_PORT</td><td style="vertical-align:top;">:</td><td><div>35396</div></td></tr><tr><td style="font-weight:bold;vertical-align:top;">REQUEST_METHOD</td><td style="vertical-align:top;">:</td><td><div>GET</div></td></tr><tr><td style="font-weight:bold;vertical-align:top;">REQUEST_URI</td><td style="vertical-align:top;">:</td><td><div>/aluminum/default/acesso_inicial</div></td></tr><tr><td style="font-weight:bold;vertical-align:top;">SCRIPT_NAME</td><td style="vertical-align:top;">:</td><td><div></div></td></tr><tr><td style="font-weight:bold;vertical-align:top;">SERVER_NAME</td><td style="vertical-align:top;">:</td><td><div>rogoberto.pythonanywhere.com</div></td></tr><tr><td style="font-weight:bold;vertical-align:top;">SERVER_PORT</td><td style="vertical-align:top;">:</td><td><div>443</div></td></tr><tr><td style="font-weight:bold;vertical-align:top;">SERVER_PROTOCOL</td><td style="vertical-align:top;">:</td><td><div>HTTP/1.1</div></td></tr><tr><td style="font-weight:bold;vertical-align:top;">app_folders</td><td style="vertical-align:top;">:</td><td><div>set([&#x27;/home/rogoberto/web2py/applications/sales_leader/&#x27;, &#x27;/home/rogoberto/web2py/applications/welcome/&#x27;, &#x27;/home/rogoberto/web2py/applications/sales_tracking/&#x27;, &#x27;/home/rogoberto/web2py/applications/aluminum/&#x27;, &#x27;/home/rogoberto/web2py/applications/abencoado/&#x27;, &#x27;/home/rogoberto/web2py/applications/sales_credit/&#x27;, &#x27;/home/rogoberto/web2py/applications/customer_list/&#x27;, &#x27;/home/rogoberto/web2py/applications/sistem/&#x27;, &#x27;/home/rogoberto/web2py/applications/admin/&#x27;, &#x27;/home/rogoberto/web2py/applications/uzl/&#x27;])</div></td></tr><tr><td style="font-weight:bold;vertical-align:top;">applications_parent</td><td style="vertical-align:top;">:</td><td><div>/home/rogoberto/web2py</div></td></tr><tr><td style="font-weight:bold;vertical-align:top;">content_length</td><td style="vertical-align:top;">:</td><td><div></div></td></tr><tr><td style="font-weight:bold;vertical-align:top;">content_type</td><td style="vertical-align:top;">:</td><td><div></div></td></tr><tr><td style="font-weight:bold;vertical-align:top;">db_sessions</td><td style="vertical-align:top;">:</td><td><div>set([])</div></td></tr><tr><td style="font-weight:bold;vertical-align:top;">debugging</td><td style="vertical-align:top;">:</td><td><div>True</div></td></tr><tr><td style="font-weight:bold;vertical-align:top;">document_root</td><td style="vertical-align:top;">:</td><td><div>/usr/local/openresty/nginx/html</div></td></tr><tr><td style="font-weight:bold;vertical-align:top;">gluon_parent</td><td style="vertical-align:top;">:</td><td><div>/home/rogoberto/web2py</div></td></tr><tr><td style="font-weight:bold;vertical-align:top;">http_accept</td><td style="vertical-align:top;">:</td><td><div>text/html,application/xhtml+xml,application/xml;q=0.9,image/webp,image/apng,*/*;q=0.8,application/signed-exchange;v=b3;q=0.9</div></td></tr><tr><td style="font-weight:bold;vertical-align:top;">http_accept_encoding</td><td style="vertical-align:top;">:</td><td><div>gzip, deflate, br</div></td></tr><tr><td style="font-weight:bold;vertical-align:top;">http_accept_language</td><td style="vertical-align:top;">:</td><td><div>pt-BR,pt;q=0.9,en-US;q=0.8,en;q=0.7</div></td></tr><tr><td style="font-weight:bold;vertical-align:top;">http_connection</td><td style="vertical-align:top;">:</td><td><div>close</div></td></tr><tr><td style="font-weight:bold;vertical-align:top;">http_cookie</td><td style="vertical-align:top;">:</td><td><div>_ga=GA1.2.373890618.1569722219; session_id_chefe_equipe=177.37.193.5-32d1d927-6731-4aa5-adc3-5b459f950879; session_id_sistem=177.37.193.173-a7d396fb-e105-4229-bb9a-1ab8bc99fcb1; __utma=17286586.373890618.1569722219.1581792172.1581792172.1; __utmz=17286586.1581792172.1.1.utmcsr=(direct)|utmccn=(direct)|utmcmd=(none); xe_domain=NE4yQlM5RTA5MCw4RTA2QkFCNS1BNUMyLTc2MDQtRDRDNi0wMjkwQ0Y2QzE1QUM=; _fbp=fb.1.1581792178690.1981190; xe_visitor=eyJpZCI6IjA1NzgxODM5LTg3NTktNDJlOC1hZDMxLTlkZTY0MTBmMGJiZiIsImVtYWlsIjoiIn0=; _gcl_au=1.1.282131937.1582247844; __lfcc=1; session_id_admin=177.37.193.173-688b205c-47f2-4876-95b4-900c6df72e1f; session_id_aluminum=177.37.193.173-7726ae46-73d7-4730-99b7-af5ccf50d67e; session_id_abencoado=177.37.193.173-5c33fbd4-2ff7-4b72-a367-8f79c85757da; session_id_uzl=177.37.193.173-4bb86edc-4856-436d-ab21-794f0ea3f5d2; session_id_welcome=177.37.193.173-17262ad5-bc7e-440e-bb6d-e2171ba7b51e; session_id_sales_credit=177.37.193.173-4510e294-3b1d-4c1a-8d0c-af797e7c8355; session_id_sales_leader=177.37.193.173-d37735f5-7127-4dc0-a238-a888f0b81608; session_id_sales_tracking=177.37.193.173-152c7ead-9cb7-4f28-8f8e-8920f5fdeab0; session_id_customer_list=177.37.193.173-1f26d170-925b-476c-90c8-d4dfae10d649</div></td></tr><tr><td style="font-weight:bold;vertical-align:top;">http_host</td><td style="vertical-align:top;">:</td><td><div>rogoberto.pythonanywhere.com</div></td></tr><tr><td style="font-weight:bold;vertical-align:top;">http_referer</td><td style="vertical-align:top;">:</td><td><div>https://rogoberto.pythonanywhere.com/aluminum/default/index</div></td></tr><tr><td style="font-weight:bold;vertical-align:top;">http_sec_fetch_dest</td><td style="vertical-align:top;">:</td><td><div>document</div></td></tr><tr><td style="font-weight:bold;vertical-align:top;">http_sec_fetch_mode</td><td style="vertical-align:top;">:</td><td><div>navigate</div></td></tr><tr><td style="font-weight:bold;vertical-align:top;">http_sec_fetch_site</td><td style="vertical-align:top;">:</td><td><div>same-origin</div></td></tr><tr><td style="font-weight:bold;vertical-align:top;">http_sec_fetch_user</td><td style="vertical-align:top;">:</td><td><div>?1</div></td></tr><tr><td style="font-weight:bold;vertical-align:top;">http_upgrade_insecure_requests</td><td style="vertical-align:top;">:</td><td><div>1</div></td></tr><tr><td style="font-weight:bold;vertical-align:top;">http_user_agent</td><td style="vertical-align:top;">:</td><td><div>Mozilla/5.0 (Windows NT 6.1; Win64; x64) AppleWebKit/537.36 (KHTML, like Gecko) Chrome/80.0.3987.132 Safari/537.36</div></td></tr><tr><td style="font-weight:bold;vertical-align:top;">http_x_forwarded_for</td><td style="vertical-align:top;">:</td><td><div>177.37.193.173</div></td></tr><tr><td style="font-weight:bold;vertical-align:top;">http_x_real_ip</td><td style="vertical-align:top;">:</td><td><div>177.37.193.173</div></td></tr><tr><td style="font-weight:bold;vertical-align:top;">https</td><td style="vertical-align:top;">:</td><td><div>on</div></td></tr><tr><td style="font-weight:bold;vertical-align:top;">is_jython</td><td style="vertical-align:top;">:</td><td><div>False</div></td></tr><tr><td style="font-weight:bold;vertical-align:top;">is_py2</td><td style="vertical-align:top;">:</td><td><div>True</div></td></tr><tr><td style="font-weight:bold;vertical-align:top;">is_pypy</td><td style="vertical-align:top;">:</td><td><div>False</div></td></tr><tr><td style="font-weight:bold;vertical-align:top;">is_source</td><td style="vertical-align:top;">:</td><td><div>True</div></td></tr><tr><td style="font-weight:bold;vertical-align:top;">local_hosts</td><td style="vertical-align:top;">:</td><td><div><table><tr><td><div>35.173.69.207</div></td></tr><tr><td><div>blue-liveweb14</div></td></tr><tr><td><div>::ffff:127.0.0.1</div></td></tr><tr><td><div>::1</div></td></tr><tr><td><div>rogoberto.pythonanywhere.com</div></td></tr><tr><td><div>127.0.0.1</div></td></tr><tr><td><div>localhost</div></td></tr></table></div></td></tr><tr><td style="font-weight:bold;vertical-align:top;">path_info</td><td style="vertical-align:top;">:</td><td><div>/aluminum/default/acesso_inicial</div></td></tr><tr><td style="font-weight:bold;vertical-align:top;">query_string</td><td style="vertical-align:top;">:</td><td><div></div></td></tr><tr><td style="font-weight:bold;vertical-align:top;">remote_addr</td><td style="vertical-align:top;">:</td><td><div>10.0.0.121</div></td></tr><tr><td style="font-weight:bold;vertical-align:top;">remote_port</td><td style="vertical-align:top;">:</td><td><div>35396</div></td></tr><tr><td style="font-weight:bold;vertical-align:top;">request_method</td><td style="vertical-align:top;">:</td><td><div>GET</div></td></tr><tr><td style="font-weight:bold;vertical-align:top;">request_uri</td><td style="vertical-align:top;">:</td><td><div>/aluminum/default/acesso_inicial</div></td></tr><tr><td style="font-weight:bold;vertical-align:top;">script_name</td><td style="vertical-align:top;">:</td><td><div></div></td></tr><tr><td style="font-weight:bold;vertical-align:top;">server_name</td><td style="vertical-align:top;">:</td><td><div>rogoberto.pythonanywhere.com</div></td></tr><tr><td style="font-weight:bold;vertical-align:top;">server_port</td><td style="vertical-align:top;">:</td><td><div>443</div></td></tr><tr><td style="font-weight:bold;vertical-align:top;">server_protocol</td><td style="vertical-align:top;">:</td><td><div>HTTP/1.1</div></td></tr><tr><td style="font-weight:bold;vertical-align:top;">uwsgi.node</td><td style="vertical-align:top;">:</td><td><div>blue-liveweb14</div></td></tr><tr><td style="font-weight:bold;vertical-align:top;">uwsgi.version</td><td style="vertical-align:top;">:</td><td><div>2.0.17.1</div></td></tr><tr><td style="font-weight:bold;vertical-align:top;">uwsgi_node</td><td style="vertical-align:top;">:</td><td><div>blue-liveweb14</div></td></tr><tr><td style="font-weight:bold;vertical-align:top;">uwsgi_version</td><td style="vertical-align:top;">:</td><td><div>2.0.17.1</div></td></tr><tr><td style="font-weight:bold;vertical-align:top;">web2py_path</td><td style="vertical-align:top;">:</td><td><div>/home/rogoberto/web2py</div></td></tr><tr><td style="font-weight:bold;vertical-align:top;">web2py_version</td><td style="vertical-align:top;">:</td><td><div>2.17.1-stable+timestamp.2018.08.06.01.02.56</div></td></tr><tr><td style="font-weight:bold;vertical-align:top;">wsgi.errors</td><td style="vertical-align:top;">:</td><td><div>&lt;uwsgi_file__bin_user_wsgi_wrapper.ErrorLogFile object at 0x7fd154895d10&gt;</div></td></tr><tr><td style="font-weight:bold;vertical-align:top;">wsgi.file_wrapper</td><td style="vertical-align:top;">:</td><td><div>&lt;built-in function uwsgi_sendfile&gt;</div></td></tr><tr><td style="font-weight:bold;vertical-align:top;">wsgi.input</td><td style="vertical-align:top;">:</td><td><div>&lt;uwsgi._Input object at 0x7fd155ca5c00&gt;</div></td></tr><tr><td style="font-weight:bold;vertical-align:top;">wsgi.multiprocess</td><td style="vertical-align:top;">:</td><td><div>False</div></td></tr><tr><td style="font-weight:bold;vertical-align:top;">wsgi.multithread</td><td style="vertical-align:top;">:</td><td><div>False</div></td></tr><tr><td style="font-weight:bold;vertical-align:top;">wsgi.run_once</td><td style="vertical-align:top;">:</td><td><div>False</div></td></tr><tr><td style="font-weight:bold;vertical-align:top;">wsgi.url_scheme</td><td style="vertical-align:top;">:</td><td><div>https</div></td></tr><tr><td style="font-weight:bold;vertical-align:top;">wsgi.version</td><td style="vertical-align:top;">:</td><td><div><table><tr><td><div>1</div></td></tr><tr><td><div>0</div></td></tr></table></div></td></tr><tr><td style="font-weight:bold;vertical-align:top;">wsgi_errors</td><td style="vertical-align:top;">:</td><td><div>&lt;uwsgi_file__bin_user_wsgi_wrapper.ErrorLogFile object at 0x7fd154895d10&gt;</div></td></tr><tr><td style="font-weight:bold;vertical-align:top;">wsgi_file_wrapper</td><td style="vertical-align:top;">:</td><td><div>&lt;built-in function uwsgi_sendfile&gt;</div></td></tr><tr><td style="font-weight:bold;vertical-align:top;">wsgi_input</td><td style="vertical-align:top;">:</td><td><div>&lt;uwsgi._Input object at 0x7fd155ca5c00&gt;</div></td></tr><tr><td style="font-weight:bold;vertical-align:top;">wsgi_multiprocess</td><td style="vertical-align:top;">:</td><td><div>False</div></td></tr><tr><td style="font-weight:bold;vertical-align:top;">wsgi_multithread</td><td style="vertical-align:top;">:</td><td><div>False</div></td></tr><tr><td style="font-weight:bold;vertical-align:top;">wsgi_run_once</td><td style="vertical-align:top;">:</td><td><div>False</div></td></tr><tr><td style="font-weight:bold;vertical-align:top;">wsgi_url_scheme</td><td style="vertical-align:top;">:</td><td><div>https</div></td></tr><tr><td style="font-weight:bold;vertical-align:top;">wsgi_version</td><td style="vertical-align:top;">:</td><td><div><table><tr><td><div>1</div></td></tr><tr><td><div>0</div></td></tr></table></div></td></tr></table></div></td></tr><tr><td style="font-weight:bold;vertical-align:top;">extension</td><td style="vertical-align:top;">:</td><td><div>html</div></td></tr><tr><td style="font-weight:bold;vertical-align:top;">folder</td><td style="vertical-align:top;">:</td><td><div>/home/rogoberto/web2py/applications/aluminum/</div></td></tr><tr><td style="font-weight:bold;vertical-align:top;">function</td><td style="vertical-align:top;">:</td><td><div>acesso_inicial</div></td></tr><tr><td style="font-weight:bold;vertical-align:top;">global_settings</td><td style="vertical-align:top;">:</td><td><div><table><tr><td style="font-weight:bold;vertical-align:top;">app_folders</td><td style="vertical-align:top;">:</td><td><div>set([&#x27;/home/rogoberto/web2py/applications/sales_leader/&#x27;, &#x27;/home/rogoberto/web2py/applications/welcome/&#x27;, &#x27;/home/rogoberto/web2py/applications/sales_tracking/&#x27;, &#x27;/home/rogoberto/web2py/applications/aluminum/&#x27;, &#x27;/home/rogoberto/web2py/applications/abencoado/&#x27;, &#x27;/home/rogoberto/web2py/applications/sales_credit/&#x27;, &#x27;/home/rogoberto/web2py/applications/customer_list/&#x27;, &#x27;/home/rogoberto/web2py/applications/sistem/&#x27;, &#x27;/home/rogoberto/web2py/applications/admin/&#x27;, &#x27;/home/rogoberto/web2py/applications/uzl/&#x27;])</div></td></tr><tr><td style="font-weight:bold;vertical-align:top;">applications_parent</td><td style="vertical-align:top;">:</td><td><div>/home/rogoberto/web2py</div></td></tr><tr><td style="font-weight:bold;vertical-align:top;">db_sessions</td><td style="vertical-align:top;">:</td><td><div>set([])</div></td></tr><tr><td style="font-weight:bold;vertical-align:top;">debugging</td><td style="vertical-align:top;">:</td><td><div>True</div></td></tr><tr><td style="font-weight:bold;vertical-align:top;">gluon_parent</td><td style="vertical-align:top;">:</td><td><div>/home/rogoberto/web2py</div></td></tr><tr><td style="font-weight:bold;vertical-align:top;">is_jython</td><td style="vertical-align:top;">:</td><td><div>False</div></td></tr><tr><td style="font-weight:bold;vertical-align:top;">is_py2</td><td style="vertical-align:top;">:</td><td><div>True</div></td></tr><tr><td style="font-weight:bold;vertical-align:top;">is_pypy</td><td style="vertical-align:top;">:</td><td><div>False</div></td></tr><tr><td style="font-weight:bold;vertical-align:top;">is_source</td><td style="vertical-align:top;">:</td><td><div>True</div></td></tr><tr><td style="font-weight:bold;vertical-align:top;">local_hosts</td><td style="vertical-align:top;">:</td><td><div><table><tr><td><div>35.173.69.207</div></td></tr><tr><td><div>blue-liveweb14</div></td></tr><tr><td><div>::ffff:127.0.0.1</div></td></tr><tr><td><div>::1</div></td></tr><tr><td><div>rogoberto.pythonanywhere.com</div></td></tr><tr><td><div>127.0.0.1</div></td></tr><tr><td><div>localhost</div></td></tr></table></div></td></tr><tr><td style="font-weight:bold;vertical-align:top;">web2py_version</td><td style="vertical-align:top;">:</td><td><div>2.17.1-stable+timestamp.2018.08.06.01.02.56</div></td></tr></table></div></td></tr><tr><td style="font-weight:bold;vertical-align:top;">is_https</td><td style="vertical-align:top;">:</td><td><div>True</div></td></tr><tr><td style="font-weight:bold;vertical-align:top;">is_local</td><td style="vertical-align:top;">:</td><td><div>False</div></td></tr><tr><td style="font-weight:bold;vertical-align:top;">is_restful</td><td style="vertical-align:top;">:</td><td><div>False</div></td></tr><tr><td style="font-weight:bold;vertical-align:top;">is_scheduler</td><td style="vertical-align:top;">:</td><td><div>False</div></td></tr><tr><td style="font-weight:bold;vertical-align:top;">is_shell</td><td style="vertical-align:top;">:</td><td><div>False</div></td></tr><tr><td style="font-weight:bold;vertical-align:top;">method</td><td style="vertical-align:top;">:</td><td><div>GET</div></td></tr><tr><td style="font-weight:bold;vertical-align:top;">now</td><td style="vertical-align:top;">:</td><td><div>datetime.datetime(2020, 3, 7, 18, 35, 54, 164524)</div></td></tr><tr><td style="font-weight:bold;vertical-align:top;">raw_args</td><td style="vertical-align:top;">:</td><td><div></div></td></tr><tr><td style="font-weight:bold;vertical-align:top;">raw_extension</td><td style="vertical-align:top;">:</td><td><div>None</div></td></tr><tr><td style="font-weight:bold;vertical-align:top;">url</td><td style="vertical-align:top;">:</td><td><div>/aluminum/default/acesso_inicial</div></td></tr><tr><td style="font-weight:bold;vertical-align:top;">utcnow</td><td style="vertical-align:top;">:</td><td><div>datetime.datetime(2020, 3, 7, 18, 35, 54, 164551)</div></td></tr><tr><td style="font-weight:bold;vertical-align:top;">wsgi</td><td style="vertical-align:top;">:</td><td><div>&lt;gluon.main.LazyWSGI object at 0x7fd14c790ad0&gt;</div></td></tr></table></div>'
tRp60
sS'frames'
p61
(lp62
(dp63
S'file'
p64
S'/home/rogoberto/web2py/gluon/restricted.py'
p65
sS'dump'
p66
(dp67
S'environment'
p68
S"{'A': <class 'gluon.html.A'>, 'ANY_OF': <class 'gluon.validators.ANY_OF'>, 'ASSIGNJS': <function ASSIGNJS>, 'AppConfig': <function AppConfig>, 'Auth': <class 'gluon.tools.Auth'>, 'B': <class 'gluon.html.B'>, 'BEAUTIFY': <class 'gluon.html.BEAUTIFY'>, 'BODY': <class 'gluon.html.BODY'>, 'BR': <class 'gluon.html.BR'>, 'BUTTON': <class 'gluon.html.BUTTON'>, ...}"
p69
sS'ccode'
p70
S'<code object <module> at 0x7fd14cb795b0, file "/...py/applications/aluminum/models/menu.py", line 9>'
p71
ssS'lnum'
p72
I219
sS'lines'
p73
(dp74
I214
S'    if environment is None:'
p75
sI215
S'        environment = {}'
p76
sI216
S"    environment['__file__'] = layer"
p77
sI217
S"    environment['__name__'] = '__restricted__'"
p78
sI218
S'    try:'
p79
sI219
S'        exec(ccode, environment)'
p80
sI220
S'    except HTTP:'
p81
sI221
S'        raise'
p82
sI222
S'    except RestrictedError:'
p83
sI223
S'        # do not encapsulate (obfuscate) the original RestrictedError'
p84
ssS'call'
p85
S'(ccode=<code object <module> at 0x7fd14cb795b0, file "/...py/applications/aluminum/models/menu.py", line 9>, environment={\'A\': <class \'gluon.html.A\'>, \'ANY_OF\': <class \'gluon.validators.ANY_OF\'>, \'ASSIGNJS\': <function ASSIGNJS>, \'AppConfig\': <function AppConfig>, \'Auth\': <class \'gluon.tools.Auth\'>, \'B\': <class \'gluon.html.B\'>, \'BEAUTIFY\': <class \'gluon.html.BEAUTIFY\'>, \'BODY\': <class \'gluon.html.BODY\'>, \'BR\': <class \'gluon.html.BR\'>, \'BUTTON\': <class \'gluon.html.BUTTON\'>, ...}, layer=\'/home/rogoberto/web2py/applications/aluminum/models/menu.py\', scode=<code object <module> at 0x7fd14cb795b0, file "/...py/applications/aluminum/models/menu.py", line 9>)'
p86
sS'func'
p87
S'restricted'
p88
sa(dp89
g64
S'/home/rogoberto/web2py/applications/aluminum/models/menu.py'
p90
sg66
(dp91
S'auth_user'
p92
S'undefined'
p93
ssg72
I15
sg73
(dp94
I10
S']'
sI11
S''
sI12
S'# ----------------------------------------------------------------------------------------------------------------------'
p95
sI13
S'# provide shortcuts for development. you can remove everything below in production'
p96
sI14
S'# ----------------------------------------------------------------------------------------------------------------------'
p97
sI15
S"if auth_user.requires_membership('admin'):"
p98
sI16
S'    _app = request.application'
p99
sI17
S'    response.menu += ['
p100
sI18
S"    (T('BD'), False, URL('appadmin', 'index')),"
p101
sI19
S'    ]'
p102
ssg85
S'()'
p103
sg87
S'<module>'
p104
sasS'pyver'
p105
S'Python 2.7.12: /usr/local/bin/uwsgi (prefix: /usr)'
p106
sS'session'
p107
g59
(S's\xf1\t\x00\x00<div><table><tr><td style="font-weight:bold;vertical-align:top;">auth</td><td style="vertical-align:top;">:</td><td><div><table><tr><td style="font-weight:bold;vertical-align:top;">expiration</td><td style="vertical-align:top;">:</td><td><div>3600</div></td></tr><tr><td style="font-weight:bold;vertical-align:top;">hmac_key</td><td style="vertical-align:top;">:</td><td><div>b17daae8-18cf-433d-861e-d9cc6f32b133</div></td></tr><tr><td style="font-weight:bold;vertical-align:top;">last_visit</td><td style="vertical-align:top;">:</td><td><div>datetime.datetime(2020, 3, 7, 18, 32, 48, 148298)</div></td></tr><tr><td style="font-weight:bold;vertical-align:top;">remember_me</td><td style="vertical-align:top;">:</td><td><div>False</div></td></tr><tr><td style="font-weight:bold;vertical-align:top;">user</td><td style="vertical-align:top;">:</td><td><div><table><tr><td style="font-weight:bold;vertical-align:top;">email</td><td style="vertical-align:top;">:</td><td><div>usbetin@gmail.com</div></td></tr><tr><td style="font-weight:bold;vertical-align:top;">first_name</td><td style="vertical-align:top;">:</td><td><div>rogoberto</div></td></tr><tr><td style="font-weight:bold;vertical-align:top;">id</td><td style="vertical-align:top;">:</td><td><div>1L</div></td></tr><tr><td style="font-weight:bold;vertical-align:top;">last_name</td><td style="vertical-align:top;">:</td><td><div>ribeiro</div></td></tr><tr><td style="font-weight:bold;vertical-align:top;">registration_id</td><td style="vertical-align:top;">:</td><td><div></div></td></tr><tr><td style="font-weight:bold;vertical-align:top;">registration_key</td><td style="vertical-align:top;">:</td><td><div></div></td></tr><tr><td style="font-weight:bold;vertical-align:top;">reset_password_key</td><td style="vertical-align:top;">:</td><td><div></div></td></tr></table></div></td></tr><tr><td style="font-weight:bold;vertical-align:top;">user_groups</td><td style="vertical-align:top;">:</td><td><div><table><tr><td style="font-weight:bold;vertical-align:top;">1</td><td style="vertical-align:top;">:</td><td><div>user_1</div></td></tr><tr><td style="font-weight:bold;vertical-align:top;">2</td><td style="vertical-align:top;">:</td><td><div>admin</div></td></tr><tr><td style="font-weight:bold;vertical-align:top;">3</td><td style="vertical-align:top;">:</td><td><div>wiki_editor</div></td></tr></table></div></td></tr></table></div></td></tr><tr><td style="font-weight:bold;vertical-align:top;">flash</td><td style="vertical-align:top;">:</td><td><div>None</div></td></tr></table></div>'
tRp108
sS'etype'
p109
S"<type 'exceptions.NameError'>"
p110
sS'date'
p111
S'Sat Mar  7 18:35:54 2020'
p112
sS'response'
p113
g59
(S's/\x1c\x00\x00<div><table><tr><td style="font-weight:bold;vertical-align:top;">body</td><td style="vertical-align:top;">:</td><td><div>&lt;cStringIO.StringO object at 0x7fd14c78f2d0&gt;</div></td></tr><tr><td style="font-weight:bold;vertical-align:top;">cookies</td><td style="vertical-align:top;">:</td><td><div><table><tr><td style="font-weight:bold;vertical-align:top;">session_id_aluminum</td><td style="vertical-align:top;">:</td><td><div>177.37.193.173-7726ae46-73d7-4730-99b7-af5ccf50d67e<table><tr><td style="font-weight:bold;vertical-align:top;">comment</td><td style="vertical-align:top;">:</td><td><div></div></td></tr><tr><td style="font-weight:bold;vertical-align:top;">domain</td><td style="vertical-align:top;">:</td><td><div></div></td></tr><tr><td style="font-weight:bold;vertical-align:top;">expires</td><td style="vertical-align:top;">:</td><td><div></div></td></tr><tr><td style="font-weight:bold;vertical-align:top;">httponly</td><td style="vertical-align:top;">:</td><td><div></div></td></tr><tr><td style="font-weight:bold;vertical-align:top;">max-age</td><td style="vertical-align:top;">:</td><td><div></div></td></tr><tr><td style="font-weight:bold;vertical-align:top;">path</td><td style="vertical-align:top;">:</td><td><div>/</div></td></tr><tr><td style="font-weight:bold;vertical-align:top;">secure</td><td style="vertical-align:top;">:</td><td><div></div></td></tr><tr><td style="font-weight:bold;vertical-align:top;">version</td><td style="vertical-align:top;">:</td><td><div></div></td></tr></table></div></td></tr></table></div></td></tr><tr><td style="font-weight:bold;vertical-align:top;">delimiters</td><td style="vertical-align:top;">:</td><td><div><table><tr><td><div>{{</div></td></tr><tr><td><div>}}</div></td></tr></table></div></td></tr><tr><td style="font-weight:bold;vertical-align:top;">files</td><td style="vertical-align:top;">:</td><td><div><table></table></div></td></tr><tr><td style="font-weight:bold;vertical-align:top;">flash</td><td style="vertical-align:top;">:</td><td><div></div></td></tr><tr><td style="font-weight:bold;vertical-align:top;">form_label_separator</td><td style="vertical-align:top;">:</td><td><div></div></td></tr><tr><td style="font-weight:bold;vertical-align:top;">formstyle</td><td style="vertical-align:top;">:</td><td><div>bootstrap4_inline</div></td></tr><tr><td style="font-weight:bold;vertical-align:top;">generic_patterns</td><td style="vertical-align:top;">:</td><td><div><table></table></div></td></tr><tr><td style="font-weight:bold;vertical-align:top;">google_analytics_id</td><td style="vertical-align:top;">:</td><td><div>None</div></td></tr><tr><td style="font-weight:bold;vertical-align:top;">headers</td><td style="vertical-align:top;">:</td><td><div><table><tr><td style="font-weight:bold;vertical-align:top;">X-Powered-By</td><td style="vertical-align:top;">:</td><td><div>web2py</div></td></tr></table></div></td></tr><tr><td style="font-weight:bold;vertical-align:top;">menu</td><td style="vertical-align:top;">:</td><td><div><table><tr><td><div><table><tr><td><div>Principal</div></td></tr><tr><td><div>False</div></td></tr><tr><td><div>/aluminum/default/index</div></td></tr><tr><td><div><table></table></div></td></tr></table></div></td></tr></table></div></td></tr><tr><td style="font-weight:bold;vertical-align:top;">meta</td><td style="vertical-align:top;">:</td><td><div><table><tr><td style="font-weight:bold;vertical-align:top;">author</td><td style="vertical-align:top;">:</td><td><div>Your Name &lt;you@example.com&gt;</div></td></tr><tr><td style="font-weight:bold;vertical-align:top;">description</td><td style="vertical-align:top;">:</td><td><div>a cool new app</div></td></tr><tr><td style="font-weight:bold;vertical-align:top;">generator</td><td style="vertical-align:top;">:</td><td><div>Web2py Web Framework</div></td></tr><tr><td style="font-weight:bold;vertical-align:top;">keywords</td><td style="vertical-align:top;">:</td><td><div><table><tr><td><div>web2py</div></td></tr><tr><td><div>python</div></td></tr><tr><td><div>framework</div></td></tr></table></div></td></tr></table></div></td></tr><tr><td style="font-weight:bold;vertical-align:top;">models_to_run</td><td style="vertical-align:top;">:</td><td><div><table><tr><td><div>^\\w+\\.py$</div></td></tr><tr><td><div>^default/\\w+\\.py$</div></td></tr><tr><td><div>^default/acesso_inicial/\\w+\\.py$</div></td></tr></table></div></td></tr><tr><td style="font-weight:bold;vertical-align:top;">postprocessing</td><td style="vertical-align:top;">:</td><td><div><table></table></div></td></tr><tr><td style="font-weight:bold;vertical-align:top;">session_client</td><td style="vertical-align:top;">:</td><td><div>177.37.193.173</div></td></tr><tr><td style="font-weight:bold;vertical-align:top;">session_cookie_compression_level</td><td style="vertical-align:top;">:</td><td><div>None</div></td></tr><tr><td style="font-weight:bold;vertical-align:top;">session_cookie_expires</td><td style="vertical-align:top;">:</td><td><div>None</div></td></tr><tr><td style="font-weight:bold;vertical-align:top;">session_data_name</td><td style="vertical-align:top;">:</td><td><div>session_data_aluminum</div></td></tr><tr><td style="font-weight:bold;vertical-align:top;">session_file</td><td style="vertical-align:top;">:</td><td><div>&lt;open file &#x27;/home/rogoberto/web2py/applications/aluminum/sessions/1d4/168/177.37.193.173-7726ae46-73d7-4730-99b7-af5ccf50d67e&#x27;, mode &#x27;rb+&#x27; at 0x7fd14c3b3030&gt;</div></td></tr><tr><td style="font-weight:bold;vertical-align:top;">session_filename</td><td style="vertical-align:top;">:</td><td><div>/home/rogoberto/web2py/applications/aluminum/sessions/177.37.193.173-7726ae46-73d7-4730-99b7-af5ccf50d67e</div></td></tr><tr><td style="font-weight:bold;vertical-align:top;">session_hash</td><td style="vertical-align:top;">:</td><td><div>1cec8e8217e8e86d66c0421812d2e75d</div></td></tr><tr><td style="font-weight:bold;vertical-align:top;">session_id</td><td style="vertical-align:top;">:</td><td><div>177.37.193.173-7726ae46-73d7-4730-99b7-af5ccf50d67e</div></td></tr><tr><td style="font-weight:bold;vertical-align:top;">session_id_name</td><td style="vertical-align:top;">:</td><td><div>session_id_aluminum</div></td></tr><tr><td style="font-weight:bold;vertical-align:top;">session_locked</td><td style="vertical-align:top;">:</td><td><div>True</div></td></tr><tr><td style="font-weight:bold;vertical-align:top;">session_masterapp</td><td style="vertical-align:top;">:</td><td><div>aluminum</div></td></tr><tr><td style="font-weight:bold;vertical-align:top;">session_new</td><td style="vertical-align:top;">:</td><td><div>False</div></td></tr><tr><td style="font-weight:bold;vertical-align:top;">session_storage_type</td><td style="vertical-align:top;">:</td><td><div>file</div></td></tr><tr><td style="font-weight:bold;vertical-align:top;">show_toolbar</td><td style="vertical-align:top;">:</td><td><div>False</div></td></tr><tr><td style="font-weight:bold;vertical-align:top;">status</td><td style="vertical-align:top;">:</td><td><div>200</div></td></tr><tr><td style="font-weight:bold;vertical-align:top;">view</td><td style="vertical-align:top;">:</td><td><div>default/acesso_inicial.html</div></td></tr></table></div>'
tRp114
sS'locals'
p115
(dp116
S'PY2'
p117
S'True'
p118
sS'OBJECT'
p119
S"<class 'gluon.html.OBJECT'>"
p120
sS'SQLDB'
p121
S"<class 'pydal.base.DAL'>"
p122
sg107
S"<Storage {'_auth_next': None, 'flash': None, 'au...-28ae-4eb1-a9bc-baa32ba94912'], '_secure': True}>"
p123
sS'LINK'
p124
S"<class 'gluon.html.LINK'>"
p125
sS'BR'
p126
S"<class 'gluon.html.BR'>"
p127
sS'local_import'
p128
S'<function <lambda>>'
p129
sS'OPTGROUP'
p130
S"<class 'gluon.html.OPTGROUP'>"
p131
sS'LI'
p132
S"<class 'gluon.html.LI'>"
p133
sS'PRE'
p134
S"<class 'gluon.html.PRE'>"
p135
sS'IS_INT_IN_RANGE'
p136
S"<class 'gluon.validators.IS_INT_IN_RANGE'>"
p137
sS'to_bytes'
p138
S'<function to_bytes>'
p139
sS'IS_LOWER'
p140
S"<class 'gluon.validators.IS_LOWER'>"
p141
sS'IS_STRONG'
p142
S"<class 'gluon.validators.IS_STRONG'>"
p143
sS'cache'
p144
S'<gluon.cache.Cache object>'
p145
sS'IS_IN_DB'
p146
S"<class 'gluon.validators.IS_IN_DB'>"
p147
sS'TAG'
p148
S'<gluon.html.__TAG__ object>'
p149
sS'SQLField'
p150
S"<class 'pydal.objects.Field'>"
p151
sS'mail'
p152
S'<gluon.tools.Mail object>'
p153
sS'BODY'
p154
S"<class 'gluon.html.BODY'>"
p155
sS'IS_DATE_IN_RANGE'
p156
S"<class 'gluon.validators.IS_DATE_IN_RANGE'>"
p157
sS'TH'
p158
S"<class 'gluon.html.TH'>"
p159
sS'URL'
p160
S'<function URL>'
p161
sS'__file__'
p162
S"'/home/rogoberto/web2py/applications/aluminum/models/menu.py'"
p163
sS'db'
p164
S'<DAL uri="sqlite://storage.sqlite">'
p165
sS'auth'
p166
S'<gluon.tools.Auth object>'
p167
sS'P'
S"<class 'gluon.html.P'>"
p168
sS'TFOOT'
p169
S"<class 'gluon.html.TFOOT'>"
p170
sS'iteritems'
p171
S'<function <lambda>>'
p172
sS'XHTML'
p173
S"<class 'gluon.html.XHTML'>"
p174
sS'ON'
p175
g118
sS'OL'
p176
S"<class 'gluon.html.OL'>"
p177
sS'TEXTAREA'
p178
S"<class 'gluon.html.TEXTAREA'>"
p179
sS'MENU'
p180
S"<class 'gluon.html.MENU'>"
p181
sS'LOAD'
p182
S'<function LOAD>'
p183
sS'CODE'
p184
S"<class 'gluon.html.CODE'>"
p185
sS'HTTP'
p186
S"<class 'gluon.http.HTTP'>"
p187
sS'HR'
p188
S"<class 'gluon.html.HR'>"
p189
sS'IS_DATETIME'
p190
S"<class 'gluon.validators.IS_DATETIME'>"
p191
sS'reduce'
p192
S'<built-in function reduce>'
p193
sg58
S"<Storage {'function': 'acesso_inicial', 'cookies...e, 'is_https': True, 'client': '177.37.193.173'}>"
p194
sS'LABEL'
p195
S"<class 'gluon.html.LABEL'>"
p196
sS'CLEANUP'
p197
S"<class 'gluon.validators.CLEANUP'>"
p198
sS'SELECT'
p199
S"<class 'gluon.html.SELECT'>"
p200
sS'CENTER'
p201
S"<class 'gluon.html.CENTER'>"
p202
sS'Auth'
p203
S"<class 'gluon.tools.Auth'>"
p204
sS'__builtins__'
p205
S"{'ArithmeticError': <type 'exceptions.ArithmeticError'>, 'AssertionError': <type 'exceptions.AssertionError'>, 'AttributeError': <type 'exceptions.AttributeError'>, 'BaseException': <type 'exceptions.BaseException'>, 'BufferError': <type 'exceptions.BufferError'>, 'BytesWarning': <type 'exceptions.BytesWarning'>, 'DeprecationWarning': <type 'exceptions.DeprecationWarning'>, 'EOFError': <type 'exceptions.EOFError'>, 'Ellipsis': Ellipsis, 'EnvironmentError': <type 'exceptions.EnvironmentError'>, ...}"
p206
sS'HTML'
p207
S"<class 'gluon.html.HTML'>"
p208
sS'SQLFORM'
p209
S"<class 'gluon.sqlhtml.SQLFORM'>"
p210
sS'EM'
p211
S"<class 'gluon.html.EM'>"
p212
sS'redirect'
p213
S'<function redirect>'
p214
sS'FIELDSET'
p215
S"<class 'gluon.html.FIELDSET'>"
p216
sS'IS_EQUAL_TO'
p217
S"<class 'gluon.validators.IS_EQUAL_TO'>"
p218
sS'HEAD'
p219
S"<class 'gluon.html.HEAD'>"
p220
sS'embed64'
p221
S'<function embed64>'
p222
sS'IS_LIST_OF'
p223
S"<class 'gluon.validators.IS_LIST_OF'>"
p224
sS'__name__'
p225
S"'__restricted__'"
p226
sS'EMBED'
p227
S"<class 'gluon.html.EMBED'>"
p228
sS'configuration'
p229
S"{'host': {'names': 'localhost:*, 127.0.0.1:*, *:...': 'sqlite://storage.sqlite', 'pool_size': '10'}}"
p230
sS'FORM'
p231
S"<class 'gluon.html.FORM'>"
p232
sS'H2'
p233
S"<class 'gluon.html.H2'>"
p234
sS'H3'
p235
S"<class 'gluon.html.H3'>"
p236
sS'AppConfig'
p237
S'<function AppConfig>'
p238
sS'H1'
p239
S"<class 'gluon.html.H1'>"
p240
sS'H6'
p241
S"<class 'gluon.html.H6'>"
p242
sS'H4'
p243
S"<class 'gluon.html.H4'>"
p244
sS'H5'
p245
S"<class 'gluon.html.H5'>"
p246
sS'UL'
p247
S"<class 'gluon.html.UL'>"
p248
sS'IS_UPPER'
p249
S"<class 'gluon.validators.IS_UPPER'>"
p250
sS'xmlescape'
p251
S'<function xmlescape>'
p252
sS'IS_TIME'
p253
S"<class 'gluon.validators.IS_TIME'>"
p254
sS'OPTION'
p255
S"<class 'gluon.html.OPTION'>"
p256
sS'TITLE'
p257
S"<class 'gluon.html.TITLE'>"
p258
sS'CRYPT'
p259
S"<class 'gluon.validators.CRYPT'>"
p260
sS'IS_EMPTY_OR'
p261
S"<class 'gluon.validators.IS_EMPTY_OR'>"
p262
sS'MARKMIN'
p263
S"<class 'gluon.html.MARKMIN'>"
p264
sS'INPUT'
p265
S"<class 'gluon.html.INPUT'>"
p266
sS'STRONG'
p267
S"<class 'gluon.html.STRONG'>"
p268
sS'COL'
p269
S"<class 'gluon.html.COL'>"
p270
sS'SCRIPT'
p271
S"<class 'gluon.html.SCRIPT'>"
p272
sS'TABLE'
p273
S"<class 'gluon.html.TABLE'>"
p274
sS'IS_IPV4'
p275
S"<class 'gluon.validators.IS_IPV4'>"
p276
sS'IS_LENGTH'
p277
S"<class 'gluon.validators.IS_LENGTH'>"
p278
sS'IS_IPV6'
p279
S"<class 'gluon.validators.IS_IPV6'>"
p280
sS'XML'
p281
S"<class 'gluon.html.XML'>"
p282
sS'B'
S"<class 'gluon.html.B'>"
p283
sS'IMG'
p284
S"<class 'gluon.html.IMG'>"
p285
sS'SQLTABLE'
p286
S"<class 'gluon.sqlhtml.SQLTABLE'>"
p287
sS'IS_MATCH'
p288
S"<class 'gluon.validators.IS_MATCH'>"
p289
sS'IS_ALPHANUMERIC'
p290
S"<class 'gluon.validators.IS_ALPHANUMERIC'>"
p291
sS'SPAN'
p292
S"<class 'gluon.html.SPAN'>"
p293
sS'IS_JSON'
p294
S"<class 'gluon.validators.IS_JSON'>"
p295
sS'IS_IPADDRESS'
p296
S"<class 'gluon.validators.IS_IPADDRESS'>"
p297
sS'IS_SLUG'
p298
S"<class 'gluon.validators.IS_SLUG'>"
p299
sS'BEAUTIFY'
p300
S"<class 'gluon.html.BEAUTIFY'>"
p301
sS'META'
p302
S"<class 'gluon.html.META'>"
p303
sS'BUTTON'
p304
S"<class 'gluon.html.BUTTON'>"
p305
sS'IS_DATE'
p306
S"<class 'gluon.validators.IS_DATE'>"
p307
sS'IS_EMAIL'
p308
S"<class 'gluon.validators.IS_EMAIL'>"
p309
sS'IS_NOT_EMPTY'
p310
S"<class 'gluon.validators.IS_NOT_EMPTY'>"
p311
sS'xrange'
p312
S"<type 'xrange'>"
p313
sS'TBODY'
p314
S"<class 'gluon.html.TBODY'>"
p315
sS'CAT'
p316
S"<class 'gluon.html.CAT'>"
p317
sS'Field'
p318
S"<class 'pydal.objects.Field'>"
p319
sS'IS_LIST_OF_EMAILS'
p320
S"<class 'gluon.validators.IS_LIST_OF_EMAILS'>"
p321
sS'DIV'
p322
S"<class 'gluon.html.DIV'>"
p323
sS'LEGEND'
p324
S"<class 'gluon.html.LEGEND'>"
p325
sS'to_native'
p326
S'<function to_native>'
p327
sS'COLGROUP'
p328
S"<class 'gluon.html.COLGROUP'>"
p329
sS'DAL'
p330
S"<class 'pydal.base.DAL'>"
p331
sS'ASSIGNJS'
p332
S'<function ASSIGNJS>'
p333
sS'TR'
p334
S"<class 'gluon.html.TR'>"
p335
sS'__package__'
p336
S'None'
p337
sS'IFRAME'
p338
S"<class 'gluon.html.IFRAME'>"
p339
sS'TD'
p340
S"<class 'gluon.html.TD'>"
p341
sS'IS_URL'
p342
S"<class 'gluon.validators.IS_URL'>"
p343
sS'A'
S"<class 'gluon.html.A'>"
p344
sS'STYLE'
p345
S"<class 'gluon.html.STYLE'>"
p346
sS'IS_DATETIME_IN_RANGE'
p347
S"<class 'gluon.validators.IS_DATETIME_IN_RANGE'>"
p348
sS'IS_IMAGE'
p349
S"<class 'gluon.validators.IS_IMAGE'>"
p350
sS'I'
S"<class 'gluon.html.I'>"
p351
sS'IS_NOT_IN_DB'
p352
S"<class 'gluon.validators.IS_NOT_IN_DB'>"
p353
sg113
S"<Storage {'body': <cStringIO.StringO object at 0...cc856e0>, 'view': 'default/acesso_inicial.html'}>"
p354
sS'THEAD'
p355
S"<class 'gluon.html.THEAD'>"
p356
sS'ANY_OF'
p357
S"<class 'gluon.validators.ANY_OF'>"
p358
sS'IS_NULL_OR'
p359
S"<class 'gluon.validators.IS_EMPTY_OR'>"
p360
sS'IS_FLOAT_IN_RANGE'
p361
S"<class 'gluon.validators.IS_FLOAT_IN_RANGE'>"
p362
sS'IS_EXPR'
p363
S"<class 'gluon.validators.IS_EXPR'>"
p364
sS'IS_IN_SET'
p365
S"<class 'gluon.validators.IS_IN_SET'>"
p366
sS'IS_UPLOAD_FILENAME'
p367
S"<class 'gluon.validators.IS_UPLOAD_FILENAME'>"
p368
sS'IS_DECIMAL_IN_RANGE'
p369
S"<class 'gluon.validators.IS_DECIMAL_IN_RANGE'>"
p370
sS'TT'
p371
S"<class 'gluon.html.TT'>"
p372
sS'T'
S'<gluon.languages.translator object>'
p373
sssS'traceback'
p374
S'Traceback (most recent call last):\n  File "/home/rogoberto/web2py/gluon/restricted.py", line 219, in restricted\n    exec(ccode, environment)\n  File "/home/rogoberto/web2py/applications/aluminum/models/menu.py", line 15, in <module>\n    if auth_user.requires_membership(\'admin\'):\nNameError: name \'auth_user\' is not defined\n'
p375
s.