(dp1
S'output'
p2
S"<type 'exceptions.ZeroDivisionError'> float division by zero"
p3
sS'layer'
p4
S'/home/rogoberto/web2py/applications/aluminum/views/acs_relatorio/prestacao_venda.html'
p5
sS'code'
p6
S'response.write(\'<!DOCTYPE html>\\n<!--[if (gt IE 9)|!(IE)]><!--> <html class="no-js" lang="\', escape=False)\nresponse.write(T.accepted_language or \'en\')\nresponse.write(\'"> <!--<![endif]-->\\n  <head>\\n    <meta charset="utf-8">\\n    <!-- www.phpied.com/conditional-comments-block-downloads/ -->\\n    <!-- Always force latest IE rendering engine\\n         (even in intranet) & Chrome Frame\\n         Remove this if you use the .htaccess -->\\n    <meta http-equiv="X-UA-Compatible" content="IE=edge\', escape=False)\nresponse.write(not request.is_local and \',chrome=1\' or \'\')\nresponse.write(\'">\\n    <!--  Mobile Viewport Fix\\n          j.mp/mobileviewport & davidbcalhoun.com/2010/viewport-metatag\\n          device-width: Occupy full width of the screen in its current orientation\\n          initial-scale = 1.0 retains dimensions instead of zooming out if page height > device height\\n          user-scalable = yes allows the user to zoom in -->\\n    <meta name="viewport" content="width=device-width, initial-scale=1.0">\\n       <title>Aluminum System</title>\\n    <!-- http://dev.w3.org/html5/markup/meta.name.html -->\\n    <meta name="application-name" content="sistema credi\\xc3\\xa1rio panela">\\n    <!-- Speaking of Google, don\\\'t forget to set your site up:\\n         http://google.com/webmasters -->\\n    <meta name="google-site-verification" content="peneleiro Juazeiro, panela credi\\xc3\\xa1rio, sistema panela">\\n    <!-- include stylesheets -->\\n    <link rel="stylesheet" href="https://cdnjs.cloudflare.com/ajax/libs/font-awesome/4.7.0/css/font-awesome.min.css"/>\\n    <link rel="stylesheet" href="\', escape=False)\nresponse.write(URL(\'static\',\'css/bootstrap.min.css\'))\nresponse.write(\'"/>\\n    <link rel="stylesheet" href="\', escape=False)\nresponse.write(URL(\'static\',\'css/web2py-bootstrap4.css\'))\nresponse.write(\'"/>\\n    <link rel="shortcut icon" href="\', escape=False)\nresponse.write(URL(\'static\',\'images/ico.ico\'))\nresponse.write(\'" type="image/x-icon">\\n    <link rel="apple-touch-icon" href="\', escape=False)\nresponse.write(URL(\'static\',\'images/ico.png\'))\nresponse.write(\'">\\n    <!-- All JavaScript at the bottom, except for Modernizr which enables\\n         HTML5 elements & feature detects -->\\n    <script src="\', escape=False)\nresponse.write(URL(\'static\',\'js/modernizr-2.8.3.min.js\'))\nresponse.write(\'"></script>\\n    <!-- Favicons -->\\n    \', escape=False)\nresponse.write(\'<script type="text/javascript"><!--\\n    // These variables are used by the web2py_ajax_init function in web2py_ajax.js (which is loaded below).\\n    \', escape=False)\nresponse.write(ASSIGNJS(\nw2p_ajax_confirm_message = T(\'Are you sure you want to delete this object?\'),\nw2p_ajax_disable_with_message = T(\'Working...\'),\nw2p_ajax_date_format = T(\'%Y-%m-%d\'),\nw2p_ajax_datetime_format = T(\'%Y-%m-%d %H:%M:%S\'),\najax_error_500 = T.M(\'An error occured, please [[reload %s]] the page\') % URL(args=request.args, vars=request.get_vars)\n))\nresponse.write(\'\\n    //--></script>\\n\', escape=False)\nresponse.files.insert(0,URL(\'static\',\'js/jquery.js\'))\nresponse.files.insert(1,URL(\'static\',\'css/calendar.css\'))\nresponse.files.insert(2,URL(\'static\',\'js/calendar.js\'))\nresponse.files.insert(3,URL(\'static\',\'js/web2py.js\'))\nresponse.include_meta()\nresponse.include_files()\nresponse.write(\'\\n\', escape=False)\nresponse.write(\' <!-- this includes jquery.js, calendar.js/.css and web2py.js -->\\n    \', escape=False)\nresponse.write(\'\\n  </head>\\n  <body>\\n      \\n        <style  type="text/css">\\n    @media print{\\n        .btn{\\n             display: none;\\n        }\\n        #noprint { display:none; } \\n      a:link{font:15px "verdana"; color:#8B4513; text-decoration:none;}\\n\\na:hover{font:20px "verdana"; color:black; text-decoration:underline;}\\n    }\\n      </style>\\n    <div class="w2p_flash alert alert-dismissable">\', escape=False)\nresponse.write(response.flash or \'\')\nresponse.write(\'</div>\\n    <!-- Navbar ======================================= -->\\n    <nav class="navbar navbar-light navbar-expand-md bg-faded justify-content-center">\\n        <a class="navbar-brand" href="https://rogoberto.pythonanywhere.com/aluminum/#acesso">Aluminum</a>\\n       <button class="navbar-toggler" type="button" data-toggle="collapse" data-target="#navbarNavDropdown" aria-controls="navbarNavDropdown" aria-expanded="false" aria-label="Toggle navigation">\\n         <span class="navbar-toggler-icon"></span>\\n       </button>\\n       <div class="navbar-collapse collapse w-100" id="navbarNavDropdown">\\n         <ul class="navbar-nav w-100 justify-content-center">\\n          \', escape=False)\nfor _item in response.menu or []:\n    response.write(\'\\n          \', escape=False)\n    if len(_item)<4 or not _item[3]:\n        response.write(\'\\n          <li class="nav-item \', escape=False)\n        if _item[1]:\n            response.write(\'active\', escape=False)\n            pass\n        response.write(\'">\\n            <a class="nav-link" href="\', escape=False)\n        response.write(_item[2])\n        response.write(\'">\', escape=False)\n        response.write(_item[0])\n        response.write(\'</a>\\n          </li>\\n          \', escape=False)\n    else:\n        response.write(\'\\n          <li class="nav-item dropdown">\\n            <a class="nav-link dropdown-toggle" href="\', escape=False)\n        response.write(_item[2])\n        response.write(\'" data-toggle="dropdown" aria-haspopup="true" aria-expanded="false">\', escape=False)\n        response.write(_item[0])\n        response.write(\'</a>\\n            <div class="dropdown-menu">\\n              \', escape=False)\n        for _subitem in _item[3]:\n            response.write(\'\\n              <a class="dropdown-item" href="\', escape=False)\n            response.write(_subitem[2])\n            response.write(\'">\', escape=False)\n            response.write(_subitem[0])\n            response.write(\'</a>\\n              \', escape=False)\n            pass\n        response.write(\'\\n            </div>\\n          </li>\\n          \', escape=False)\n        pass\n    response.write(\'\\n          \', escape=False)\n    pass\nresponse.write(\'\\n        </ul>\\n\\n        \', escape=False)\nif \'auth\' in globals():\n    response.write(\'\\n        <ul class="nav navbar-nav ml-auto w-100 justify-content-end">\\n          <li class="nav-item dropdown">\\n            <a class="nav-link dropdown-toggle" href="#" data-toggle="dropdown" aria-haspopup="true" aria-expanded="false">\\n              \', escape=False)\n    if auth.user:\n        response.write(auth.user.first_name)\n    else:\n        response.write(\'LOGIN\', escape=False)\n        pass\n    response.write(\'\\n            </a>\\n            <div class="dropdown-menu dropdown-menu-right">\\n              \', escape=False)\n    if auth.user:\n        response.write(\'\\n              <a class="dropdown-item" href="\', escape=False)\n        response.write(URL(\'default\',\'user/profile\'))\n        response.write(\'">\', escape=False)\n        response.write(T(\'Profile\'))\n        response.write(\'</a>\\n              \', escape=False)\n        if \'change_password\' not in auth.settings.actions_disabled:\n            response.write(\'\\n              <a class="dropdown-item" href="\', escape=False)\n            response.write(URL(\'default\',\'user/change_password\'))\n            response.write(\'">\', escape=False)\n            response.write(T(\'Change Password\'))\n            response.write(\'</a>\\n              \', escape=False)\n            pass\n        response.write(\'\\n              <a class="dropdown-item" href="\', escape=False)\n        response.write(URL(\'default\',\'user/logout\'))\n        response.write(\'">\', escape=False)\n        response.write(T(\'Logout\'))\n        response.write(\'</a>\\n              \', escape=False)\n    else:\n        response.write(\'\\n              <a class="dropdown-item" href="\', escape=False)\n        response.write(URL(\'default\',\'user/login\'))\n        response.write(\'">\', escape=False)\n        response.write(T(\'Login\'))\n        response.write(\'</a>\\n              \', escape=False)\n        if \'register\' not in auth.settings.actions_disabled:\n            response.write(\'\\n              <a class="dropdown-item" href="\', escape=False)\n            response.write(URL(\'default\',\'user/register\'))\n            response.write(\'">\', escape=False)\n            response.write(T(\'Sign up\'))\n            response.write(\'</a>\\n              \', escape=False)\n            pass\n        response.write(\'\\n              \', escape=False)\n        if \'retrieve_password\' not in auth.settings.actions_disabled:\n            response.write(\'\\n              <a class="dropdown-item" href="\', escape=False)\n            response.write(URL(\'default\',\'user/retrieve_password\'))\n            response.write(\'">\', escape=False)\n            response.write(T(\'Lost Password\'))\n            response.write(\'</a>\\n              \', escape=False)\n            pass\n        response.write(\'\\n              \', escape=False)\n        pass\n    response.write(\'\\n            </div>\\n          </li>\\n        </ul>\\n        \', escape=False)\n    pass\nresponse.write(\'\\n      </div>\\n    </nav>\\n\\n    <!-- Masthead ===================================== -->\\n    \', escape=False)\nresponse.write(\'\\n<header class="header container-fluid d-none d-print-block">\\n     <div class="row">\\n        <div class="col-md-12">\\n          <div class="copyright pull-left">Aluminum System</div>\\n          <div id="poweredBy" class="pull-right">\\n            Gest\\xc3\\xa3o de vendas e cobran\\xc3\\xa7as artefatos de aluminio\\n            \\n          </div>\\n        </div>\\n      </div>\\n</header>\\n    \', escape=False)\nresponse.write(\'\\n    <!-- Main ========================================= -->\\n    <!-- Begin page content -->\\n    <div class="container-fluid main-container">\\n      \', escape=False)\nresponse.write(\'\\n\\n\\n<div class="py-5" >\\n    <div class="container">\\n        <div class="row">\\n        <div class="col-md-12">\\n          <h5 class="">Presta\\xc3\\xa7\\xc3\\xa3o de Contas ( \', escape=False)\nresponse.write(projeto.descricao)\nresponse.write(\' )</h5>\\n        </div>\\n      </div>\\n      <div class="row">\\n        <div class="col-md-12">\\n          <a class="btn btn-link" href="\', escape=False)\nresponse.write(URL(\'acs_projeto\',\'index\', args=projeto.id))\nresponse.write(\'" style="color:#3b5998"><i class="fa fa-fw fa-1x py-1 fa-arrow-left"></i> Voltar</a>\\n          <a class="btn btn-link" href="\', escape=False)\nresponse.write(URL(\'alterar_ent_said\', args=projeto.id))\nresponse.write(\'" style="color:#3b5998"><i class="fa fa-fw fa-1x py-1 fa-cog"></i> Alterar Dados Principais</a>\\n        </div>\\n      </div>\\n        <div class="row">\\n            <div class="col-md-6">\\n                <p class="d-flex justify-content-between mb-3"> <span><b>Informa\\xc3\\xa7\\xc3\\xb5es Mercadoria</b></span> </p>\\n                <ul class="list-group">\\n                    <li class="list-group-item d-flex justify-content-between">\\n                        <div>\', escape=False)\nvenda_vista=0.0\nresponse.write(\'\\n                            <h6 class="my-0"><b>Total Mercadoria&nbsp;</b></h6> <small class="text-muted">\', escape=False)\nresponse.write(projeto.total_pecas_mercadoria)\nresponse.write(\' Pe\\xc3\\xa7as</small>\\n                        </div> <span class="text-muted">R$ \', escape=False)\nresponse.write("{:,}".format(round(projeto.total_preco_mercadoria)).replace(",","."))\nresponse.write(\'0</span>\\n                    </li>\\n                    \', escape=False)\nvenda_vista=projeto.total_preco_mercadoria\nresponse.write(\'\\n                    <li class="list-group-item d-flex justify-content-between">\\n                        <div>\\n                            <h6 class="my-0"><i class="fa text-primary fa-arrow-right"></i> <b>Total Retorno</b></h6> <small class="text-muted">\', escape=False)\nresponse.write(projeto.total_pecas_retorno)\nresponse.write(\' Pe\\xc3\\xa7as</small>\\n                        </div> <span class="text-muted">R$ \', escape=False)\nresponse.write("{:,}".format(round(projeto.total_preco_retorno)).replace(",","."))\nresponse.write(\'0</span>\\n                    </li>\\n                    \', escape=False)\nvenda_vista-=projeto.total_preco_retorno\nresponse.write(\'\\n                    <li class="list-group-item d-flex justify-content-between">\\n                        <div>\\n                            <h6 class="my-0"><i class="fa text-warning fa-arrow-right"></i> <b>Total Gratifica\\xc3\\xa7\\xc3\\xa3o</b></h6> <small class="text-muted">\', escape=False)\nresponse.write(projeto.total_pecas_gratificacao)\nresponse.write(\' Pe\\xc3\\xa7as</small>\\n                        </div> <span class="text-muted">R$ \', escape=False)\nresponse.write("{:,}".format(round(projeto.total_preco_gratificacao)).replace(",","."))\nresponse.write(\'0</span>\\n                    </li>\\n                    \', escape=False)\nvenda_vista-=projeto.total_preco_gratificacao\nresponse.write(\'\\n                    <li class="list-group-item d-flex justify-content-between">\\n                        <div>\\n                            <h6 class="my-0"><i class="fa text-danger fa-arrow-right"></i> <b>Total Refugo</b></h6> <small class="text-muted">\', escape=False)\nresponse.write(projeto.total_pecas_refugo)\nresponse.write(\' Pe\\xc3\\xa7as</small>\\n                        </div> <span class="text-muted">R$ \', escape=False)\nresponse.write("{:,}".format(round(projeto.total_preco_refugo)).replace(",","."))\nresponse.write(\'0</span>\\n                    </li>\\n                    \', escape=False)\nvenda_vista-=projeto.total_preco_refugo\nresponse.write(\'\\n                    <li class="list-group-item d-flex justify-content-between">\\n                        <div>\\n                            <h6 class="my-0"><b>Total Venda \\xc3\\xa0 Prazo</b></h6> <small class="text-muted">\', escape=False)\nresponse.write(projeto.quant_fichas_venda)\nresponse.write(\' Fichas</small>\\n                        </div> <span class="text-muted">R$ \', escape=False)\nresponse.write("{:,}".format(round(projeto.total_venda_prazo)).replace(",","."))\nresponse.write(\'0</span>\\n                    </li>\\n                    \', escape=False)\nvenda_vista-=projeto.total_venda_prazo\nresponse.write(\'\\n                    <li class="list-group-item d-flex justify-content-between">\\n                        <div>\\n\\n                            <h6 class="my-0"><b>Total Venda \\xc3\\xa0 Vista</b></h6> <small class="text-muted">R$ \', escape=False)\nresponse.write("{:,}".format(round(projeto.total_venda_vista)).replace(",","."))\nresponse.write(\'0</small>\\n                        </div> <span class="text-muted">R$ \', escape=False)\nresponse.write("{:,}".format(round(projeto.total_venda_vista*2)).replace(",","."))\nresponse.write(\'0</span>\\n                    </li>\\n                    \', escape=False)\nvenda_vista-=(projeto.total_venda_vista*2)\nresponse.write(\'\\n                    \', escape=False)\nmedia_pecas=0\nresponse.write(\'\\n                    \', escape=False)\nif (projeto.total_preco_mercadoria!=0) and (projeto.total_pecas_mercadoria!=0):\n    response.write(\'\\n                    \', escape=False)\n    media_pecas=projeto.total_preco_mercadoria/projeto.total_pecas_mercadoria\n    response.write(\'\\n                    \', escape=False)\n    pass\nresponse.write(\'\\n                    \', escape=False)\nif venda_vista!=0:\n    response.write(\'\\n                    <li class="list-group-item d-flex justify-content-between">\\n                        \\n                            \', escape=False)\n    if venda_vista>0:\n        response.write(\'\\n                            \', escape=False)\n        media_pecas=venda_vista/media_pecas\n        response.write(\'\\n                            \', escape=False)\n        pass\n    response.write(\'\\n                            \', escape=False)\n    if venda_vista>0:\n        response.write(\'\\n                        <div class="text-danger">\\n                            <h6 class="my-0"><b>Difer\\xc3\\xaan\\xc3\\xa7a Mercadoria</b></h6> \\n                            <small class="text-muted">M\\xc3\\xa9dia de \', escape=False)\n        response.write("{:,}".format(round(media_pecas,0)).replace(".0",""))\n        response.write(\' Pe\\xc3\\xa7as Faltaram</small>\\n                        </div> <span class="text-muted">R$ \', escape=False)\n        response.write("{:,}".format(round(venda_vista)).replace(",","."))\n        response.write(\'0</span>\\n                        \\n                        \', escape=False)\n    else:\n        response.write(\'\\n                        \\n                            <div class="text-danger">\\n                            <h6 class="my-0 text-danger"><b>Erro!! </b><span class="text-dark">(R$ \', escape=False)\n        response.write("{:,}".format(round((venda_vista-projeto.total_preco_mercadoria)*-1)).replace(",","."))\n        response.write(\'0)</span></h6> \\n                            <small class="text-danger">Apresentando mais mercadoria do que levou</small>\\n                        </div> \\n                        <h6 class="text-danger">R$ \', escape=False)\n        response.write("{:,}".format(round(venda_vista)).replace(",","."))\n        response.write(\'0</h6>\\n                        \\n                        \', escape=False)\n        pass\n    response.write(\'\\n                    </li>\\n                    \', escape=False)\n    pass\nresponse.write(\'\\n                    <br>\\n                    <p class="d-flex justify-content-between mb-3"> <span><b>Dinheiro da Viagem</b></span> </p>\\n                    <li class="list-group-item d-flex justify-content-between bg-light">\\n                        <div class="text-success">\\n                            <h6 class="my-0"><b>Venda \\xc3\\xa0 Vista</b></h6> <small>R$ \', escape=False)\nresponse.write("{:,}".format(round(projeto.total_venda_vista*2)).replace(",","."))\nresponse.write(\'0 Mercadoria&nbsp;</small>\\n\\n                        </div> <span class="text-success">R$ \', escape=False)\nresponse.write("{:,}".format(round(projeto.total_venda_vista)).replace(",","."))\nresponse.write(\'0</span>\\n                    </li>\\n\\n                    <li class="list-group-item d-flex justify-content-between">\\n                        <div>\', escape=False)\nvenda_vista=projeto.total_venda_vista+projeto.adiantamento\nresponse.write(\'\\n                            <h6 class="my-0">Adiantamento</h6>\\n                        </div> <span class="text-muted">R$ \', escape=False)\nresponse.write("{:,}".format(round(projeto.adiantamento)).replace(",","."))\nresponse.write(\'0</span>\\n                    </li>\\n                    \', escape=False)\nif projeto.total_entradas_venda>0:\n    response.write(\'\\n                    <li class="list-group-item d-flex justify-content-between">\\n                        <div>\', escape=False)\n    venda_vista+=projeto.total_entradas_venda\n    response.write(\'\\n                            <h6 class="my-0">Entradas da Venda</h6>\\n                        </div> <span class="text-muted">R$ \', escape=False)\n    response.write("{:,}".format(round(projeto.total_entradas_venda)).replace(",","."))\n    response.write(\'0</span>\\n                    </li>\\n                    \', escape=False)\n    pass\nresponse.write(\'\\n                    \', escape=False)\nif projeto.total_acrescentado_dinheiro>0:\n    response.write(\'\\n                    <li class="list-group-item d-flex justify-content-between">\\n                        <div>\', escape=False)\n    venda_vista+=projeto.total_acrescentado_dinheiro\n    response.write(\'\\n                            <h6 class="my-0">Dinheiro acrescentado</h6>\\n                        </div> <span class="text-muted">R$ \', escape=False)\n    response.write("{:,}".format(round(projeto.total_acrescentado_dinheiro)).replace(",","."))\n    response.write(\'0</span>\\n                    </li>\\n                    \', escape=False)\n    pass\nresponse.write(\'\\n                    <li class="list-group-item d-flex justify-content-between"> <span><b>Total do Dinheiro da Viagem</b></span> <b contenteditable="true">R$ \', escape=False)\nresponse.write("{:,}".format(round(venda_vista)).replace(",","."))\nresponse.write(\'0</b> </li>\\n                </ul>\\n                <br>\\n                <p class="d-flex justify-content-between mb-3"> <span><b>Valor Apresentado</b></span> </p>\\n                <ul class="list-group">\\n                    <li class="list-group-item d-flex justify-content-between">\\n                        <div>\\n                            \', escape=False)\npercent=0\nresponse.write(\'\\n                            \', escape=False)\nif projeto.total_despesa_venda>0 and projeto.total_venda_prazo>0:\n    response.write(\'\\n                            \', escape=False)\n    percent=projeto.total_despesa_venda/projeto.total_venda_prazo*100\n    response.write(\'\\n                            \', escape=False)\n    pass\nresponse.write(\'\\n                            <h6 class="my-0 text-danger"><b>Total Despesa</b></h6><b> <small class="text-danger">\', escape=False)\nresponse.write("{:,}".format(round(percent,1)).replace(",","."))\nresponse.write(\'%</small>\\n                            </b>\', escape=False)\ndinheiro_presente=projeto.total_despesa_venda\nresponse.write(\'\\n                        </div><b> <span class="text-danger">R$ \', escape=False)\nresponse.write("{:,}".format(round(projeto.total_despesa_venda,1)).replace(",","."))\nresponse.write(\'0</span></b>\\n                    </li>\\n                    <li class="list-group-item d-flex justify-content-between">\\n                        <div>\\n                            <h6 class="my-0">Vale da Viagem Vendedor</h6> \\n                        </div> <span class="text-muted">R$ \', escape=False)\nresponse.write("{:,}".format(round(projeto.total_caderno_vendedor)).replace(",","."))\nresponse.write(\'0</span></b>\\n                </li></span>\', escape=False)\ndinheiro_presente+=projeto.total_caderno_vendedor\nresponse.write(\'\\n        </li>\\n    <li class="list-group-item d-flex justify-content-between">\\n        <div>\\n            <h6 class="my-0">Vale da Viagem Funcionario</h6> \\n        </div> <span class="text-muted">R$ \', escape=False)\nresponse.write("{:,}".format(round(projeto.total_caderno_funcionario)).replace(",","."))\nresponse.write(\'0</span></b>\\n</li></span>\', escape=False)\ndinheiro_presente+=projeto.total_caderno_funcionario\nresponse.write(\'\\n</li>\\n<li class="list-group-item d-flex justify-content-between">\\n    <div>\\n        <h6 class="my-0">Vale da Viagem Chefe</h6> \\n    </div> <span class="text-muted">R$ \', escape=False)\nresponse.write("{:,}".format(round(projeto.total_caderno_chefe)).replace(",","."))\nresponse.write(\'0</span></b>\\n</li></span>\', escape=False)\ndinheiro_presente+=projeto.total_caderno_chefe\nresponse.write(\'\\n</li>\\n\', escape=False)\nif projeto.total_devolucao_dinheiro>0:\n    response.write(\'\\n<li class="list-group-item d-flex justify-content-between">\\n    <div>\\n        \', escape=False)\n    if projeto.empresa==3:\n        response.write(\'\\n                  <h6 class="my-0">Dep\\xc3\\xb3sitos</h6>\\n                    \', escape=False)\n    else:\n        response.write(\'\\n                  <h6 class="my-0">Dinheiro Devolvido</h6>\\n                    \', escape=False)\n        pass\n    response.write(\'\\n    </div> <span class="text-muted">R$ \', escape=False)\n    response.write("{:,}".format(round(projeto.total_devolucao_dinheiro)).replace(",","."))\n    response.write(\'0</span>\\n</li>\', escape=False)\n    dinheiro_presente+=projeto.total_devolucao_dinheiro\n    response.write(\'\\n\', escape=False)\n    pass\nresponse.write(\'\\n    <li class="list-group-item d-flex justify-content-between"> <span><b>Dinheiro Apresentado</b></span> <b contenteditable="true">R$ \', escape=False)\nresponse.write("{:,}".format(round(dinheiro_presente)).replace(",","."))\nresponse.write(\'0</b> </li>\\n\\n\\n<br>\\n\', escape=False)\ndiferencaprest=venda_vista-dinheiro_presente\nresponse.write(\'\\n<li class="list-group-item d-flex justify-content-between bg-light">\\n    \', escape=False)\nif diferencaprest>=0:\n    response.write(\'\\n    <div class="text-success">\\n        <h6 class="my-0"><b class="text-danger">Difer\\xc3\\xaan\\xc3\\xa7a da Presta\\xc3\\xa7\\xc3\\xa3o</b></h6> \\n    </div> <span class="text-danger">R$ \', escape=False)\n    response.write("{:,}".format(round(diferencaprest)).replace(",","."))\n    response.write(\'0</span>\\n    \', escape=False)\nelse:\n    response.write(\'\\n    <div class="text-success">\\n        <h3 class="my-0"><b class="text-danger">Esta errado - Sobrando dinheiro</b></h3>\\n        \', escape=False)\n    pass\nresponse.write(\'\\n        </li>\\n</ul><br>\\n</div>\\n\\n\\n\\n\\n\\n\\n\\n\\n\\n\\n\\n\\n<div class="col-md-6">\\n    <p class="d-flex justify-content-between mb-3"> <span><b>Saldo Chefe (\', escape=False)\nresponse.write(projeto.nome_chefe)\nresponse.write(\')</b></span> </p>\\n    <ul class="list-group">\\n        <li class="list-group-item d-flex justify-content-between">\\n            <div>\', escape=False)\nsaldoq=0\nresponse.write(\'\\n                <h6 class="my-0">Comiss\\xc3\\xa3o Venda \\xc3\\xa0 Praso</h6> <small class="text-muted">R$ \', escape=False)\nresponse.write("{:,}".format(round(projeto.total_venda_prazo)).replace(",","."))\nresponse.write(\'0 - \', escape=False)\nresponse.write(projeto.comissao_praso)\nresponse.write(\'%</small>\\n                \', escape=False)\ncomissaop=0\nresponse.write(\'\\n                \', escape=False)\nif projeto.total_venda_prazo>0:\n    response.write(\'\\n                \', escape=False)\n    comissaop=projeto.total_venda_prazo*projeto.comissao_praso/100\n    response.write(\'\\n                \', escape=False)\n    pass\nresponse.write(\'\\n            </div> <span class="text-muted">R$ \', escape=False)\nresponse.write("{:,}".format(round(comissaop)).replace(",","."))\nresponse.write(\'0</span>\\n        </li>\', escape=False)\nsaldoq+=comissaop\nresponse.write(\'\\n        \', escape=False)\ncomissaov=0\nresponse.write(\'\\n        \', escape=False)\nif projeto.comissao_vista>0:\n    response.write(\'\\n        <li class="list-group-item d-flex justify-content-between">\\n            <div>\\n                <h6 class="my-0">Comiss\\xc3\\xa3o Venda \\xc3\\xa0 Vista</h6> <small class="text-muted">R$ \', escape=False)\n    response.write("{:,}".format(round(projeto.total_venda_vista)).replace(",","."))\n    response.write(\'0 - \', escape=False)\n    response.write(projeto.comissao_vista)\n    response.write(\'%</small>\\n                \', escape=False)\n    comissaov=0\n    response.write(\'\\n                \', escape=False)\n    if projeto.total_venda_vista>0:\n        response.write(\'\\n                \', escape=False)\n        comissaov=projeto.total_venda_vista*projeto.comissao_vista/100\n        response.write(\'\\n                \', escape=False)\n        pass\n    response.write(\'\\n                \', escape=False)\n    saldoq+=comissaov\n    response.write(\'\\n            </div> <span class="text-muted">R$ \', escape=False)\n    response.write("{:,}".format(round(comissaov)).replace(",","."))\n    response.write(\'0</span>\\n        </li>\\n        \', escape=False)\n    pass\nresponse.write(\'\\n        <li class="list-group-item d-flex justify-content-between bg-light">\\n            <div class="text-success">\\n                <h6 class="my-0">Total Comiss\\xc3\\xa3o<br></h6> \\n            </div> <span class="text-success">R$ \', escape=False)\nresponse.write("{:,}".format(round(saldoq)).replace(",","."))\nresponse.write(\'0</span>\\n        </li>\\n        <br>\\n        \\n        <li class="list-group-item d-flex justify-content-between">\\n            <div>\\n                <h6 class="my-0">Vale Saida</h6> <small class="text-muted">Dinheiro pego com a empresa</small>\\n            </div> <span class="text-muted">R$ \', escape=False)\nresponse.write("{:,}".format(round(projeto.vale_saida)).replace(",","."))\nresponse.write(\'0</span>\\n        </li>\\n         <li class="list-group-item d-flex justify-content-between">\\n            <div>\\n                <h6 class="my-0">Vale Caderno</h6> <small class="text-muted">Dinheiro pego na viagem</small>\\n            </div> <span class="text-muted">R$ \', escape=False)\nresponse.write("{:,}".format(round(projeto.total_caderno_chefe)).replace(",","."))\nresponse.write(\'0</span>\\n        </li>\', escape=False)\nsaldoq-=projeto.vale_saida+projeto.total_caderno_chefe\nresponse.write(\'\\n       <li class="list-group-item d-flex justify-content-between">\\n            <div>\\n                <h6 class="my-0">Difer\\xc3\\xaan\\xc3\\xa7a Presta\\xc3\\xa7\\xc3\\xa3o</h6> \\n            </div> <span class="text-muted">R$ \', escape=False)\nresponse.write("{:,}".format(round(diferencaprest)).replace(",","."))\nresponse.write(\'0</span>\\n        </li>\', escape=False)\nsaldoq-=diferencaprest\nresponse.write(\'\\n        <li class="list-group-item d-flex justify-content-between bg-light">\\n            \', escape=False)\nif saldoq>0:\n    response.write(\'\\n            <div class="text-success">\\n                <h6 class="my-0"><b class="text-success">Saldo Chefe</b></h6>\\n            </div> <span class="text-success">R$ \', escape=False)\n    response.write("{:,}".format(round(saldoq)).replace(",","."))\n    response.write(\'0</span>\\n            \', escape=False)\n    projeto.total_saldo_chefe=saldoq\n    response.write(\'\\n            \', escape=False)\n    projeto.total_debito_chefe=0\n    response.write(\'\\n\\n            \\n            \', escape=False)\nelse:\n    response.write(\'\\n            <div class="text-danger">\\n                <h6 class="my-0"><b class="text-danger">Saldo Negativo</b></h6>\\n            </div> <span class="text-danger">R$ \', escape=False)\n    response.write("{:,}".format(round(saldoq)).replace(",","."))\n    response.write(\'0</span>\\n            \', escape=False)\n    projeto.total_debito_chefe=saldoq\n    response.write(\'\\n            \', escape=False)\n    projeto.total_saldo_chefe=0\n    response.write(\'\\n            \', escape=False)\n    pass\nresponse.write(\'\\n\', escape=False)\nprojeto.update_record()\nresponse.write(\'\\n        </li>\\n        \\n    </ul>\\n</div></div></div></div>\\n\', escape=False)\nresponse.write(\'\\n      \', escape=False)\nresponse.write(response.toolbar() if response.show_toolbar else \'\')\nresponse.write(\'\\n    </div>\\n    \', escape=False)\nresponse.write(\' <!-- this is default footer -->\\n    <footer id="noprint" class="footer container-fluid ">\\n      <div class="row">\\n        <div class="col-md-12">\\n          <div class="copyright pull-left">\', escape=False)\nresponse.write(T(\'Copyright\'))\nresponse.write(\' &#169; \', escape=False)\nresponse.write(request.now.year)\nresponse.write(\'</div>\\n          <div id="poweredBy" class="pull-right">\\n              Suporte <a href="https://api.whatsapp.com/send?phone=5588981126816">(88)98112-6816</a>\\n            </div>\\n        </div>\\n      </div>\\n    </footer>\\n <footer class="footer container-fluid d-none d-print-block">\\n      <div class="row">\\n        <div class="col-md-12">\\n          <div class="copyright pull-left">Suporte - (88)98112-6816</div>\\n          <div id="poweredBy" class="pull-right">\\n             \', escape=False)\nif auth.user:\n    response.write(auth.user.first_name)\n    response.write(\' \', escape=False)\n    response.write(auth.user.last_name)\nelse:\n    response.write(\'Aluminum System\', escape=False)\n    pass\nresponse.write(\'\\n          </div>\\n        </div>\\n      </div>\\n    </footer>\\n    \', escape=False)\nresponse.write(\'\\n    <!-- The javascript =============================== -->\\n    <script src="\', escape=False)\nresponse.write(URL(\'static\',\'js/bootstrap.bundle.min.js\'))\nresponse.write(\'"></script>\\n    <script src="\', escape=False)\nresponse.write(URL(\'static\',\'js/web2py-bootstrap4.js\'))\nresponse.write(\'"></script>\\n    \', escape=False)\nresponse.write(\'\\n    \', escape=False)\nif response.google_analytics_id:\n    response.write(\'\\n    <!-- Analytics ==================================== -->\\n    <script src="\', escape=False)\n    response.write(URL(\'static\',\'js/analytics.min.js\'))\n    response.write(\'"></script>\\n    <script type="text/javascript">\\n      analytics.initialize({\\n      \\\'Google Analytics\\\':{trackingId:\\\'\', escape=False)\n    response.write(response.google_analytics_id)\n    response.write("\'}\\n      });\\n    </script>\\n    ", escape=False)\n    pass\nresponse.write(\'\\n  </body>\\n</html>\\n\', escape=False)'
p7
sS'snapshot'
p8
(dp9
S'exception'
p10
(dp11
S'__getslice__'
p12
S"<method-wrapper '__getslice__' of exceptions.ZeroDivisionError object>"
p13
sS'__str__'
p14
S"<method-wrapper '__str__' of exceptions.ZeroDivisionError object>"
p15
sS'__reduce__'
p16
S'<built-in method __reduce__ of exceptions.ZeroDivisionError object>'
p17
sS'__dict__'
p18
S'{}'
p19
sS'message'
p20
S"'float division by zero'"
p21
sS'__sizeof__'
p22
S'<built-in method __sizeof__ of exceptions.ZeroDivisionError object>'
p23
sS'__init__'
p24
S"<method-wrapper '__init__' of exceptions.ZeroDivisionError object>"
p25
sS'__setattr__'
p26
S"<method-wrapper '__setattr__' of exceptions.ZeroDivisionError object>"
p27
sS'__reduce_ex__'
p28
S'<built-in method __reduce_ex__ of exceptions.ZeroDivisionError object>'
p29
sS'__new__'
p30
S'<built-in method __new__ of type object>'
p31
sS'__format__'
p32
S'<built-in method __format__ of exceptions.ZeroDivisionError object>'
p33
sS'__class__'
p34
S"<type 'exceptions.ZeroDivisionError'>"
p35
sS'__doc__'
p36
S"'Second argument to a division or modulo operation was zero.'"
p37
sS'__getitem__'
p38
S"<method-wrapper '__getitem__' of exceptions.ZeroDivisionError object>"
p39
sS'__setstate__'
p40
S'<built-in method __setstate__ of exceptions.ZeroDivisionError object>'
p41
sS'__getattribute__'
p42
S"<method-wrapper '__getattribute__' of exceptions.ZeroDivisionError object>"
p43
sS'args'
p44
S"('float division by zero',)"
p45
sS'__subclasshook__'
p46
S'<built-in method __subclasshook__ of type object>'
p47
sS'__unicode__'
p48
S'<built-in method __unicode__ of exceptions.ZeroDivisionError object>'
p49
sS'__delattr__'
p50
S"<method-wrapper '__delattr__' of exceptions.ZeroDivisionError object>"
p51
sS'__repr__'
p52
S"<method-wrapper '__repr__' of exceptions.ZeroDivisionError object>"
p53
sS'__hash__'
p54
S"<method-wrapper '__hash__' of exceptions.ZeroDivisionError object>"
p55
ssS'evalue'
p56
S'float division by zero'
p57
sS'request'
p58
cgluon.html
XML_unpickle
p59
(S's?\\\x00\x00<div><table><tr><td style="font-weight:bold;vertical-align:top;">ajax</td><td style="vertical-align:top;">:</td><td><div>False</div></td></tr><tr><td style="font-weight:bold;vertical-align:top;">application</td><td style="vertical-align:top;">:</td><td><div>aluminum</div></td></tr><tr><td style="font-weight:bold;vertical-align:top;">args</td><td style="vertical-align:top;">:</td><td><div><table><tr><td><div>87</div></td></tr></table></div></td></tr><tr><td style="font-weight:bold;vertical-align:top;">cid</td><td style="vertical-align:top;">:</td><td><div>None</div></td></tr><tr><td style="font-weight:bold;vertical-align:top;">client</td><td style="vertical-align:top;">:</td><td><div>177.126.64.84</div></td></tr><tr><td style="font-weight:bold;vertical-align:top;">controller</td><td style="vertical-align:top;">:</td><td><div>acs_relatorio</div></td></tr><tr><td style="font-weight:bold;vertical-align:top;">cookies</td><td style="vertical-align:top;">:</td><td><div><table><tr><td style="font-weight:bold;vertical-align:top;">session_id_admin</td><td style="vertical-align:top;">:</td><td><div>177.126.64.84-287653bc-b0fa-4a36-be84-6dcb9648c785<table><tr><td style="font-weight:bold;vertical-align:top;">comment</td><td style="vertical-align:top;">:</td><td><div></div></td></tr><tr><td style="font-weight:bold;vertical-align:top;">domain</td><td style="vertical-align:top;">:</td><td><div></div></td></tr><tr><td style="font-weight:bold;vertical-align:top;">expires</td><td style="vertical-align:top;">:</td><td><div></div></td></tr><tr><td style="font-weight:bold;vertical-align:top;">httponly</td><td style="vertical-align:top;">:</td><td><div></div></td></tr><tr><td style="font-weight:bold;vertical-align:top;">max-age</td><td style="vertical-align:top;">:</td><td><div></div></td></tr><tr><td style="font-weight:bold;vertical-align:top;">path</td><td style="vertical-align:top;">:</td><td><div></div></td></tr><tr><td style="font-weight:bold;vertical-align:top;">secure</td><td style="vertical-align:top;">:</td><td><div></div></td></tr><tr><td style="font-weight:bold;vertical-align:top;">version</td><td style="vertical-align:top;">:</td><td><div></div></td></tr></table></div></td></tr><tr><td style="font-weight:bold;vertical-align:top;">session_id_aluminum</td><td style="vertical-align:top;">:</td><td><div>177.126.64.84-36425fc6-b269-4be1-9f67-246a65a8ccd1<table><tr><td style="font-weight:bold;vertical-align:top;">comment</td><td style="vertical-align:top;">:</td><td><div></div></td></tr><tr><td style="font-weight:bold;vertical-align:top;">domain</td><td style="vertical-align:top;">:</td><td><div></div></td></tr><tr><td style="font-weight:bold;vertical-align:top;">expires</td><td style="vertical-align:top;">:</td><td><div></div></td></tr><tr><td style="font-weight:bold;vertical-align:top;">httponly</td><td style="vertical-align:top;">:</td><td><div></div></td></tr><tr><td style="font-weight:bold;vertical-align:top;">max-age</td><td style="vertical-align:top;">:</td><td><div></div></td></tr><tr><td style="font-weight:bold;vertical-align:top;">path</td><td style="vertical-align:top;">:</td><td><div></div></td></tr><tr><td style="font-weight:bold;vertical-align:top;">secure</td><td style="vertical-align:top;">:</td><td><div></div></td></tr><tr><td style="font-weight:bold;vertical-align:top;">version</td><td style="vertical-align:top;">:</td><td><div></div></td></tr></table></div></td></tr></table></div></td></tr><tr><td style="font-weight:bold;vertical-align:top;">env</td><td style="vertical-align:top;">:</td><td><div><table><tr><td style="font-weight:bold;vertical-align:top;">CONTENT_LENGTH</td><td style="vertical-align:top;">:</td><td><div></div></td></tr><tr><td style="font-weight:bold;vertical-align:top;">CONTENT_TYPE</td><td style="vertical-align:top;">:</td><td><div></div></td></tr><tr><td style="font-weight:bold;vertical-align:top;">DOCUMENT_ROOT</td><td style="vertical-align:top;">:</td><td><div>/usr/local/openresty/nginx/html</div></td></tr><tr><td style="font-weight:bold;vertical-align:top;">HTTPS</td><td style="vertical-align:top;">:</td><td><div>on</div></td></tr><tr><td style="font-weight:bold;vertical-align:top;">HTTP_ACCEPT</td><td style="vertical-align:top;">:</td><td><div>text/html,application/xhtml+xml,application/xml;q=0.9,image/webp,image/apng,*/*;q=0.8,application/signed-exchange;v=b3;q=0.9</div></td></tr><tr><td style="font-weight:bold;vertical-align:top;">HTTP_ACCEPT_ENCODING</td><td style="vertical-align:top;">:</td><td><div>gzip, deflate, br</div></td></tr><tr><td style="font-weight:bold;vertical-align:top;">HTTP_ACCEPT_LANGUAGE</td><td style="vertical-align:top;">:</td><td><div>pt-BR,pt;q=0.9,en-US;q=0.8,en;q=0.7</div></td></tr><tr><td style="font-weight:bold;vertical-align:top;">HTTP_CACHE_CONTROL</td><td style="vertical-align:top;">:</td><td><div>max-age=0</div></td></tr><tr><td style="font-weight:bold;vertical-align:top;">HTTP_CONNECTION</td><td style="vertical-align:top;">:</td><td><div>close</div></td></tr><tr><td style="font-weight:bold;vertical-align:top;">HTTP_COOKIE</td><td style="vertical-align:top;">:</td><td><div>_ga=GA1.2.539622042.1573038765; _gid=GA1.2.9372663.1601415833; session_id_aluminum=177.126.64.84-36425fc6-b269-4be1-9f67-246a65a8ccd1; session_id_admin=177.126.64.84-287653bc-b0fa-4a36-be84-6dcb9648c785</div></td></tr><tr><td style="font-weight:bold;vertical-align:top;">HTTP_HOST</td><td style="vertical-align:top;">:</td><td><div>rogoberto.pythonanywhere.com</div></td></tr><tr><td style="font-weight:bold;vertical-align:top;">HTTP_REFERER</td><td style="vertical-align:top;">:</td><td><div>https://rogoberto.pythonanywhere.com/aluminum/acs_projeto/index/87</div></td></tr><tr><td style="font-weight:bold;vertical-align:top;">HTTP_SEC_FETCH_DEST</td><td style="vertical-align:top;">:</td><td><div>document</div></td></tr><tr><td style="font-weight:bold;vertical-align:top;">HTTP_SEC_FETCH_MODE</td><td style="vertical-align:top;">:</td><td><div>navigate</div></td></tr><tr><td style="font-weight:bold;vertical-align:top;">HTTP_SEC_FETCH_SITE</td><td style="vertical-align:top;">:</td><td><div>same-origin</div></td></tr><tr><td style="font-weight:bold;vertical-align:top;">HTTP_SEC_FETCH_USER</td><td style="vertical-align:top;">:</td><td><div>?1</div></td></tr><tr><td style="font-weight:bold;vertical-align:top;">HTTP_UPGRADE_INSECURE_REQUESTS</td><td style="vertical-align:top;">:</td><td><div>1</div></td></tr><tr><td style="font-weight:bold;vertical-align:top;">HTTP_USER_AGENT</td><td style="vertical-align:top;">:</td><td><div>Mozilla/5.0 (Windows NT 6.1; Win64; x64) AppleWebKit/537.36 (KHTML, like Gecko) Chrome/84.0.4147.135 Safari/537.36</div></td></tr><tr><td style="font-weight:bold;vertical-align:top;">HTTP_X_FORWARDED_FOR</td><td style="vertical-align:top;">:</td><td><div>177.126.64.84</div></td></tr><tr><td style="font-weight:bold;vertical-align:top;">HTTP_X_REAL_IP</td><td style="vertical-align:top;">:</td><td><div>177.126.64.84</div></td></tr><tr><td style="font-weight:bold;vertical-align:top;">PATH_INFO</td><td style="vertical-align:top;">:</td><td><div>/aluminum/acs_relatorio/prestacao_venda/87</div></td></tr><tr><td style="font-weight:bold;vertical-align:top;">QUERY_STRING</td><td style="vertical-align:top;">:</td><td><div></div></td></tr><tr><td style="font-weight:bold;vertical-align:top;">REMOTE_ADDR</td><td style="vertical-align:top;">:</td><td><div>10.0.0.124</div></td></tr><tr><td style="font-weight:bold;vertical-align:top;">REMOTE_PORT</td><td style="vertical-align:top;">:</td><td><div>43928</div></td></tr><tr><td style="font-weight:bold;vertical-align:top;">REQUEST_METHOD</td><td style="vertical-align:top;">:</td><td><div>GET</div></td></tr><tr><td style="font-weight:bold;vertical-align:top;">REQUEST_URI</td><td style="vertical-align:top;">:</td><td><div>/aluminum/acs_relatorio/prestacao_venda/87</div></td></tr><tr><td style="font-weight:bold;vertical-align:top;">SCRIPT_NAME</td><td style="vertical-align:top;">:</td><td><div></div></td></tr><tr><td style="font-weight:bold;vertical-align:top;">SERVER_NAME</td><td style="vertical-align:top;">:</td><td><div>rogoberto.pythonanywhere.com</div></td></tr><tr><td style="font-weight:bold;vertical-align:top;">SERVER_PORT</td><td style="vertical-align:top;">:</td><td><div>443</div></td></tr><tr><td style="font-weight:bold;vertical-align:top;">SERVER_PROTOCOL</td><td style="vertical-align:top;">:</td><td><div>HTTP/1.1</div></td></tr><tr><td style="font-weight:bold;vertical-align:top;">app_folders</td><td style="vertical-align:top;">:</td><td><div>set([&#x27;/home/rogoberto/web2py/applications/welcome/&#x27;, &#x27;/home/rogoberto/web2py/applications/aluminum/&#x27;, &#x27;/home/rogoberto/web2py/applications/prodigy/&#x27;, &#x27;/home/rogoberto/web2py/applications/overcoming/&#x27;, &#x27;/home/rogoberto/web2py/applications/admin/&#x27;, &#x27;/home/rogoberto/web2py/applications/localfs/&#x27;])</div></td></tr><tr><td style="font-weight:bold;vertical-align:top;">applications_parent</td><td style="vertical-align:top;">:</td><td><div>/home/rogoberto/web2py</div></td></tr><tr><td style="font-weight:bold;vertical-align:top;">content_length</td><td style="vertical-align:top;">:</td><td><div></div></td></tr><tr><td style="font-weight:bold;vertical-align:top;">content_type</td><td style="vertical-align:top;">:</td><td><div></div></td></tr><tr><td style="font-weight:bold;vertical-align:top;">db_sessions</td><td style="vertical-align:top;">:</td><td><div>set([])</div></td></tr><tr><td style="font-weight:bold;vertical-align:top;">debugging</td><td style="vertical-align:top;">:</td><td><div>True</div></td></tr><tr><td style="font-weight:bold;vertical-align:top;">document_root</td><td style="vertical-align:top;">:</td><td><div>/usr/local/openresty/nginx/html</div></td></tr><tr><td style="font-weight:bold;vertical-align:top;">gluon_parent</td><td style="vertical-align:top;">:</td><td><div>/home/rogoberto/web2py</div></td></tr><tr><td style="font-weight:bold;vertical-align:top;">http_accept</td><td style="vertical-align:top;">:</td><td><div>text/html,application/xhtml+xml,application/xml;q=0.9,image/webp,image/apng,*/*;q=0.8,application/signed-exchange;v=b3;q=0.9</div></td></tr><tr><td style="font-weight:bold;vertical-align:top;">http_accept_encoding</td><td style="vertical-align:top;">:</td><td><div>gzip, deflate, br</div></td></tr><tr><td style="font-weight:bold;vertical-align:top;">http_accept_language</td><td style="vertical-align:top;">:</td><td><div>pt-BR,pt;q=0.9,en-US;q=0.8,en;q=0.7</div></td></tr><tr><td style="font-weight:bold;vertical-align:top;">http_cache_control</td><td style="vertical-align:top;">:</td><td><div>max-age=0</div></td></tr><tr><td style="font-weight:bold;vertical-align:top;">http_connection</td><td style="vertical-align:top;">:</td><td><div>close</div></td></tr><tr><td style="font-weight:bold;vertical-align:top;">http_cookie</td><td style="vertical-align:top;">:</td><td><div>_ga=GA1.2.539622042.1573038765; _gid=GA1.2.9372663.1601415833; session_id_aluminum=177.126.64.84-36425fc6-b269-4be1-9f67-246a65a8ccd1; session_id_admin=177.126.64.84-287653bc-b0fa-4a36-be84-6dcb9648c785</div></td></tr><tr><td style="font-weight:bold;vertical-align:top;">http_host</td><td style="vertical-align:top;">:</td><td><div>rogoberto.pythonanywhere.com</div></td></tr><tr><td style="font-weight:bold;vertical-align:top;">http_referer</td><td style="vertical-align:top;">:</td><td><div>https://rogoberto.pythonanywhere.com/aluminum/acs_projeto/index/87</div></td></tr><tr><td style="font-weight:bold;vertical-align:top;">http_sec_fetch_dest</td><td style="vertical-align:top;">:</td><td><div>document</div></td></tr><tr><td style="font-weight:bold;vertical-align:top;">http_sec_fetch_mode</td><td style="vertical-align:top;">:</td><td><div>navigate</div></td></tr><tr><td style="font-weight:bold;vertical-align:top;">http_sec_fetch_site</td><td style="vertical-align:top;">:</td><td><div>same-origin</div></td></tr><tr><td style="font-weight:bold;vertical-align:top;">http_sec_fetch_user</td><td style="vertical-align:top;">:</td><td><div>?1</div></td></tr><tr><td style="font-weight:bold;vertical-align:top;">http_upgrade_insecure_requests</td><td style="vertical-align:top;">:</td><td><div>1</div></td></tr><tr><td style="font-weight:bold;vertical-align:top;">http_user_agent</td><td style="vertical-align:top;">:</td><td><div>Mozilla/5.0 (Windows NT 6.1; Win64; x64) AppleWebKit/537.36 (KHTML, like Gecko) Chrome/84.0.4147.135 Safari/537.36</div></td></tr><tr><td style="font-weight:bold;vertical-align:top;">http_x_forwarded_for</td><td style="vertical-align:top;">:</td><td><div>177.126.64.84</div></td></tr><tr><td style="font-weight:bold;vertical-align:top;">http_x_real_ip</td><td style="vertical-align:top;">:</td><td><div>177.126.64.84</div></td></tr><tr><td style="font-weight:bold;vertical-align:top;">https</td><td style="vertical-align:top;">:</td><td><div>on</div></td></tr><tr><td style="font-weight:bold;vertical-align:top;">is_jython</td><td style="vertical-align:top;">:</td><td><div>False</div></td></tr><tr><td style="font-weight:bold;vertical-align:top;">is_py2</td><td style="vertical-align:top;">:</td><td><div>True</div></td></tr><tr><td style="font-weight:bold;vertical-align:top;">is_pypy</td><td style="vertical-align:top;">:</td><td><div>False</div></td></tr><tr><td style="font-weight:bold;vertical-align:top;">is_source</td><td style="vertical-align:top;">:</td><td><div>True</div></td></tr><tr><td style="font-weight:bold;vertical-align:top;">local_hosts</td><td style="vertical-align:top;">:</td><td><div><table><tr><td><div>35.173.69.207</div></td></tr><tr><td><div>::ffff:127.0.0.1</div></td></tr><tr><td><div>::1</div></td></tr><tr><td><div>rogoberto.pythonanywhere.com</div></td></tr><tr><td><div>blue-liveweb2</div></td></tr><tr><td><div>127.0.0.1</div></td></tr><tr><td><div>localhost</div></td></tr></table></div></td></tr><tr><td style="font-weight:bold;vertical-align:top;">path_info</td><td style="vertical-align:top;">:</td><td><div>/aluminum/acs_relatorio/prestacao_venda/87</div></td></tr><tr><td style="font-weight:bold;vertical-align:top;">query_string</td><td style="vertical-align:top;">:</td><td><div></div></td></tr><tr><td style="font-weight:bold;vertical-align:top;">remote_addr</td><td style="vertical-align:top;">:</td><td><div>10.0.0.124</div></td></tr><tr><td style="font-weight:bold;vertical-align:top;">remote_port</td><td style="vertical-align:top;">:</td><td><div>43928</div></td></tr><tr><td style="font-weight:bold;vertical-align:top;">request_method</td><td style="vertical-align:top;">:</td><td><div>GET</div></td></tr><tr><td style="font-weight:bold;vertical-align:top;">request_uri</td><td style="vertical-align:top;">:</td><td><div>/aluminum/acs_relatorio/prestacao_venda/87</div></td></tr><tr><td style="font-weight:bold;vertical-align:top;">script_name</td><td style="vertical-align:top;">:</td><td><div></div></td></tr><tr><td style="font-weight:bold;vertical-align:top;">server_name</td><td style="vertical-align:top;">:</td><td><div>rogoberto.pythonanywhere.com</div></td></tr><tr><td style="font-weight:bold;vertical-align:top;">server_port</td><td style="vertical-align:top;">:</td><td><div>443</div></td></tr><tr><td style="font-weight:bold;vertical-align:top;">server_protocol</td><td style="vertical-align:top;">:</td><td><div>HTTP/1.1</div></td></tr><tr><td style="font-weight:bold;vertical-align:top;">uwsgi.node</td><td style="vertical-align:top;">:</td><td><div>blue-liveweb2</div></td></tr><tr><td style="font-weight:bold;vertical-align:top;">uwsgi.version</td><td style="vertical-align:top;">:</td><td><div>2.0.17.1</div></td></tr><tr><td style="font-weight:bold;vertical-align:top;">uwsgi_node</td><td style="vertical-align:top;">:</td><td><div>blue-liveweb2</div></td></tr><tr><td style="font-weight:bold;vertical-align:top;">uwsgi_version</td><td style="vertical-align:top;">:</td><td><div>2.0.17.1</div></td></tr><tr><td style="font-weight:bold;vertical-align:top;">web2py_path</td><td style="vertical-align:top;">:</td><td><div>/home/rogoberto/web2py</div></td></tr><tr><td style="font-weight:bold;vertical-align:top;">web2py_version</td><td style="vertical-align:top;">:</td><td><div>2.17.1-stable+timestamp.2018.08.06.01.02.56</div></td></tr><tr><td style="font-weight:bold;vertical-align:top;">wsgi.errors</td><td style="vertical-align:top;">:</td><td><div>&lt;uwsgi_file__bin_user_wsgi_wrapper.ErrorLogFile object at 0x7f3bbdac1c10&gt;</div></td></tr><tr><td style="font-weight:bold;vertical-align:top;">wsgi.file_wrapper</td><td style="vertical-align:top;">:</td><td><div>&lt;built-in function uwsgi_sendfile&gt;</div></td></tr><tr><td style="font-weight:bold;vertical-align:top;">wsgi.input</td><td style="vertical-align:top;">:</td><td><div>&lt;uwsgi._Input object at 0x7f3bb6223e70&gt;</div></td></tr><tr><td style="font-weight:bold;vertical-align:top;">wsgi.multiprocess</td><td style="vertical-align:top;">:</td><td><div>True</div></td></tr><tr><td style="font-weight:bold;vertical-align:top;">wsgi.multithread</td><td style="vertical-align:top;">:</td><td><div>False</div></td></tr><tr><td style="font-weight:bold;vertical-align:top;">wsgi.run_once</td><td style="vertical-align:top;">:</td><td><div>False</div></td></tr><tr><td style="font-weight:bold;vertical-align:top;">wsgi.url_scheme</td><td style="vertical-align:top;">:</td><td><div>https</div></td></tr><tr><td style="font-weight:bold;vertical-align:top;">wsgi.version</td><td style="vertical-align:top;">:</td><td><div><table><tr><td><div>1</div></td></tr><tr><td><div>0</div></td></tr></table></div></td></tr><tr><td style="font-weight:bold;vertical-align:top;">wsgi_errors</td><td style="vertical-align:top;">:</td><td><div>&lt;uwsgi_file__bin_user_wsgi_wrapper.ErrorLogFile object at 0x7f3bbdac1c10&gt;</div></td></tr><tr><td style="font-weight:bold;vertical-align:top;">wsgi_file_wrapper</td><td style="vertical-align:top;">:</td><td><div>&lt;built-in function uwsgi_sendfile&gt;</div></td></tr><tr><td style="font-weight:bold;vertical-align:top;">wsgi_input</td><td style="vertical-align:top;">:</td><td><div>&lt;uwsgi._Input object at 0x7f3bb6223e70&gt;</div></td></tr><tr><td style="font-weight:bold;vertical-align:top;">wsgi_multiprocess</td><td style="vertical-align:top;">:</td><td><div>True</div></td></tr><tr><td style="font-weight:bold;vertical-align:top;">wsgi_multithread</td><td style="vertical-align:top;">:</td><td><div>False</div></td></tr><tr><td style="font-weight:bold;vertical-align:top;">wsgi_run_once</td><td style="vertical-align:top;">:</td><td><div>False</div></td></tr><tr><td style="font-weight:bold;vertical-align:top;">wsgi_url_scheme</td><td style="vertical-align:top;">:</td><td><div>https</div></td></tr><tr><td style="font-weight:bold;vertical-align:top;">wsgi_version</td><td style="vertical-align:top;">:</td><td><div><table><tr><td><div>1</div></td></tr><tr><td><div>0</div></td></tr></table></div></td></tr></table></div></td></tr><tr><td style="font-weight:bold;vertical-align:top;">extension</td><td style="vertical-align:top;">:</td><td><div>html</div></td></tr><tr><td style="font-weight:bold;vertical-align:top;">folder</td><td style="vertical-align:top;">:</td><td><div>/home/rogoberto/web2py/applications/aluminum/</div></td></tr><tr><td style="font-weight:bold;vertical-align:top;">function</td><td style="vertical-align:top;">:</td><td><div>prestacao_venda</div></td></tr><tr><td style="font-weight:bold;vertical-align:top;">global_settings</td><td style="vertical-align:top;">:</td><td><div><table><tr><td style="font-weight:bold;vertical-align:top;">app_folders</td><td style="vertical-align:top;">:</td><td><div>set([&#x27;/home/rogoberto/web2py/applications/welcome/&#x27;, &#x27;/home/rogoberto/web2py/applications/aluminum/&#x27;, &#x27;/home/rogoberto/web2py/applications/prodigy/&#x27;, &#x27;/home/rogoberto/web2py/applications/overcoming/&#x27;, &#x27;/home/rogoberto/web2py/applications/admin/&#x27;, &#x27;/home/rogoberto/web2py/applications/localfs/&#x27;])</div></td></tr><tr><td style="font-weight:bold;vertical-align:top;">applications_parent</td><td style="vertical-align:top;">:</td><td><div>/home/rogoberto/web2py</div></td></tr><tr><td style="font-weight:bold;vertical-align:top;">db_sessions</td><td style="vertical-align:top;">:</td><td><div>set([])</div></td></tr><tr><td style="font-weight:bold;vertical-align:top;">debugging</td><td style="vertical-align:top;">:</td><td><div>True</div></td></tr><tr><td style="font-weight:bold;vertical-align:top;">gluon_parent</td><td style="vertical-align:top;">:</td><td><div>/home/rogoberto/web2py</div></td></tr><tr><td style="font-weight:bold;vertical-align:top;">is_jython</td><td style="vertical-align:top;">:</td><td><div>False</div></td></tr><tr><td style="font-weight:bold;vertical-align:top;">is_py2</td><td style="vertical-align:top;">:</td><td><div>True</div></td></tr><tr><td style="font-weight:bold;vertical-align:top;">is_pypy</td><td style="vertical-align:top;">:</td><td><div>False</div></td></tr><tr><td style="font-weight:bold;vertical-align:top;">is_source</td><td style="vertical-align:top;">:</td><td><div>True</div></td></tr><tr><td style="font-weight:bold;vertical-align:top;">local_hosts</td><td style="vertical-align:top;">:</td><td><div><table><tr><td><div>35.173.69.207</div></td></tr><tr><td><div>::ffff:127.0.0.1</div></td></tr><tr><td><div>::1</div></td></tr><tr><td><div>rogoberto.pythonanywhere.com</div></td></tr><tr><td><div>blue-liveweb2</div></td></tr><tr><td><div>127.0.0.1</div></td></tr><tr><td><div>localhost</div></td></tr></table></div></td></tr><tr><td style="font-weight:bold;vertical-align:top;">web2py_version</td><td style="vertical-align:top;">:</td><td><div>2.17.1-stable+timestamp.2018.08.06.01.02.56</div></td></tr></table></div></td></tr><tr><td style="font-weight:bold;vertical-align:top;">is_https</td><td style="vertical-align:top;">:</td><td><div>True</div></td></tr><tr><td style="font-weight:bold;vertical-align:top;">is_local</td><td style="vertical-align:top;">:</td><td><div>False</div></td></tr><tr><td style="font-weight:bold;vertical-align:top;">is_restful</td><td style="vertical-align:top;">:</td><td><div>False</div></td></tr><tr><td style="font-weight:bold;vertical-align:top;">is_scheduler</td><td style="vertical-align:top;">:</td><td><div>False</div></td></tr><tr><td style="font-weight:bold;vertical-align:top;">is_shell</td><td style="vertical-align:top;">:</td><td><div>False</div></td></tr><tr><td style="font-weight:bold;vertical-align:top;">method</td><td style="vertical-align:top;">:</td><td><div>GET</div></td></tr><tr><td style="font-weight:bold;vertical-align:top;">now</td><td style="vertical-align:top;">:</td><td><div>datetime.datetime(2020, 9, 30, 12, 27, 47, 76892)</div></td></tr><tr><td style="font-weight:bold;vertical-align:top;">raw_args</td><td style="vertical-align:top;">:</td><td><div>87</div></td></tr><tr><td style="font-weight:bold;vertical-align:top;">raw_extension</td><td style="vertical-align:top;">:</td><td><div>None</div></td></tr><tr><td style="font-weight:bold;vertical-align:top;">url</td><td style="vertical-align:top;">:</td><td><div>/aluminum/acs_relatorio/prestacao_venda/87</div></td></tr><tr><td style="font-weight:bold;vertical-align:top;">utcnow</td><td style="vertical-align:top;">:</td><td><div>datetime.datetime(2020, 9, 30, 12, 27, 47, 76922)</div></td></tr><tr><td style="font-weight:bold;vertical-align:top;">wsgi</td><td style="vertical-align:top;">:</td><td><div>&lt;gluon.main.LazyWSGI object at 0x7f3bb6c89810&gt;</div></td></tr></table></div>'
tRp60
sS'frames'
p61
(lp62
(dp63
S'file'
p64
S'/home/rogoberto/web2py/gluon/restricted.py'
p65
sS'dump'
p66
(dp67
S'environment'
p68
S"{'A': <class 'gluon.html.A'>, 'ANY_OF': <class 'gluon.validators.ANY_OF'>, 'ASSIGNJS': <function ASSIGNJS>, 'AppConfig': <function AppConfig>, 'Auth': <class 'gluon.tools.Auth'>, 'B': <class 'gluon.html.B'>, 'BEAUTIFY': <class 'gluon.html.BEAUTIFY'>, 'BODY': <class 'gluon.html.BODY'>, 'BR': <class 'gluon.html.BR'>, 'BUTTON': <class 'gluon.html.BUTTON'>, ...}"
p69
sS'ccode'
p70
S'<code object <module> at 0x7f3bb6a3ff30, file "/...iews/acs_relatorio/prestacao_venda.html", line 1>'
p71
ssS'lnum'
p72
I219
sS'lines'
p73
(dp74
I214
S'    if environment is None:'
p75
sI215
S'        environment = {}'
p76
sI216
S"    environment['__file__'] = layer"
p77
sI217
S"    environment['__name__'] = '__restricted__'"
p78
sI218
S'    try:'
p79
sI219
S'        exec(ccode, environment)'
p80
sI220
S'    except HTTP:'
p81
sI221
S'        raise'
p82
sI222
S'    except RestrictedError:'
p83
sI223
S'        # do not encapsulate (obfuscate) the original RestrictedError'
p84
ssS'call'
p85
S'(ccode=<code object <module> at 0x7f3bb6a3ff30, file "/...iews/acs_relatorio/prestacao_venda.html", line 1>, environment={\'A\': <class \'gluon.html.A\'>, \'ANY_OF\': <class \'gluon.validators.ANY_OF\'>, \'ASSIGNJS\': <function ASSIGNJS>, \'AppConfig\': <function AppConfig>, \'Auth\': <class \'gluon.tools.Auth\'>, \'B\': <class \'gluon.html.B\'>, \'BEAUTIFY\': <class \'gluon.html.BEAUTIFY\'>, \'BODY\': <class \'gluon.html.BODY\'>, \'BR\': <class \'gluon.html.BR\'>, \'BUTTON\': <class \'gluon.html.BUTTON\'>, ...}, layer=\'/home/rogoberto/web2py/applications/aluminum/views/acs_relatorio/prestacao_venda.html\', scode=r"response.write(\'<!DOCTYPE html>\\n<!--[if (gt IE ...nse.write(\'\\n  </body>\\n</html>\\n\', escape=False)")'
p86
sS'func'
p87
S'restricted'
p88
sa(dp89
g64
S'/home/rogoberto/web2py/applications/aluminum/views/acs_relatorio/prestacao_venda.html'
p90
sg66
(dp91
S'div'
p92
S'undefined'
p93
ssg72
I177
sg73
(dp94
I168
S"    response.write('\\n                    ', escape=False)"
p95
sI169
S'    media_pecas=projeto.total_preco_mercadoria/projeto.total_pecas_mercadoria'
p96
sI170
S"    response.write('\\n                    ', escape=False)"
p97
sI171
S'    pass'
p98
sI172
S"response.write('\\n                    ', escape=False)"
p99
sI173
S'if venda_vista!=0:'
p100
sI174
S'    response.write(\'\\n                    <li class="list-group-item d-flex justify-content-between">\\n                        \\n                            \', escape=False)'
p101
sI175
S'    if venda_vista>0:'
p102
sI176
S"        response.write('\\n                            ', escape=False)"
p103
sI177
S'        media_pecas=venda_vista/media_pecas'
p104
sI178
S"        response.write('\\n                            ', escape=False)"
p105
sI179
S'        pass'
p106
sI180
S"    response.write('\\n                            ', escape=False)"
p107
sI181
S'    if venda_vista>0:'
p108
sI182
S'        response.write(\'\\n                        <div class="text-danger">\\n                            <h6 class="my-0"><b>Difer\\xc3\\xaan\\xc3\\xa7a Mercadoria</b></h6> \\n                            <small class="text-muted">M\\xc3\\xa9dia de \', escape=False)'
p109
sI183
S'        response.write("{:,}".format(round(media_pecas,0)).replace(".0",""))'
p110
sI184
S'        response.write(\' Pe\\xc3\\xa7as Faltaram</small>\\n                        </div> <span class="text-muted">R$ \', escape=False)'
p111
sI185
S'        response.write("{:,}".format(round(venda_vista)).replace(",","."))'
p112
sI186
S"        response.write('0</span>\\n                        \\n                        ', escape=False)"
p113
sI187
S'    else:'
p114
ssg85
S'()'
p115
sg87
S'<module>'
p116
sasS'pyver'
p117
S'Python 2.7.12: /usr/local/bin/uwsgi (prefix: /usr)'
p118
sS'session'
p119
g59
(S'sh\t\x00\x00<div><table><tr><td style="font-weight:bold;vertical-align:top;">auth</td><td style="vertical-align:top;">:</td><td><div><table><tr><td style="font-weight:bold;vertical-align:top;">expiration</td><td style="vertical-align:top;">:</td><td><div>3600</div></td></tr><tr><td style="font-weight:bold;vertical-align:top;">hmac_key</td><td style="vertical-align:top;">:</td><td><div>72d6f45e-5e48-4207-b543-0bafa51abcca</div></td></tr><tr><td style="font-weight:bold;vertical-align:top;">last_visit</td><td style="vertical-align:top;">:</td><td><div>datetime.datetime(2020, 9, 30, 12, 22, 1, 690896)</div></td></tr><tr><td style="font-weight:bold;vertical-align:top;">remember_me</td><td style="vertical-align:top;">:</td><td><div>False</div></td></tr><tr><td style="font-weight:bold;vertical-align:top;">user</td><td style="vertical-align:top;">:</td><td><div><table><tr><td style="font-weight:bold;vertical-align:top;">email</td><td style="vertical-align:top;">:</td><td><div>meme@gmail.com</div></td></tr><tr><td style="font-weight:bold;vertical-align:top;">first_name</td><td style="vertical-align:top;">:</td><td><div>Meme</div></td></tr><tr><td style="font-weight:bold;vertical-align:top;">id</td><td style="vertical-align:top;">:</td><td><div>6L</div></td></tr><tr><td style="font-weight:bold;vertical-align:top;">last_name</td><td style="vertical-align:top;">:</td><td><div>Aben\xc3\xa7oado </div></td></tr><tr><td style="font-weight:bold;vertical-align:top;">registration_id</td><td style="vertical-align:top;">:</td><td><div></div></td></tr><tr><td style="font-weight:bold;vertical-align:top;">registration_key</td><td style="vertical-align:top;">:</td><td><div></div></td></tr><tr><td style="font-weight:bold;vertical-align:top;">reset_password_key</td><td style="vertical-align:top;">:</td><td><div></div></td></tr></table></div></td></tr><tr><td style="font-weight:bold;vertical-align:top;">user_groups</td><td style="vertical-align:top;">:</td><td><div><table><tr><td style="font-weight:bold;vertical-align:top;">2</td><td style="vertical-align:top;">:</td><td><div>admin</div></td></tr><tr><td style="font-weight:bold;vertical-align:top;">5</td><td style="vertical-align:top;">:</td><td><div>user_6</div></td></tr></table></div></td></tr></table></div></td></tr><tr><td style="font-weight:bold;vertical-align:top;">flash</td><td style="vertical-align:top;">:</td><td><div>None</div></td></tr></table></div>'
tRp120
sS'etype'
p121
S"<type 'exceptions.ZeroDivisionError'>"
p122
sS'date'
p123
S'Wed Sep 30 12:27:47 2020'
p124
sS'response'
p125
g59
(S's\xce\x1d\x00\x00<div><table><tr><td style="font-weight:bold;vertical-align:top;">body</td><td style="vertical-align:top;">:</td><td><div>&lt;cStringIO.StringO object at 0x7f3bb60c9618&gt;</div></td></tr><tr><td style="font-weight:bold;vertical-align:top;">cookies</td><td style="vertical-align:top;">:</td><td><div><table><tr><td style="font-weight:bold;vertical-align:top;">session_id_aluminum</td><td style="vertical-align:top;">:</td><td><div>177.126.64.84-36425fc6-b269-4be1-9f67-246a65a8ccd1<table><tr><td style="font-weight:bold;vertical-align:top;">comment</td><td style="vertical-align:top;">:</td><td><div></div></td></tr><tr><td style="font-weight:bold;vertical-align:top;">domain</td><td style="vertical-align:top;">:</td><td><div></div></td></tr><tr><td style="font-weight:bold;vertical-align:top;">expires</td><td style="vertical-align:top;">:</td><td><div></div></td></tr><tr><td style="font-weight:bold;vertical-align:top;">httponly</td><td style="vertical-align:top;">:</td><td><div></div></td></tr><tr><td style="font-weight:bold;vertical-align:top;">max-age</td><td style="vertical-align:top;">:</td><td><div></div></td></tr><tr><td style="font-weight:bold;vertical-align:top;">path</td><td style="vertical-align:top;">:</td><td><div>/</div></td></tr><tr><td style="font-weight:bold;vertical-align:top;">secure</td><td style="vertical-align:top;">:</td><td><div></div></td></tr><tr><td style="font-weight:bold;vertical-align:top;">version</td><td style="vertical-align:top;">:</td><td><div></div></td></tr></table></div></td></tr></table></div></td></tr><tr><td style="font-weight:bold;vertical-align:top;">delimiters</td><td style="vertical-align:top;">:</td><td><div><table><tr><td><div>{{</div></td></tr><tr><td><div>}}</div></td></tr></table></div></td></tr><tr><td style="font-weight:bold;vertical-align:top;">files</td><td style="vertical-align:top;">:</td><td><div><table><tr><td><div>/aluminum/static/js/jquery.js</div></td></tr><tr><td><div>/aluminum/static/css/calendar.css</div></td></tr><tr><td><div>/aluminum/static/js/calendar.js</div></td></tr><tr><td><div>/aluminum/static/js/web2py.js</div></td></tr></table></div></td></tr><tr><td style="font-weight:bold;vertical-align:top;">flash</td><td style="vertical-align:top;">:</td><td><div></div></td></tr><tr><td style="font-weight:bold;vertical-align:top;">form_label_separator</td><td style="vertical-align:top;">:</td><td><div></div></td></tr><tr><td style="font-weight:bold;vertical-align:top;">formstyle</td><td style="vertical-align:top;">:</td><td><div>bootstrap4_inline</div></td></tr><tr><td style="font-weight:bold;vertical-align:top;">generic_patterns</td><td style="vertical-align:top;">:</td><td><div><table></table></div></td></tr><tr><td style="font-weight:bold;vertical-align:top;">google_analytics_id</td><td style="vertical-align:top;">:</td><td><div>None</div></td></tr><tr><td style="font-weight:bold;vertical-align:top;">headers</td><td style="vertical-align:top;">:</td><td><div><table><tr><td style="font-weight:bold;vertical-align:top;">X-Powered-By</td><td style="vertical-align:top;">:</td><td><div>web2py</div></td></tr></table></div></td></tr><tr><td style="font-weight:bold;vertical-align:top;">menu</td><td style="vertical-align:top;">:</td><td><div><table><tr><td><div><table><tr><td><div>Principal</div></td></tr><tr><td><div>False</div></td></tr><tr><td><div>/aluminum/default/index</div></td></tr><tr><td><div><table></table></div></td></tr></table></div></td></tr><tr><td><div><table><tr><td><div>BD</div></td></tr><tr><td><div>False</div></td></tr><tr><td><div>/aluminum/appadmin/index</div></td></tr></table></div></td></tr></table></div></td></tr><tr><td style="font-weight:bold;vertical-align:top;">meta</td><td style="vertical-align:top;">:</td><td><div><table><tr><td style="font-weight:bold;vertical-align:top;">author</td><td style="vertical-align:top;">:</td><td><div>Your Name &lt;you@example.com&gt;</div></td></tr><tr><td style="font-weight:bold;vertical-align:top;">description</td><td style="vertical-align:top;">:</td><td><div>a cool new app</div></td></tr><tr><td style="font-weight:bold;vertical-align:top;">generator</td><td style="vertical-align:top;">:</td><td><div>Web2py Web Framework</div></td></tr><tr><td style="font-weight:bold;vertical-align:top;">keywords</td><td style="vertical-align:top;">:</td><td><div><table><tr><td><div>web2py</div></td></tr><tr><td><div>python</div></td></tr><tr><td><div>framework</div></td></tr></table></div></td></tr></table></div></td></tr><tr><td style="font-weight:bold;vertical-align:top;">models_to_run</td><td style="vertical-align:top;">:</td><td><div><table><tr><td><div>^\\w+\\.py$</div></td></tr><tr><td><div>^acs_relatorio/\\w+\\.py$</div></td></tr><tr><td><div>^acs_relatorio/prestacao_venda/\\w+\\.py$</div></td></tr></table></div></td></tr><tr><td style="font-weight:bold;vertical-align:top;">postprocessing</td><td style="vertical-align:top;">:</td><td><div><table></table></div></td></tr><tr><td style="font-weight:bold;vertical-align:top;">session_client</td><td style="vertical-align:top;">:</td><td><div>177.126.64.84</div></td></tr><tr><td style="font-weight:bold;vertical-align:top;">session_cookie_compression_level</td><td style="vertical-align:top;">:</td><td><div>None</div></td></tr><tr><td style="font-weight:bold;vertical-align:top;">session_cookie_expires</td><td style="vertical-align:top;">:</td><td><div>None</div></td></tr><tr><td style="font-weight:bold;vertical-align:top;">session_data_name</td><td style="vertical-align:top;">:</td><td><div>session_data_aluminum</div></td></tr><tr><td style="font-weight:bold;vertical-align:top;">session_file</td><td style="vertical-align:top;">:</td><td><div>&lt;open file &#x27;/home/rogoberto/web2py/applications/aluminum/sessions/0fe/128/177.126.64.84-36425fc6-b269-4be1-9f67-246a65a8ccd1&#x27;, mode &#x27;rb+&#x27; at 0x7f3bb5f5e0c0&gt;</div></td></tr><tr><td style="font-weight:bold;vertical-align:top;">session_filename</td><td style="vertical-align:top;">:</td><td><div>/home/rogoberto/web2py/applications/aluminum/sessions/177.126.64.84-36425fc6-b269-4be1-9f67-246a65a8ccd1</div></td></tr><tr><td style="font-weight:bold;vertical-align:top;">session_hash</td><td style="vertical-align:top;">:</td><td><div>456a4466a7509fd5f0e7f822ffcb49b9</div></td></tr><tr><td style="font-weight:bold;vertical-align:top;">session_id</td><td style="vertical-align:top;">:</td><td><div>177.126.64.84-36425fc6-b269-4be1-9f67-246a65a8ccd1</div></td></tr><tr><td style="font-weight:bold;vertical-align:top;">session_id_name</td><td style="vertical-align:top;">:</td><td><div>session_id_aluminum</div></td></tr><tr><td style="font-weight:bold;vertical-align:top;">session_locked</td><td style="vertical-align:top;">:</td><td><div>True</div></td></tr><tr><td style="font-weight:bold;vertical-align:top;">session_masterapp</td><td style="vertical-align:top;">:</td><td><div>aluminum</div></td></tr><tr><td style="font-weight:bold;vertical-align:top;">session_new</td><td style="vertical-align:top;">:</td><td><div>False</div></td></tr><tr><td style="font-weight:bold;vertical-align:top;">session_storage_type</td><td style="vertical-align:top;">:</td><td><div>file</div></td></tr><tr><td style="font-weight:bold;vertical-align:top;">show_toolbar</td><td style="vertical-align:top;">:</td><td><div>False</div></td></tr><tr><td style="font-weight:bold;vertical-align:top;">status</td><td style="vertical-align:top;">:</td><td><div>200</div></td></tr><tr><td style="font-weight:bold;vertical-align:top;">view</td><td style="vertical-align:top;">:</td><td><div>acs_relatorio/prestacao_venda.html</div></td></tr></table></div>'
tRp126
sS'locals'
p127
(dp128
S'PY2'
p129
S'True'
p130
sS'OBJECT'
p131
S"<class 'gluon.html.OBJECT'>"
p132
sS'SQLDB'
p133
S"<class 'pydal.base.DAL'>"
p134
sg119
S"<Storage {'_formkey[venda/5279]': ['a2a18dc8-c3e...796]': ['f4d1c5d2-d93d-4fa6-8c2c-e979086dda8e']}>"
p135
sS'LINK'
p136
S"<class 'gluon.html.LINK'>"
p137
sS'BR'
p138
S"<class 'gluon.html.BR'>"
p139
sS'local_import'
p140
S'<function <lambda>>'
p141
sS'OPTGROUP'
p142
S"<class 'gluon.html.OPTGROUP'>"
p143
sS'__package__'
p144
S'None'
p145
sS'PRE'
p146
S"<class 'gluon.html.PRE'>"
p147
sS'IS_INT_IN_RANGE'
p148
S"<class 'gluon.validators.IS_INT_IN_RANGE'>"
p149
sS'to_bytes'
p150
S'<function to_bytes>'
p151
sS'IS_LOWER'
p152
S"<class 'gluon.validators.IS_LOWER'>"
p153
sS'IS_STRONG'
p154
S"<class 'gluon.validators.IS_STRONG'>"
p155
sS'cache'
p156
S'<gluon.cache.Cache object>'
p157
sS'IS_IN_DB'
p158
S"<class 'gluon.validators.IS_IN_DB'>"
p159
sS'TAG'
p160
S'<gluon.html.__TAG__ object>'
p161
sS'SQLField'
p162
S"<class 'pydal.objects.Field'>"
p163
sS'mail'
p164
S'<gluon.tools.Mail object>'
p165
sS'BODY'
p166
S"<class 'gluon.html.BODY'>"
p167
sS'IS_DATE_IN_RANGE'
p168
S"<class 'gluon.validators.IS_DATE_IN_RANGE'>"
p169
sS'IFRAME'
p170
S"<class 'gluon.html.IFRAME'>"
p171
sS'URL'
p172
S'<function URL>'
p173
sS'__file__'
p174
S"'/home/rogoberto/web2py/applications/aluminum/views/acs_relatorio/prestacao_venda.html'"
p175
sS'db'
p176
S'<DAL uri="sqlite://storage.sqlite">'
p177
sS'auth'
p178
S'<gluon.tools.Auth object>'
p179
sS'P'
S"<class 'gluon.html.P'>"
p180
sS'TFOOT'
p181
S"<class 'gluon.html.TFOOT'>"
p182
sS'iteritems'
p183
S'<function <lambda>>'
p184
sS'XHTML'
p185
S"<class 'gluon.html.XHTML'>"
p186
sS'datetime'
p187
S"<module 'datetime' (built-in)>"
p188
sS'ON'
p189
g130
sS'OL'
p190
S"<class 'gluon.html.OL'>"
p191
sS'TEXTAREA'
p192
S"<class 'gluon.html.TEXTAREA'>"
p193
sS'MENU'
p194
S"<class 'gluon.html.MENU'>"
p195
sS'IS_IMAGE'
p196
S"<class 'gluon.validators.IS_IMAGE'>"
p197
sS'EM'
p198
S"<class 'gluon.html.EM'>"
p199
sS'CODE'
p200
S"<class 'gluon.html.CODE'>"
p201
sS'HTTP'
p202
S"<class 'gluon.http.HTTP'>"
p203
sS'HR'
p204
S"<class 'gluon.html.HR'>"
p205
sS'IS_DATETIME'
p206
S"<class 'gluon.validators.IS_DATETIME'>"
p207
sS'reduce'
p208
S'<built-in function reduce>'
p209
sS'STYLE'
p210
S"<class 'gluon.html.STYLE'>"
p211
sS'LABEL'
p212
S"<class 'gluon.html.LABEL'>"
p213
sS'CLEANUP'
p214
S"<class 'gluon.validators.CLEANUP'>"
p215
sS'BUTTON'
p216
S"<class 'gluon.html.BUTTON'>"
p217
sS'SELECT'
p218
S"<class 'gluon.html.SELECT'>"
p219
sS'CENTER'
p220
S"<class 'gluon.html.CENTER'>"
p221
sS'Auth'
p222
S"<class 'gluon.tools.Auth'>"
p223
sS'__builtins__'
p224
S"{'ArithmeticError': <type 'exceptions.ArithmeticError'>, 'AssertionError': <type 'exceptions.AssertionError'>, 'AttributeError': <type 'exceptions.AttributeError'>, 'BaseException': <type 'exceptions.BaseException'>, 'BufferError': <type 'exceptions.BufferError'>, 'BytesWarning': <type 'exceptions.BytesWarning'>, 'DeprecationWarning': <type 'exceptions.DeprecationWarning'>, 'EOFError': <type 'exceptions.EOFError'>, 'Ellipsis': Ellipsis, 'EnvironmentError': <type 'exceptions.EnvironmentError'>, ...}"
p225
sS'HTML'
p226
S"<class 'gluon.html.HTML'>"
p227
sS'SQLFORM'
p228
S"<class 'gluon.sqlhtml.SQLFORM'>"
p229
sS'T'
S'<gluon.languages.translator object>'
p230
sS'_item'
p231
S"(<lazyT 'BD'>, False, '/aluminum/appadmin/index')"
p232
sS'LOAD'
p233
S'<function LOAD>'
p234
sS'redirect'
p235
S'<function redirect>'
p236
sS'FIELDSET'
p237
S"<class 'gluon.html.FIELDSET'>"
p238
sS'IS_EQUAL_TO'
p239
S"<class 'gluon.validators.IS_EQUAL_TO'>"
p240
sS'embed64'
p241
S'<function embed64>'
p242
sS'IS_LIST_OF'
p243
S"<class 'gluon.validators.IS_LIST_OF'>"
p244
sS'INPUT'
p245
S"<class 'gluon.html.INPUT'>"
p246
sS'EMBED'
p247
S"<class 'gluon.html.EMBED'>"
p248
sS'configuration'
p249
S"{'host': {'names': 'localhost:*, 127.0.0.1:*, *:...': 'sqlite://storage.sqlite', 'pool_size': '10'}}"
p250
sS'H2'
p251
S"<class 'gluon.html.H2'>"
p252
sS'H3'
p253
S"<class 'gluon.html.H3'>"
p254
sS'projeto'
p255
S"<Row {'empresa': 4L, 'total_salario_funcionario'...tal_cobrado': 0.0, 'total_pecas_mercadoria': 0L}>"
p256
sS'H1'
p257
S"<class 'gluon.html.H1'>"
p258
sS'H6'
p259
S"<class 'gluon.html.H6'>"
p260
sS'H4'
p261
S"<class 'gluon.html.H4'>"
p262
sS'H5'
p263
S"<class 'gluon.html.H5'>"
p264
sS'UL'
p265
S"<class 'gluon.html.UL'>"
p266
sS'IS_UPPER'
p267
S"<class 'gluon.validators.IS_UPPER'>"
p268
sS'xmlescape'
p269
S'<function xmlescape>'
p270
sS'IS_TIME'
p271
S"<class 'gluon.validators.IS_TIME'>"
p272
sS'OPTION'
p273
S"<class 'gluon.html.OPTION'>"
p274
sS'TITLE'
p275
S"<class 'gluon.html.TITLE'>"
p276
sS'CRYPT'
p277
S"<class 'gluon.validators.CRYPT'>"
p278
sS'IS_EMPTY_OR'
p279
S"<class 'gluon.validators.IS_EMPTY_OR'>"
p280
sS'MARKMIN'
p281
S"<class 'gluon.html.MARKMIN'>"
p282
sS'__name__'
p283
S"'__restricted__'"
p284
sS'STRONG'
p285
S"<class 'gluon.html.STRONG'>"
p286
sS'COL'
p287
S"<class 'gluon.html.COL'>"
p288
sS'SCRIPT'
p289
S"<class 'gluon.html.SCRIPT'>"
p290
sS'TABLE'
p291
S"<class 'gluon.html.TABLE'>"
p292
sS'IS_IPV4'
p293
S"<class 'gluon.validators.IS_IPV4'>"
p294
sS'IS_LENGTH'
p295
S"<class 'gluon.validators.IS_LENGTH'>"
p296
sS'IS_IPV6'
p297
S"<class 'gluon.validators.IS_IPV6'>"
p298
sS'XML'
p299
S"<class 'gluon.html.XML'>"
p300
sS'B'
S"<class 'gluon.html.B'>"
p301
sS'IMG'
p302
S"<class 'gluon.html.IMG'>"
p303
sS'SQLTABLE'
p304
S"<class 'gluon.sqlhtml.SQLTABLE'>"
p305
sS'IS_MATCH'
p306
S"<class 'gluon.validators.IS_MATCH'>"
p307
sS'IS_ALPHANUMERIC'
p308
S"<class 'gluon.validators.IS_ALPHANUMERIC'>"
p309
sS'SPAN'
p310
S"<class 'gluon.html.SPAN'>"
p311
sS'IS_JSON'
p312
S"<class 'gluon.validators.IS_JSON'>"
p313
sS'IS_IPADDRESS'
p314
S"<class 'gluon.validators.IS_IPADDRESS'>"
p315
sS'venda_vista'
p316
S'10356.0'
p317
sS'IS_SLUG'
p318
S"<class 'gluon.validators.IS_SLUG'>"
p319
sS'BEAUTIFY'
p320
S"<class 'gluon.html.BEAUTIFY'>"
p321
sS'META'
p322
S"<class 'gluon.html.META'>"
p323
sS'AppConfig'
p324
S'<function AppConfig>'
p325
sS'IS_DATE'
p326
S"<class 'gluon.validators.IS_DATE'>"
p327
sS'IS_EMAIL'
p328
S"<class 'gluon.validators.IS_EMAIL'>"
p329
sS'IS_NOT_EMPTY'
p330
S"<class 'gluon.validators.IS_NOT_EMPTY'>"
p331
sS'xrange'
p332
S"<type 'xrange'>"
p333
sS'TBODY'
p334
S"<class 'gluon.html.TBODY'>"
p335
sS'CAT'
p336
S"<class 'gluon.html.CAT'>"
p337
sS'Field'
p338
S"<class 'pydal.objects.Field'>"
p339
sS'IS_LIST_OF_EMAILS'
p340
S"<class 'gluon.validators.IS_LIST_OF_EMAILS'>"
p341
sg58
S"<Storage {'function': 'prestacao_venda', 'cookie...se, 'is_https': True, 'client': '177.126.64.84'}>"
p342
sS'DIV'
p343
S"<class 'gluon.html.DIV'>"
p344
sS'LEGEND'
p345
S"<class 'gluon.html.LEGEND'>"
p346
sS'to_native'
p347
S'<function to_native>'
p348
sS'COLGROUP'
p349
S"<class 'gluon.html.COLGROUP'>"
p350
sS'DAL'
p351
S"<class 'pydal.base.DAL'>"
p352
sS'ASSIGNJS'
p353
S'<function ASSIGNJS>'
p354
sS'TR'
p355
S"<class 'gluon.html.TR'>"
p356
sS'LI'
p357
S"<class 'gluon.html.LI'>"
p358
sS'TH'
p359
S"<class 'gluon.html.TH'>"
p360
sS'TD'
p361
S"<class 'gluon.html.TD'>"
p362
sS'IS_URL'
p363
S"<class 'gluon.validators.IS_URL'>"
p364
sS'A'
S"<class 'gluon.html.A'>"
p365
sS'HEAD'
p366
S"<class 'gluon.html.HEAD'>"
p367
sS'IS_DATETIME_IN_RANGE'
p368
S"<class 'gluon.validators.IS_DATETIME_IN_RANGE'>"
p369
sS'FORM'
p370
S"<class 'gluon.html.FORM'>"
p371
sS'I'
S"<class 'gluon.html.I'>"
p372
sS'IS_NOT_IN_DB'
p373
S"<class 'gluon.validators.IS_NOT_IN_DB'>"
p374
sg125
S"<Storage {'body': <cStringIO.StringO object at 0...>, 'view': 'acs_relatorio/prestacao_venda.html'}>"
p375
sS'THEAD'
p376
S"<class 'gluon.html.THEAD'>"
p377
sS'ANY_OF'
p378
S"<class 'gluon.validators.ANY_OF'>"
p379
sS'IS_NULL_OR'
p380
S"<class 'gluon.validators.IS_EMPTY_OR'>"
p381
sS'IS_FLOAT_IN_RANGE'
p382
S"<class 'gluon.validators.IS_FLOAT_IN_RANGE'>"
p383
sS'IS_EXPR'
p384
S"<class 'gluon.validators.IS_EXPR'>"
p385
sS'media_pecas'
p386
S'0'
sS'IS_IN_SET'
p387
S"<class 'gluon.validators.IS_IN_SET'>"
p388
sS'IS_UPLOAD_FILENAME'
p389
S"<class 'gluon.validators.IS_UPLOAD_FILENAME'>"
p390
sS'TT'
p391
S"<class 'gluon.html.TT'>"
p392
sS'IS_DECIMAL_IN_RANGE'
p393
S"<class 'gluon.validators.IS_DECIMAL_IN_RANGE'>"
p394
sssS'traceback'
p395
S'Traceback (most recent call last):\n  File "/home/rogoberto/web2py/gluon/restricted.py", line 219, in restricted\n    exec(ccode, environment)\n  File "/home/rogoberto/web2py/applications/aluminum/views/acs_relatorio/prestacao_venda.html", line 177, in <module>\nZeroDivisionError: float division by zero\n'
p396
s.