(dp1
S'output'
p2
S'<class \'sqlite3.OperationalError\'> near "DESC": syntax error'
p3
sS'layer'
p4
S'/home/rogoberto/web2py/applications/aluminum/controllers/projeto.py'
p5
sS'code'
p6
S'<code object <module> at 0x7fc4a3eb6db0, file "/home/rogoberto/web2py/applications/aluminum/controllers/projeto.py", line 2>'
p7
sS'snapshot'
p8
(dp9
S'exception'
p10
(dp11
S'__module__'
p12
S"'sqlite3'"
p13
sS'__getslice__'
p14
S"<method-wrapper '__getslice__' of OperationalError object>"
p15
sS'__str__'
p16
S"<method-wrapper '__str__' of OperationalError object>"
p17
sS'__reduce__'
p18
S'<built-in method __reduce__ of OperationalError object>'
p19
sS'__dict__'
p20
S'{}'
p21
sS'__sizeof__'
p22
S'<built-in method __sizeof__ of OperationalError object>'
p23
sS'__weakref__'
p24
S'None'
p25
sS'message'
p26
S'\'near "DESC": syntax error\''
p27
sS'__init__'
p28
S"<method-wrapper '__init__' of OperationalError object>"
p29
sS'__setattr__'
p30
S"<method-wrapper '__setattr__' of OperationalError object>"
p31
sS'__reduce_ex__'
p32
S'<built-in method __reduce_ex__ of OperationalError object>'
p33
sS'__new__'
p34
S'<built-in method __new__ of type object>'
p35
sS'__format__'
p36
S'<built-in method __format__ of OperationalError object>'
p37
sS'__class__'
p38
S"<class 'sqlite3.OperationalError'>"
p39
sS'__doc__'
p40
S'None'
p41
sS'__getitem__'
p42
S"<method-wrapper '__getitem__' of OperationalError object>"
p43
sS'__setstate__'
p44
S'<built-in method __setstate__ of OperationalError object>'
p45
sS'__getattribute__'
p46
S"<method-wrapper '__getattribute__' of OperationalError object>"
p47
sS'args'
p48
S'(\'near "DESC": syntax error\',)'
p49
sS'__subclasshook__'
p50
S'<built-in method __subclasshook__ of type object>'
p51
sS'__unicode__'
p52
S'<built-in method __unicode__ of OperationalError object>'
p53
sS'__delattr__'
p54
S"<method-wrapper '__delattr__' of OperationalError object>"
p55
sS'__repr__'
p56
S"<method-wrapper '__repr__' of OperationalError object>"
p57
sS'__hash__'
p58
S"<method-wrapper '__hash__' of OperationalError object>"
p59
ssS'evalue'
p60
S'near "DESC": syntax error'
p61
sS'request'
p62
cgluon.html
XML_unpickle
p63
(S'sbZ\x00\x00<div><table><tr><td style="font-weight:bold;vertical-align:top;">ajax</td><td style="vertical-align:top;">:</td><td><div>False</div></td></tr><tr><td style="font-weight:bold;vertical-align:top;">application</td><td style="vertical-align:top;">:</td><td><div>aluminum</div></td></tr><tr><td style="font-weight:bold;vertical-align:top;">args</td><td style="vertical-align:top;">:</td><td><div><table><tr><td><div>32</div></td></tr></table></div></td></tr><tr><td style="font-weight:bold;vertical-align:top;">cid</td><td style="vertical-align:top;">:</td><td><div>None</div></td></tr><tr><td style="font-weight:bold;vertical-align:top;">client</td><td style="vertical-align:top;">:</td><td><div>177.37.226.197</div></td></tr><tr><td style="font-weight:bold;vertical-align:top;">controller</td><td style="vertical-align:top;">:</td><td><div>projeto</div></td></tr><tr><td style="font-weight:bold;vertical-align:top;">cookies</td><td style="vertical-align:top;">:</td><td><div><table><tr><td style="font-weight:bold;vertical-align:top;">session_id_admin</td><td style="vertical-align:top;">:</td><td><div>177.37.226.197-1da18f81-9612-4fec-936e-9ca051e075fe<table><tr><td style="font-weight:bold;vertical-align:top;">comment</td><td style="vertical-align:top;">:</td><td><div></div></td></tr><tr><td style="font-weight:bold;vertical-align:top;">domain</td><td style="vertical-align:top;">:</td><td><div></div></td></tr><tr><td style="font-weight:bold;vertical-align:top;">expires</td><td style="vertical-align:top;">:</td><td><div></div></td></tr><tr><td style="font-weight:bold;vertical-align:top;">httponly</td><td style="vertical-align:top;">:</td><td><div></div></td></tr><tr><td style="font-weight:bold;vertical-align:top;">max-age</td><td style="vertical-align:top;">:</td><td><div></div></td></tr><tr><td style="font-weight:bold;vertical-align:top;">path</td><td style="vertical-align:top;">:</td><td><div></div></td></tr><tr><td style="font-weight:bold;vertical-align:top;">secure</td><td style="vertical-align:top;">:</td><td><div></div></td></tr><tr><td style="font-weight:bold;vertical-align:top;">version</td><td style="vertical-align:top;">:</td><td><div></div></td></tr></table></div></td></tr><tr><td style="font-weight:bold;vertical-align:top;">session_id_aluminum</td><td style="vertical-align:top;">:</td><td><div>177.37.226.197-a62c222e-c1f3-4c65-ae38-80c368f73b5d<table><tr><td style="font-weight:bold;vertical-align:top;">comment</td><td style="vertical-align:top;">:</td><td><div></div></td></tr><tr><td style="font-weight:bold;vertical-align:top;">domain</td><td style="vertical-align:top;">:</td><td><div></div></td></tr><tr><td style="font-weight:bold;vertical-align:top;">expires</td><td style="vertical-align:top;">:</td><td><div></div></td></tr><tr><td style="font-weight:bold;vertical-align:top;">httponly</td><td style="vertical-align:top;">:</td><td><div></div></td></tr><tr><td style="font-weight:bold;vertical-align:top;">max-age</td><td style="vertical-align:top;">:</td><td><div></div></td></tr><tr><td style="font-weight:bold;vertical-align:top;">path</td><td style="vertical-align:top;">:</td><td><div></div></td></tr><tr><td style="font-weight:bold;vertical-align:top;">secure</td><td style="vertical-align:top;">:</td><td><div></div></td></tr><tr><td style="font-weight:bold;vertical-align:top;">version</td><td style="vertical-align:top;">:</td><td><div></div></td></tr></table></div></td></tr></table></div></td></tr><tr><td style="font-weight:bold;vertical-align:top;">env</td><td style="vertical-align:top;">:</td><td><div><table><tr><td style="font-weight:bold;vertical-align:top;">CONTENT_LENGTH</td><td style="vertical-align:top;">:</td><td><div></div></td></tr><tr><td style="font-weight:bold;vertical-align:top;">CONTENT_TYPE</td><td style="vertical-align:top;">:</td><td><div></div></td></tr><tr><td style="font-weight:bold;vertical-align:top;">DOCUMENT_ROOT</td><td style="vertical-align:top;">:</td><td><div>/usr/local/openresty/nginx/html</div></td></tr><tr><td style="font-weight:bold;vertical-align:top;">HTTPS</td><td style="vertical-align:top;">:</td><td><div>on</div></td></tr><tr><td style="font-weight:bold;vertical-align:top;">HTTP_ACCEPT</td><td style="vertical-align:top;">:</td><td><div>text/html,application/xhtml+xml,application/xml;q=0.9,image/webp,image/apng,*/*;q=0.8,application/signed-exchange;v=b3;q=0.9</div></td></tr><tr><td style="font-weight:bold;vertical-align:top;">HTTP_ACCEPT_ENCODING</td><td style="vertical-align:top;">:</td><td><div>gzip, deflate, br</div></td></tr><tr><td style="font-weight:bold;vertical-align:top;">HTTP_ACCEPT_LANGUAGE</td><td style="vertical-align:top;">:</td><td><div>pt-BR,pt;q=0.9,en-US;q=0.8,en;q=0.7</div></td></tr><tr><td style="font-weight:bold;vertical-align:top;">HTTP_CACHE_CONTROL</td><td style="vertical-align:top;">:</td><td><div>max-age=0</div></td></tr><tr><td style="font-weight:bold;vertical-align:top;">HTTP_CONNECTION</td><td style="vertical-align:top;">:</td><td><div>close</div></td></tr><tr><td style="font-weight:bold;vertical-align:top;">HTTP_COOKIE</td><td style="vertical-align:top;">:</td><td><div>_ga=GA1.2.786035724.1591068301; _gid=GA1.2.797322238.1593381358; session_id_aluminum=177.37.226.197-a62c222e-c1f3-4c65-ae38-80c368f73b5d; session_id_admin=177.37.226.197-1da18f81-9612-4fec-936e-9ca051e075fe</div></td></tr><tr><td style="font-weight:bold;vertical-align:top;">HTTP_HOST</td><td style="vertical-align:top;">:</td><td><div>rogoberto.pythonanywhere.com</div></td></tr><tr><td style="font-weight:bold;vertical-align:top;">HTTP_REFERER</td><td style="vertical-align:top;">:</td><td><div>https://rogoberto.pythonanywhere.com/aluminum/default/acesso_inicial/235</div></td></tr><tr><td style="font-weight:bold;vertical-align:top;">HTTP_SEC_FETCH_DEST</td><td style="vertical-align:top;">:</td><td><div>document</div></td></tr><tr><td style="font-weight:bold;vertical-align:top;">HTTP_SEC_FETCH_MODE</td><td style="vertical-align:top;">:</td><td><div>navigate</div></td></tr><tr><td style="font-weight:bold;vertical-align:top;">HTTP_SEC_FETCH_SITE</td><td style="vertical-align:top;">:</td><td><div>same-origin</div></td></tr><tr><td style="font-weight:bold;vertical-align:top;">HTTP_SEC_FETCH_USER</td><td style="vertical-align:top;">:</td><td><div>?1</div></td></tr><tr><td style="font-weight:bold;vertical-align:top;">HTTP_UPGRADE_INSECURE_REQUESTS</td><td style="vertical-align:top;">:</td><td><div>1</div></td></tr><tr><td style="font-weight:bold;vertical-align:top;">HTTP_USER_AGENT</td><td style="vertical-align:top;">:</td><td><div>Mozilla/5.0 (Windows NT 6.1; Win64; x64) AppleWebKit/537.36 (KHTML, like Gecko) Chrome/83.0.4103.116 Safari/537.36</div></td></tr><tr><td style="font-weight:bold;vertical-align:top;">HTTP_X_FORWARDED_FOR</td><td style="vertical-align:top;">:</td><td><div>177.37.226.197</div></td></tr><tr><td style="font-weight:bold;vertical-align:top;">HTTP_X_REAL_IP</td><td style="vertical-align:top;">:</td><td><div>177.37.226.197</div></td></tr><tr><td style="font-weight:bold;vertical-align:top;">PATH_INFO</td><td style="vertical-align:top;">:</td><td><div>/aluminum/projeto/acesso_projeto/32</div></td></tr><tr><td style="font-weight:bold;vertical-align:top;">QUERY_STRING</td><td style="vertical-align:top;">:</td><td><div></div></td></tr><tr><td style="font-weight:bold;vertical-align:top;">REMOTE_ADDR</td><td style="vertical-align:top;">:</td><td><div>10.0.0.52</div></td></tr><tr><td style="font-weight:bold;vertical-align:top;">REMOTE_PORT</td><td style="vertical-align:top;">:</td><td><div>42530</div></td></tr><tr><td style="font-weight:bold;vertical-align:top;">REQUEST_METHOD</td><td style="vertical-align:top;">:</td><td><div>GET</div></td></tr><tr><td style="font-weight:bold;vertical-align:top;">REQUEST_URI</td><td style="vertical-align:top;">:</td><td><div>/aluminum/projeto/acesso_projeto/32</div></td></tr><tr><td style="font-weight:bold;vertical-align:top;">SCRIPT_NAME</td><td style="vertical-align:top;">:</td><td><div></div></td></tr><tr><td style="font-weight:bold;vertical-align:top;">SERVER_NAME</td><td style="vertical-align:top;">:</td><td><div>rogoberto.pythonanywhere.com</div></td></tr><tr><td style="font-weight:bold;vertical-align:top;">SERVER_PORT</td><td style="vertical-align:top;">:</td><td><div>443</div></td></tr><tr><td style="font-weight:bold;vertical-align:top;">SERVER_PROTOCOL</td><td style="vertical-align:top;">:</td><td><div>HTTP/1.1</div></td></tr><tr><td style="font-weight:bold;vertical-align:top;">app_folders</td><td style="vertical-align:top;">:</td><td><div>set([&#x27;/home/rogoberto/web2py/applications/admin/&#x27;, &#x27;/home/rogoberto/web2py/applications/aluminum/&#x27;])</div></td></tr><tr><td style="font-weight:bold;vertical-align:top;">applications_parent</td><td style="vertical-align:top;">:</td><td><div>/home/rogoberto/web2py</div></td></tr><tr><td style="font-weight:bold;vertical-align:top;">content_length</td><td style="vertical-align:top;">:</td><td><div></div></td></tr><tr><td style="font-weight:bold;vertical-align:top;">content_type</td><td style="vertical-align:top;">:</td><td><div></div></td></tr><tr><td style="font-weight:bold;vertical-align:top;">db_sessions</td><td style="vertical-align:top;">:</td><td><div>set([])</div></td></tr><tr><td style="font-weight:bold;vertical-align:top;">debugging</td><td style="vertical-align:top;">:</td><td><div>True</div></td></tr><tr><td style="font-weight:bold;vertical-align:top;">document_root</td><td style="vertical-align:top;">:</td><td><div>/usr/local/openresty/nginx/html</div></td></tr><tr><td style="font-weight:bold;vertical-align:top;">gluon_parent</td><td style="vertical-align:top;">:</td><td><div>/home/rogoberto/web2py</div></td></tr><tr><td style="font-weight:bold;vertical-align:top;">http_accept</td><td style="vertical-align:top;">:</td><td><div>text/html,application/xhtml+xml,application/xml;q=0.9,image/webp,image/apng,*/*;q=0.8,application/signed-exchange;v=b3;q=0.9</div></td></tr><tr><td style="font-weight:bold;vertical-align:top;">http_accept_encoding</td><td style="vertical-align:top;">:</td><td><div>gzip, deflate, br</div></td></tr><tr><td style="font-weight:bold;vertical-align:top;">http_accept_language</td><td style="vertical-align:top;">:</td><td><div>pt-BR,pt;q=0.9,en-US;q=0.8,en;q=0.7</div></td></tr><tr><td style="font-weight:bold;vertical-align:top;">http_cache_control</td><td style="vertical-align:top;">:</td><td><div>max-age=0</div></td></tr><tr><td style="font-weight:bold;vertical-align:top;">http_connection</td><td style="vertical-align:top;">:</td><td><div>close</div></td></tr><tr><td style="font-weight:bold;vertical-align:top;">http_cookie</td><td style="vertical-align:top;">:</td><td><div>_ga=GA1.2.786035724.1591068301; _gid=GA1.2.797322238.1593381358; session_id_aluminum=177.37.226.197-a62c222e-c1f3-4c65-ae38-80c368f73b5d; session_id_admin=177.37.226.197-1da18f81-9612-4fec-936e-9ca051e075fe</div></td></tr><tr><td style="font-weight:bold;vertical-align:top;">http_host</td><td style="vertical-align:top;">:</td><td><div>rogoberto.pythonanywhere.com</div></td></tr><tr><td style="font-weight:bold;vertical-align:top;">http_referer</td><td style="vertical-align:top;">:</td><td><div>https://rogoberto.pythonanywhere.com/aluminum/default/acesso_inicial/235</div></td></tr><tr><td style="font-weight:bold;vertical-align:top;">http_sec_fetch_dest</td><td style="vertical-align:top;">:</td><td><div>document</div></td></tr><tr><td style="font-weight:bold;vertical-align:top;">http_sec_fetch_mode</td><td style="vertical-align:top;">:</td><td><div>navigate</div></td></tr><tr><td style="font-weight:bold;vertical-align:top;">http_sec_fetch_site</td><td style="vertical-align:top;">:</td><td><div>same-origin</div></td></tr><tr><td style="font-weight:bold;vertical-align:top;">http_sec_fetch_user</td><td style="vertical-align:top;">:</td><td><div>?1</div></td></tr><tr><td style="font-weight:bold;vertical-align:top;">http_upgrade_insecure_requests</td><td style="vertical-align:top;">:</td><td><div>1</div></td></tr><tr><td style="font-weight:bold;vertical-align:top;">http_user_agent</td><td style="vertical-align:top;">:</td><td><div>Mozilla/5.0 (Windows NT 6.1; Win64; x64) AppleWebKit/537.36 (KHTML, like Gecko) Chrome/83.0.4103.116 Safari/537.36</div></td></tr><tr><td style="font-weight:bold;vertical-align:top;">http_x_forwarded_for</td><td style="vertical-align:top;">:</td><td><div>177.37.226.197</div></td></tr><tr><td style="font-weight:bold;vertical-align:top;">http_x_real_ip</td><td style="vertical-align:top;">:</td><td><div>177.37.226.197</div></td></tr><tr><td style="font-weight:bold;vertical-align:top;">https</td><td style="vertical-align:top;">:</td><td><div>on</div></td></tr><tr><td style="font-weight:bold;vertical-align:top;">is_jython</td><td style="vertical-align:top;">:</td><td><div>False</div></td></tr><tr><td style="font-weight:bold;vertical-align:top;">is_py2</td><td style="vertical-align:top;">:</td><td><div>True</div></td></tr><tr><td style="font-weight:bold;vertical-align:top;">is_pypy</td><td style="vertical-align:top;">:</td><td><div>False</div></td></tr><tr><td style="font-weight:bold;vertical-align:top;">is_source</td><td style="vertical-align:top;">:</td><td><div>True</div></td></tr><tr><td style="font-weight:bold;vertical-align:top;">local_hosts</td><td style="vertical-align:top;">:</td><td><div><table><tr><td><div>35.173.69.207</div></td></tr><tr><td><div>::ffff:127.0.0.1</div></td></tr><tr><td><div>::1</div></td></tr><tr><td><div>rogoberto.pythonanywhere.com</div></td></tr><tr><td><div>127.0.0.1</div></td></tr><tr><td><div>green-liveweb14</div></td></tr><tr><td><div>localhost</div></td></tr></table></div></td></tr><tr><td style="font-weight:bold;vertical-align:top;">path_info</td><td style="vertical-align:top;">:</td><td><div>/aluminum/projeto/acesso_projeto/32</div></td></tr><tr><td style="font-weight:bold;vertical-align:top;">query_string</td><td style="vertical-align:top;">:</td><td><div></div></td></tr><tr><td style="font-weight:bold;vertical-align:top;">remote_addr</td><td style="vertical-align:top;">:</td><td><div>10.0.0.52</div></td></tr><tr><td style="font-weight:bold;vertical-align:top;">remote_port</td><td style="vertical-align:top;">:</td><td><div>42530</div></td></tr><tr><td style="font-weight:bold;vertical-align:top;">request_method</td><td style="vertical-align:top;">:</td><td><div>GET</div></td></tr><tr><td style="font-weight:bold;vertical-align:top;">request_uri</td><td style="vertical-align:top;">:</td><td><div>/aluminum/projeto/acesso_projeto/32</div></td></tr><tr><td style="font-weight:bold;vertical-align:top;">script_name</td><td style="vertical-align:top;">:</td><td><div></div></td></tr><tr><td style="font-weight:bold;vertical-align:top;">server_name</td><td style="vertical-align:top;">:</td><td><div>rogoberto.pythonanywhere.com</div></td></tr><tr><td style="font-weight:bold;vertical-align:top;">server_port</td><td style="vertical-align:top;">:</td><td><div>443</div></td></tr><tr><td style="font-weight:bold;vertical-align:top;">server_protocol</td><td style="vertical-align:top;">:</td><td><div>HTTP/1.1</div></td></tr><tr><td style="font-weight:bold;vertical-align:top;">uwsgi.node</td><td style="vertical-align:top;">:</td><td><div>green-liveweb14</div></td></tr><tr><td style="font-weight:bold;vertical-align:top;">uwsgi.version</td><td style="vertical-align:top;">:</td><td><div>2.0.17.1</div></td></tr><tr><td style="font-weight:bold;vertical-align:top;">uwsgi_node</td><td style="vertical-align:top;">:</td><td><div>green-liveweb14</div></td></tr><tr><td style="font-weight:bold;vertical-align:top;">uwsgi_version</td><td style="vertical-align:top;">:</td><td><div>2.0.17.1</div></td></tr><tr><td style="font-weight:bold;vertical-align:top;">web2py_path</td><td style="vertical-align:top;">:</td><td><div>/home/rogoberto/web2py</div></td></tr><tr><td style="font-weight:bold;vertical-align:top;">web2py_version</td><td style="vertical-align:top;">:</td><td><div>2.17.1-stable+timestamp.2018.08.06.01.02.56</div></td></tr><tr><td style="font-weight:bold;vertical-align:top;">wsgi.errors</td><td style="vertical-align:top;">:</td><td><div>&lt;uwsgi_file__bin_user_wsgi_wrapper.ErrorLogFile object at 0x7fc4aaccad10&gt;</div></td></tr><tr><td style="font-weight:bold;vertical-align:top;">wsgi.file_wrapper</td><td style="vertical-align:top;">:</td><td><div>&lt;built-in function uwsgi_sendfile&gt;</div></td></tr><tr><td style="font-weight:bold;vertical-align:top;">wsgi.input</td><td style="vertical-align:top;">:</td><td><div>&lt;uwsgi._Input object at 0x7fc4ac0daeb8&gt;</div></td></tr><tr><td style="font-weight:bold;vertical-align:top;">wsgi.multiprocess</td><td style="vertical-align:top;">:</td><td><div>False</div></td></tr><tr><td style="font-weight:bold;vertical-align:top;">wsgi.multithread</td><td style="vertical-align:top;">:</td><td><div>False</div></td></tr><tr><td style="font-weight:bold;vertical-align:top;">wsgi.run_once</td><td style="vertical-align:top;">:</td><td><div>False</div></td></tr><tr><td style="font-weight:bold;vertical-align:top;">wsgi.url_scheme</td><td style="vertical-align:top;">:</td><td><div>https</div></td></tr><tr><td style="font-weight:bold;vertical-align:top;">wsgi.version</td><td style="vertical-align:top;">:</td><td><div><table><tr><td><div>1</div></td></tr><tr><td><div>0</div></td></tr></table></div></td></tr><tr><td style="font-weight:bold;vertical-align:top;">wsgi_errors</td><td style="vertical-align:top;">:</td><td><div>&lt;uwsgi_file__bin_user_wsgi_wrapper.ErrorLogFile object at 0x7fc4aaccad10&gt;</div></td></tr><tr><td style="font-weight:bold;vertical-align:top;">wsgi_file_wrapper</td><td style="vertical-align:top;">:</td><td><div>&lt;built-in function uwsgi_sendfile&gt;</div></td></tr><tr><td style="font-weight:bold;vertical-align:top;">wsgi_input</td><td style="vertical-align:top;">:</td><td><div>&lt;uwsgi._Input object at 0x7fc4ac0daeb8&gt;</div></td></tr><tr><td style="font-weight:bold;vertical-align:top;">wsgi_multiprocess</td><td style="vertical-align:top;">:</td><td><div>False</div></td></tr><tr><td style="font-weight:bold;vertical-align:top;">wsgi_multithread</td><td style="vertical-align:top;">:</td><td><div>False</div></td></tr><tr><td style="font-weight:bold;vertical-align:top;">wsgi_run_once</td><td style="vertical-align:top;">:</td><td><div>False</div></td></tr><tr><td style="font-weight:bold;vertical-align:top;">wsgi_url_scheme</td><td style="vertical-align:top;">:</td><td><div>https</div></td></tr><tr><td style="font-weight:bold;vertical-align:top;">wsgi_version</td><td style="vertical-align:top;">:</td><td><div><table><tr><td><div>1</div></td></tr><tr><td><div>0</div></td></tr></table></div></td></tr></table></div></td></tr><tr><td style="font-weight:bold;vertical-align:top;">extension</td><td style="vertical-align:top;">:</td><td><div>html</div></td></tr><tr><td style="font-weight:bold;vertical-align:top;">folder</td><td style="vertical-align:top;">:</td><td><div>/home/rogoberto/web2py/applications/aluminum/</div></td></tr><tr><td style="font-weight:bold;vertical-align:top;">function</td><td style="vertical-align:top;">:</td><td><div>acesso_projeto</div></td></tr><tr><td style="font-weight:bold;vertical-align:top;">global_settings</td><td style="vertical-align:top;">:</td><td><div><table><tr><td style="font-weight:bold;vertical-align:top;">app_folders</td><td style="vertical-align:top;">:</td><td><div>set([&#x27;/home/rogoberto/web2py/applications/admin/&#x27;, &#x27;/home/rogoberto/web2py/applications/aluminum/&#x27;])</div></td></tr><tr><td style="font-weight:bold;vertical-align:top;">applications_parent</td><td style="vertical-align:top;">:</td><td><div>/home/rogoberto/web2py</div></td></tr><tr><td style="font-weight:bold;vertical-align:top;">db_sessions</td><td style="vertical-align:top;">:</td><td><div>set([])</div></td></tr><tr><td style="font-weight:bold;vertical-align:top;">debugging</td><td style="vertical-align:top;">:</td><td><div>True</div></td></tr><tr><td style="font-weight:bold;vertical-align:top;">gluon_parent</td><td style="vertical-align:top;">:</td><td><div>/home/rogoberto/web2py</div></td></tr><tr><td style="font-weight:bold;vertical-align:top;">is_jython</td><td style="vertical-align:top;">:</td><td><div>False</div></td></tr><tr><td style="font-weight:bold;vertical-align:top;">is_py2</td><td style="vertical-align:top;">:</td><td><div>True</div></td></tr><tr><td style="font-weight:bold;vertical-align:top;">is_pypy</td><td style="vertical-align:top;">:</td><td><div>False</div></td></tr><tr><td style="font-weight:bold;vertical-align:top;">is_source</td><td style="vertical-align:top;">:</td><td><div>True</div></td></tr><tr><td style="font-weight:bold;vertical-align:top;">local_hosts</td><td style="vertical-align:top;">:</td><td><div><table><tr><td><div>35.173.69.207</div></td></tr><tr><td><div>::ffff:127.0.0.1</div></td></tr><tr><td><div>::1</div></td></tr><tr><td><div>rogoberto.pythonanywhere.com</div></td></tr><tr><td><div>127.0.0.1</div></td></tr><tr><td><div>green-liveweb14</div></td></tr><tr><td><div>localhost</div></td></tr></table></div></td></tr><tr><td style="font-weight:bold;vertical-align:top;">web2py_version</td><td style="vertical-align:top;">:</td><td><div>2.17.1-stable+timestamp.2018.08.06.01.02.56</div></td></tr></table></div></td></tr><tr><td style="font-weight:bold;vertical-align:top;">is_https</td><td style="vertical-align:top;">:</td><td><div>True</div></td></tr><tr><td style="font-weight:bold;vertical-align:top;">is_local</td><td style="vertical-align:top;">:</td><td><div>False</div></td></tr><tr><td style="font-weight:bold;vertical-align:top;">is_restful</td><td style="vertical-align:top;">:</td><td><div>False</div></td></tr><tr><td style="font-weight:bold;vertical-align:top;">is_scheduler</td><td style="vertical-align:top;">:</td><td><div>False</div></td></tr><tr><td style="font-weight:bold;vertical-align:top;">is_shell</td><td style="vertical-align:top;">:</td><td><div>False</div></td></tr><tr><td style="font-weight:bold;vertical-align:top;">method</td><td style="vertical-align:top;">:</td><td><div>GET</div></td></tr><tr><td style="font-weight:bold;vertical-align:top;">now</td><td style="vertical-align:top;">:</td><td><div>datetime.datetime(2020, 6, 28, 22, 8, 25, 698944)</div></td></tr><tr><td style="font-weight:bold;vertical-align:top;">raw_args</td><td style="vertical-align:top;">:</td><td><div>32</div></td></tr><tr><td style="font-weight:bold;vertical-align:top;">raw_extension</td><td style="vertical-align:top;">:</td><td><div>None</div></td></tr><tr><td style="font-weight:bold;vertical-align:top;">url</td><td style="vertical-align:top;">:</td><td><div>/aluminum/projeto/acesso_projeto/32</div></td></tr><tr><td style="font-weight:bold;vertical-align:top;">utcnow</td><td style="vertical-align:top;">:</td><td><div>datetime.datetime(2020, 6, 28, 22, 8, 25, 698967)</div></td></tr><tr><td style="font-weight:bold;vertical-align:top;">wsgi</td><td style="vertical-align:top;">:</td><td><div>&lt;gluon.main.LazyWSGI object at 0x7fc4a3d0cbd0&gt;</div></td></tr></table></div>'
tRp64
sS'frames'
p65
(lp66
(dp67
S'file'
p68
S'/home/rogoberto/web2py/gluon/restricted.py'
p69
sS'dump'
p70
(dp71
S'environment'
p72
S"{'A': <class 'gluon.html.A'>, 'ANY_OF': <class 'gluon.validators.ANY_OF'>, 'ASSIGNJS': <function ASSIGNJS>, 'AppConfig': <function AppConfig>, 'Auth': <class 'gluon.tools.Auth'>, 'B': <class 'gluon.html.B'>, 'BEAUTIFY': <class 'gluon.html.BEAUTIFY'>, 'BODY': <class 'gluon.html.BODY'>, 'BR': <class 'gluon.html.BR'>, 'BUTTON': <class 'gluon.html.BUTTON'>, ...}"
p73
sS'ccode'
p74
S'<code object <module> at 0x7fc4a3eb6db0, file "/...cations/aluminum/controllers/projeto.py", line 2>'
p75
ssS'lnum'
p76
I219
sS'lines'
p77
(dp78
I214
S'    if environment is None:'
p79
sI215
S'        environment = {}'
p80
sI216
S"    environment['__file__'] = layer"
p81
sI217
S"    environment['__name__'] = '__restricted__'"
p82
sI218
S'    try:'
p83
sI219
S'        exec(ccode, environment)'
p84
sI220
S'    except HTTP:'
p85
sI221
S'        raise'
p86
sI222
S'    except RestrictedError:'
p87
sI223
S'        # do not encapsulate (obfuscate) the original RestrictedError'
p88
ssS'call'
p89
S'(ccode=<code object <module> at 0x7fc4a3eb6db0, file "/...cations/aluminum/controllers/projeto.py", line 2>, environment={\'A\': <class \'gluon.html.A\'>, \'ANY_OF\': <class \'gluon.validators.ANY_OF\'>, \'ASSIGNJS\': <function ASSIGNJS>, \'AppConfig\': <function AppConfig>, \'Auth\': <class \'gluon.tools.Auth\'>, \'B\': <class \'gluon.html.B\'>, \'BEAUTIFY\': <class \'gluon.html.BEAUTIFY\'>, \'BODY\': <class \'gluon.html.BODY\'>, \'BR\': <class \'gluon.html.BR\'>, \'BUTTON\': <class \'gluon.html.BUTTON\'>, ...}, layer=\'/home/rogoberto/web2py/applications/aluminum/controllers/projeto.py\', scode=<code object <module> at 0x7fc4a3eb6db0, file "/...cations/aluminum/controllers/projeto.py", line 2>)'
p90
sS'func'
p91
S'restricted'
p92
sa(dp93
g68
S'/home/rogoberto/web2py/applications/aluminum/controllers/projeto.py'
p94
sg70
(dp95
sg76
I90
sg77
(dp96
I79
S'    projeto = db.projeto(request.args(0, cast=int))'
p97
sI80
S'    return locals()'
p98
sI81
S''
sI82
S'@auth.requires_login()'
p99
sI83
S'def prestacao_individual():'
p100
sI84
S'    projeto = db.projeto(request.args(0, cast=int))'
p101
sI85
S'    rows_vendedor = db(db.vendedor.projeto == projeto.id).select(orderby=~db.vendedor.total_vendas)'
p102
sI86
S'    rows_sub = db(db.sub_venda.projeto == projeto.id).select(orderby=db.sub_venda.data_inicio_cobranca)'
p103
sI87
S'    rows_vendas = db(db.venda).select(orderby=db.venda.vendedor)'
p104
sI88
S'    return locals()'
p105
ssg89
S'()'
p106
sg91
S'<module>'
p107
sa(dp108
g68
S'/home/rogoberto/web2py/gluon/globals.py'
p109
sg70
(dp110
S'self'
p111
S'undefined'
p112
sS'f'
S'<function acesso_projeto>'
p113
ssg76
I421
sg77
(dp114
I416
S"        self.flash = ''            # used by the default view layout"
p115
sI417
S'        self.meta = Storage()      # used by web2py_ajax.html'
p116
sI418
S'        self.menu = []             # used by the default view layout'
p117
sI419
S'        self.files = []            # used by web2py_ajax.html'
p118
sI420
S'        self._vars = None'
p119
sI421
S'        self._caller = lambda f: f()'
p120
sI422
S'        self._view_environment = None'
p121
sI423
S'        self._custom_commit = None'
p122
sI424
S'        self._custom_rollback = None'
p123
sI425
S"        self.generic_patterns = ['*']"
p124
ssg89
S'(f=<function acesso_projeto>)'
p125
sg91
S'<lambda>'
p126
sa(dp127
g68
S'/home/rogoberto/web2py/gluon/tools.py'
p128
sg70
(dp129
S'action'
p130
S'<function acesso_projeto>'
p131
sS'a'
S'()'
p132
sS'b'
g21
ssg76
I3862
sg77
(dp133
I3857
S'                    flag = condition'
p134
sI3858
S'                if not flag:'
p135
sI3859
S'                    current.session.flash = self.messages.access_denied'
p136
sI3860
S'                    return call_or_redirect('
p137
sI3861
S'                        self.settings.on_failed_authorization)'
p138
sI3862
S'                return action(*a, **b)'
p139
sI3863
S'            f.__doc__ = action.__doc__'
p140
sI3864
S'            f.__name__ = action.__name__'
p141
sI3865
S'            f.__dict__.update(action.__dict__)'
p142
sI3866
S'            return f'
p143
ssg89
S'(*a=(), **b={})'
p144
sg91
S'f'
sa(dp145
g68
S'/home/rogoberto/web2py/applications/aluminum/controllers/projeto.py'
p146
sg70
(dp147
S'orderby'
p148
g112
sS').data_envio'
p149
g112
sS').select'
p150
g112
sS'db.carrada'
p151
S'<Table carrada (id, projeto, data_envio, descric...tal_pecas, total_preco, total_custo, finalizada)>'
p152
sS'db.carrada.data_envio'
p153
S'<pydal.objects.Field object>'
p154
sS'global db'
p155
S'<DAL uri="sqlite://storage.sqlite">'
p156
sS'data'
p157
g112
sS').first'
p158
S'None'
p159
ssg76
I10
sg77
(dp160
I5
S'    projeto = db.projeto(request.args(0, cast=int))'
p161
sI6
S'    empresa = db.empresa(projeto.empresa)'
p162
sI7
S'    try:'
p163
sI8
S'        data= db(db.carrada.projeto == projeto.id).select(orderby=db.carrada.data_envio).first().data_envio'
p164
sI9
S'    except:'
p165
sI10
S'        data = db(db.carrada).select(orderby=~~db.carrada.data_envio).first().data_envio'
p166
sI11
S'    #caso o usuario da empresa for difer\xc3\xaante do usuario logado'
p167
sI12
S'    #redireciona pois ser\xc3\xa1 um usuario do projeto (chefe) ou'
p168
sI13
S'    #usuario da sub_venda(Cobrador)'
p169
sI14
S'    usuario=auth.user'
p170
ssg89
S'()'
p171
sg91
S'acesso_projeto'
p172
sa(dp173
g68
S'/home/rogoberto/web2py/gluon/packages/dal/pydal/objects.py'
p174
sg70
(dp175
S'self.query'
p176
S'<Query ("carrada"."id" IS NOT NULL)>'
p177
sS'adapter.select'
p178
S'<bound method SQLite.select of <pydal.adapters.sqlite.SQLite object>>'
p179
sS'fields'
p180
S'[<pydal.objects.Field object>, <pydal.objects.Field object>, <pydal.objects.Field object>, <pydal.objects.Field object>, <pydal.objects.Field object>, <pydal.objects.Field object>, <pydal.objects.Field object>, <pydal.objects.Field object>]'
p181
sS'adapter'
p182
S'<pydal.adapters.sqlite.SQLite object>'
p183
sS'attributes'
p184
S"{'orderby': <pydal.objects.Expression object>}"
p185
sS'self'
p186
S'<Set ("carrada"."id" IS NOT NULL)>'
p187
ssg76
I2277
sg77
(dp188
I2272
S"                                    attributes.get('join', None),"
p189
sI2273
S"                                    attributes.get('left', None),"
p190
sI2274
S"                                    attributes.get('orderby', None),"
p191
sI2275
S"                                    attributes.get('groupby', None))"
p192
sI2276
S'        fields = adapter.expand_all(fields, tablenames)'
p193
sI2277
S'        return adapter.select(self.query, fields, attributes)'
p194
sI2278
S''
sI2279
S'    def iterselect(self, *fields, **attributes):'
p195
sI2280
S'        adapter = self.db._adapter'
p196
sI2281
S'        tablenames = adapter.tables(self.query,'
p197
ssg89
S'(self=<Set ("carrada"."id" IS NOT NULL)>, *fields=[<pydal.objects.Field object>, <pydal.objects.Field object>, <pydal.objects.Field object>, <pydal.objects.Field object>, <pydal.objects.Field object>, <pydal.objects.Field object>, <pydal.objects.Field object>, <pydal.objects.Field object>], **attributes={\'orderby\': <pydal.objects.Expression object>})'
p198
sg91
S'select'
p199
sa(dp200
g68
S'/home/rogoberto/web2py/gluon/packages/dal/pydal/adapters/sqlite.py'
p201
sg70
(dp202
S'fields'
p203
S'[<pydal.objects.Field object>, <pydal.objects.Field object>, <pydal.objects.Field object>, <pydal.objects.Field object>, <pydal.objects.Field object>, <pydal.objects.Field object>, <pydal.objects.Field object>, <pydal.objects.Field object>]'
p204
sS'self'
p205
S'<pydal.adapters.sqlite.SQLite object>'
p206
sS').select'
p207
S'<bound method SQLite.select of <pydal.adapters.sqlite.SQLite object>>'
p208
sS'attributes'
p209
S"{'orderby': <pydal.objects.Expression object>}"
p210
sS'query'
p211
S'<Query ("carrada"."id" IS NOT NULL)>'
p212
sS'builtinsuper'
p213
S"<type 'super'>"
p214
sS'global SQLite'
p215
S"<class 'pydal.adapters.sqlite.SQLite'>"
p216
ssg76
I82
sg77
(dp217
I77
S"            self.execute('PRAGMA foreign_keys=ON;')"
p218
sI78
S''
sI79
S'    def select(self, query, fields, attributes):'
p219
sI80
S"        if attributes.get('for_update', False) and 'cache' not in attributes:"
p220
sI81
S"            self.execute('BEGIN IMMEDIATE TRANSACTION;')"
p221
sI82
S'        return super(SQLite, self).select(query, fields, attributes)'
p222
sI83
S''
sI84
S'    def delete(self, table, query):'
p223
sI85
S'        db = self.db'
p224
sI86
S'        deleted = [x[table._id.name] for x in db(query).select(table._id)]'
p225
ssg89
S'(self=<pydal.adapters.sqlite.SQLite object>, query=<Query ("carrada"."id" IS NOT NULL)>, fields=[<pydal.objects.Field object>, <pydal.objects.Field object>, <pydal.objects.Field object>, <pydal.objects.Field object>, <pydal.objects.Field object>, <pydal.objects.Field object>, <pydal.objects.Field object>, <pydal.objects.Field object>], attributes={\'orderby\': <pydal.objects.Expression object>})'
p226
sg91
g199
sa(dp227
g68
S'/home/rogoberto/web2py/gluon/packages/dal/pydal/adapters/base.py'
p228
sg70
(dp229
S'self._select_aux'
p230
S'<bound method SQLite._select_aux of <pydal.adapters.sqlite.SQLite object>>'
p231
sS'fields'
p232
S'[<pydal.objects.Field object>, <pydal.objects.Field object>, <pydal.objects.Field object>, <pydal.objects.Field object>, <pydal.objects.Field object>, <pydal.objects.Field object>, <pydal.objects.Field object>, <pydal.objects.Field object>]'
p233
sS'self'
p234
S'<pydal.adapters.sqlite.SQLite object>'
p235
sS'sql'
p236
S'\'SELECT "carrada"."id", "carrada"."projeto", "car... NULL) ORDER BY "carrada"."data_envio" DESC DESC;\''
p237
sS'attributes'
p238
S"{'orderby': <pydal.objects.Expression object>}"
p239
sS'colnames'
p240
S"['carrada.id', 'carrada.projeto', 'carrada.data_envio', 'carrada.descricao', 'carrada.total_pecas', 'carrada.total_preco', 'carrada.total_custo', 'carrada.finalizada']"
p241
ssg76
I763
sg77
(dp242
I758
S'        colnames, sql = self._select_wcols(query, fields, **attributes)'
p243
sI759
S"        cache = attributes.get('cache', None)"
p244
sI760
S"        if cache and attributes.get('cacheable', False):"
p245
sI761
S'            return self._cached_select('
p246
sI762
S'                cache, sql, fields, attributes, colnames)'
p247
sI763
S'        return self._select_aux(sql, fields, attributes, colnames)'
p248
sI764
S''
sI765
S'    def iterselect(self, query, fields, attributes):'
p249
sI766
S'        colnames, sql = self._select_wcols(query, fields, **attributes)'
p250
sI767
S"        cacheable = attributes.get('cacheable', False)"
p251
ssg89
S'(self=<pydal.adapters.sqlite.SQLite object>, query=<Query ("carrada"."id" IS NOT NULL)>, fields=[<pydal.objects.Field object>, <pydal.objects.Field object>, <pydal.objects.Field object>, <pydal.objects.Field object>, <pydal.objects.Field object>, <pydal.objects.Field object>, <pydal.objects.Field object>, <pydal.objects.Field object>], attributes={\'orderby\': <pydal.objects.Expression object>})'
p252
sg91
g199
sa(dp253
g68
S'/home/rogoberto/web2py/gluon/packages/dal/pydal/adapters/base.py'
p254
sg70
(dp255
S'self'
p256
S'<pydal.adapters.sqlite.SQLite object>'
p257
sS'rows'
p258
g112
sS'self._select_aux_execute'
p259
S'<bound method SQLite._select_aux_execute of <pydal.adapters.sqlite.SQLite object>>'
p260
sS'sql'
p261
S'\'SELECT "carrada"."id", "carrada"."projeto", "car... NULL) ORDER BY "carrada"."data_envio" DESC DESC;\''
p262
ssg76
I719
sg77
(dp263
I714
S'        return self.cursor.fetchall()'
p264
sI715
S''
sI716
S'    def _select_aux(self, sql, fields, attributes, colnames):'
p265
sI717
S"        cache = attributes.get('cache', None)"
p266
sI718
S'        if not cache:'
p267
sI719
S'            rows = self._select_aux_execute(sql)'
p268
sI720
S'        else:'
p269
sI721
S'            if isinstance(cache, dict):'
p270
sI722
S"                cache_model = cache['model']"
p271
sI723
S"                time_expire = cache['expiration']"
p272
ssg89
S'(self=<pydal.adapters.sqlite.SQLite object>, sql=\'SELECT "carrada"."id", "carrada"."projeto", "car... NULL) ORDER BY "carrada"."data_envio" DESC DESC;\', fields=[<pydal.objects.Field object>, <pydal.objects.Field object>, <pydal.objects.Field object>, <pydal.objects.Field object>, <pydal.objects.Field object>, <pydal.objects.Field object>, <pydal.objects.Field object>, <pydal.objects.Field object>], attributes={\'orderby\': <pydal.objects.Expression object>}, colnames=[\'carrada.id\', \'carrada.projeto\', \'carrada.data_envio\', \'carrada.descricao\', \'carrada.total_pecas\', \'carrada.total_preco\', \'carrada.total_custo\', \'carrada.finalizada\'])'
p273
sg91
S'_select_aux'
p274
sa(dp275
g68
S'/home/rogoberto/web2py/gluon/packages/dal/pydal/adapters/base.py'
p276
sg70
(dp277
S'self'
p278
S'<pydal.adapters.sqlite.SQLite object>'
p279
sS'self.execute'
p280
S'<bound method SQLite.wrap of <pydal.adapters.sqlite.SQLite object>>'
p281
sS'sql'
p282
S'\'SELECT "carrada"."id", "carrada"."projeto", "car... NULL) ORDER BY "carrada"."data_envio" DESC DESC;\''
p283
ssg76
I713
sg77
(dp284
I708
S''
sI709
S'    def nested_select(self, query, fields, attributes):'
p285
sI710
S'        return Select(self.db, query, fields, attributes)'
p286
sI711
S''
sI712
S'    def _select_aux_execute(self, sql):'
p287
sI713
S'        self.execute(sql)'
p288
sI714
S'        return self.cursor.fetchall()'
p289
sI715
S''
sI716
S'    def _select_aux(self, sql, fields, attributes, colnames):'
p290
sI717
S"        cache = attributes.get('cache', None)"
p291
ssg89
S'(self=<pydal.adapters.sqlite.SQLite object>, sql=\'SELECT "carrada"."id", "carrada"."projeto", "car... NULL) ORDER BY "carrada"."data_envio" DESC DESC;\')'
p292
sg91
S'_select_aux_execute'
p293
sa(dp294
g68
S'/home/rogoberto/web2py/gluon/packages/dal/pydal/adapters/__init__.py'
p295
sg70
(dp296
S'kwargs'
p297
g21
sS'args'
p298
S'(<pydal.adapters.sqlite.SQLite object>, \'SELECT "carrada"."id", "carrada"."projeto", "car... NULL) ORDER BY "carrada"."data_envio" DESC DESC;\')'
p299
sS'f'
S'<function execute>'
p300
ssg76
I67
sg77
(dp301
I64
S'            if len(args) > 1:'
p302
sI65
S'                raise ValueError(args[1])'
p303
sI66
S"            raise RuntimeError('no connection available')"
p304
sI67
S'        return f(*args, **kwargs)'
p305
sI68
S'    return wrap'
p306
sI69
S''
sI70
S''
sI71
S'from .base import SQLAdapter, NoSQLAdapter'
p307
sI62
S'    def wrap(*args, **kwargs):'
p308
sI63
S'        if not args[0].connection:'
p309
ssg89
S'(*args=(<pydal.adapters.sqlite.SQLite object>, \'SELECT "carrada"."id", "carrada"."projeto", "car... NULL) ORDER BY "carrada"."data_envio" DESC DESC;\'), **kwargs={})'
p310
sg91
S'wrap'
p311
sa(dp312
g68
S'/home/rogoberto/web2py/gluon/packages/dal/pydal/adapters/base.py'
p313
sg70
(dp314
S'rv'
p315
g112
sS'self'
p316
S'<pydal.adapters.sqlite.SQLite object>'
p317
sS'args'
p318
S'(\'SELECT "carrada"."id", "carrada"."projeto", "car... NULL) ORDER BY "carrada"."data_envio" DESC DESC;\',)'
p319
sS'self.cursor'
p320
S'<sqlite3.Cursor object>'
p321
sS'command'
p322
S'\'SELECT "carrada"."id", "carrada"."projeto", "car... NULL) ORDER BY "carrada"."data_envio" DESC DESC;\''
p323
sS'self.cursor.execute'
p324
S'<built-in method execute of sqlite3.Cursor object>'
p325
sS'kwargs'
p326
g21
ssg76
I413
sg77
(dp327
I416
S'        return rv'
p328
sI417
S''
sI408
S'    def execute(self, *args, **kwargs):'
p329
sI409
S'        command = self.filter_sql_command(args[0])'
p330
sI410
S'        handlers = self._build_handlers_for_execution()'
p331
sI411
S'        for handler in handlers:'
p332
sI412
S'            handler.before_execute(command)'
p333
sI413
S'        rv = self.cursor.execute(command, *args[1:], **kwargs)'
p334
sI414
S'        for handler in handlers:'
p335
sI415
S'            handler.after_execute(command)'
p336
ssg89
S'(self=<pydal.adapters.sqlite.SQLite object>, *args=(\'SELECT "carrada"."id", "carrada"."projeto", "car... NULL) ORDER BY "carrada"."data_envio" DESC DESC;\',), **kwargs={})'
p337
sg91
S'execute'
p338
sasS'pyver'
p339
S'Python 2.7.12: /usr/local/bin/uwsgi (prefix: /usr)'
p340
sS'session'
p341
g63
(S's\xef\t\x00\x00<div><table><tr><td style="font-weight:bold;vertical-align:top;">auth</td><td style="vertical-align:top;">:</td><td><div><table><tr><td style="font-weight:bold;vertical-align:top;">expiration</td><td style="vertical-align:top;">:</td><td><div>3600</div></td></tr><tr><td style="font-weight:bold;vertical-align:top;">hmac_key</td><td style="vertical-align:top;">:</td><td><div>6b549c26-b88f-41c8-9530-c3ffa24d1093</div></td></tr><tr><td style="font-weight:bold;vertical-align:top;">last_visit</td><td style="vertical-align:top;">:</td><td><div>datetime.datetime(2020, 6, 28, 22, 2, 34, 673929)</div></td></tr><tr><td style="font-weight:bold;vertical-align:top;">remember_me</td><td style="vertical-align:top;">:</td><td><div>False</div></td></tr><tr><td style="font-weight:bold;vertical-align:top;">user</td><td style="vertical-align:top;">:</td><td><div><table><tr><td style="font-weight:bold;vertical-align:top;">email</td><td style="vertical-align:top;">:</td><td><div>betin@gmail.com</div></td></tr><tr><td style="font-weight:bold;vertical-align:top;">first_name</td><td style="vertical-align:top;">:</td><td><div>Rogoberto</div></td></tr><tr><td style="font-weight:bold;vertical-align:top;">id</td><td style="vertical-align:top;">:</td><td><div>1L</div></td></tr><tr><td style="font-weight:bold;vertical-align:top;">last_name</td><td style="vertical-align:top;">:</td><td><div>Ribeiro</div></td></tr><tr><td style="font-weight:bold;vertical-align:top;">registration_id</td><td style="vertical-align:top;">:</td><td><div></div></td></tr><tr><td style="font-weight:bold;vertical-align:top;">registration_key</td><td style="vertical-align:top;">:</td><td><div></div></td></tr><tr><td style="font-weight:bold;vertical-align:top;">reset_password_key</td><td style="vertical-align:top;">:</td><td><div></div></td></tr></table></div></td></tr><tr><td style="font-weight:bold;vertical-align:top;">user_groups</td><td style="vertical-align:top;">:</td><td><div><table><tr><td style="font-weight:bold;vertical-align:top;">1</td><td style="vertical-align:top;">:</td><td><div>user_1</div></td></tr><tr><td style="font-weight:bold;vertical-align:top;">2</td><td style="vertical-align:top;">:</td><td><div>admin</div></td></tr><tr><td style="font-weight:bold;vertical-align:top;">3</td><td style="vertical-align:top;">:</td><td><div>wiki_editor</div></td></tr></table></div></td></tr></table></div></td></tr><tr><td style="font-weight:bold;vertical-align:top;">flash</td><td style="vertical-align:top;">:</td><td><div>None</div></td></tr></table></div>'
tRp342
sS'etype'
p343
S"<class 'sqlite3.OperationalError'>"
p344
sS'date'
p345
S'Sun Jun 28 22:08:26 2020'
p346
sS'response'
p347
g63
(S's\xd1\x1c\x00\x00<div><table><tr><td style="font-weight:bold;vertical-align:top;">body</td><td style="vertical-align:top;">:</td><td><div>&lt;cStringIO.StringO object at 0x7fc4a3e646f8&gt;</div></td></tr><tr><td style="font-weight:bold;vertical-align:top;">cookies</td><td style="vertical-align:top;">:</td><td><div><table><tr><td style="font-weight:bold;vertical-align:top;">session_id_aluminum</td><td style="vertical-align:top;">:</td><td><div>177.37.226.197-a62c222e-c1f3-4c65-ae38-80c368f73b5d<table><tr><td style="font-weight:bold;vertical-align:top;">comment</td><td style="vertical-align:top;">:</td><td><div></div></td></tr><tr><td style="font-weight:bold;vertical-align:top;">domain</td><td style="vertical-align:top;">:</td><td><div></div></td></tr><tr><td style="font-weight:bold;vertical-align:top;">expires</td><td style="vertical-align:top;">:</td><td><div></div></td></tr><tr><td style="font-weight:bold;vertical-align:top;">httponly</td><td style="vertical-align:top;">:</td><td><div></div></td></tr><tr><td style="font-weight:bold;vertical-align:top;">max-age</td><td style="vertical-align:top;">:</td><td><div></div></td></tr><tr><td style="font-weight:bold;vertical-align:top;">path</td><td style="vertical-align:top;">:</td><td><div>/</div></td></tr><tr><td style="font-weight:bold;vertical-align:top;">secure</td><td style="vertical-align:top;">:</td><td><div></div></td></tr><tr><td style="font-weight:bold;vertical-align:top;">version</td><td style="vertical-align:top;">:</td><td><div></div></td></tr></table></div></td></tr></table></div></td></tr><tr><td style="font-weight:bold;vertical-align:top;">delimiters</td><td style="vertical-align:top;">:</td><td><div><table><tr><td><div>{{</div></td></tr><tr><td><div>}}</div></td></tr></table></div></td></tr><tr><td style="font-weight:bold;vertical-align:top;">files</td><td style="vertical-align:top;">:</td><td><div><table></table></div></td></tr><tr><td style="font-weight:bold;vertical-align:top;">flash</td><td style="vertical-align:top;">:</td><td><div></div></td></tr><tr><td style="font-weight:bold;vertical-align:top;">form_label_separator</td><td style="vertical-align:top;">:</td><td><div></div></td></tr><tr><td style="font-weight:bold;vertical-align:top;">formstyle</td><td style="vertical-align:top;">:</td><td><div>bootstrap4_inline</div></td></tr><tr><td style="font-weight:bold;vertical-align:top;">generic_patterns</td><td style="vertical-align:top;">:</td><td><div><table></table></div></td></tr><tr><td style="font-weight:bold;vertical-align:top;">google_analytics_id</td><td style="vertical-align:top;">:</td><td><div>None</div></td></tr><tr><td style="font-weight:bold;vertical-align:top;">headers</td><td style="vertical-align:top;">:</td><td><div><table><tr><td style="font-weight:bold;vertical-align:top;">X-Powered-By</td><td style="vertical-align:top;">:</td><td><div>web2py</div></td></tr></table></div></td></tr><tr><td style="font-weight:bold;vertical-align:top;">menu</td><td style="vertical-align:top;">:</td><td><div><table><tr><td><div><table><tr><td><div>Principal</div></td></tr><tr><td><div>False</div></td></tr><tr><td><div>/aluminum/default/index</div></td></tr><tr><td><div><table></table></div></td></tr></table></div></td></tr><tr><td><div><table><tr><td><div>BD</div></td></tr><tr><td><div>False</div></td></tr><tr><td><div>/aluminum/appadmin/index</div></td></tr></table></div></td></tr></table></div></td></tr><tr><td style="font-weight:bold;vertical-align:top;">meta</td><td style="vertical-align:top;">:</td><td><div><table><tr><td style="font-weight:bold;vertical-align:top;">author</td><td style="vertical-align:top;">:</td><td><div>Your Name &lt;you@example.com&gt;</div></td></tr><tr><td style="font-weight:bold;vertical-align:top;">description</td><td style="vertical-align:top;">:</td><td><div>a cool new app</div></td></tr><tr><td style="font-weight:bold;vertical-align:top;">generator</td><td style="vertical-align:top;">:</td><td><div>Web2py Web Framework</div></td></tr><tr><td style="font-weight:bold;vertical-align:top;">keywords</td><td style="vertical-align:top;">:</td><td><div><table><tr><td><div>web2py</div></td></tr><tr><td><div>python</div></td></tr><tr><td><div>framework</div></td></tr></table></div></td></tr></table></div></td></tr><tr><td style="font-weight:bold;vertical-align:top;">models_to_run</td><td style="vertical-align:top;">:</td><td><div><table><tr><td><div>^\\w+\\.py$</div></td></tr><tr><td><div>^projeto/\\w+\\.py$</div></td></tr><tr><td><div>^projeto/acesso_projeto/\\w+\\.py$</div></td></tr></table></div></td></tr><tr><td style="font-weight:bold;vertical-align:top;">postprocessing</td><td style="vertical-align:top;">:</td><td><div><table></table></div></td></tr><tr><td style="font-weight:bold;vertical-align:top;">session_client</td><td style="vertical-align:top;">:</td><td><div>177.37.226.197</div></td></tr><tr><td style="font-weight:bold;vertical-align:top;">session_cookie_compression_level</td><td style="vertical-align:top;">:</td><td><div>None</div></td></tr><tr><td style="font-weight:bold;vertical-align:top;">session_cookie_expires</td><td style="vertical-align:top;">:</td><td><div>None</div></td></tr><tr><td style="font-weight:bold;vertical-align:top;">session_data_name</td><td style="vertical-align:top;">:</td><td><div>session_data_aluminum</div></td></tr><tr><td style="font-weight:bold;vertical-align:top;">session_file</td><td style="vertical-align:top;">:</td><td><div>&lt;open file &#x27;/home/rogoberto/web2py/applications/aluminum/sessions/004/1f9/177.37.226.197-a62c222e-c1f3-4c65-ae38-80c368f73b5d&#x27;, mode &#x27;rb+&#x27; at 0x7fc4a3db8780&gt;</div></td></tr><tr><td style="font-weight:bold;vertical-align:top;">session_filename</td><td style="vertical-align:top;">:</td><td><div>/home/rogoberto/web2py/applications/aluminum/sessions/177.37.226.197-a62c222e-c1f3-4c65-ae38-80c368f73b5d</div></td></tr><tr><td style="font-weight:bold;vertical-align:top;">session_hash</td><td style="vertical-align:top;">:</td><td><div>fea680861c7d1a87ba5e734ee8f7251f</div></td></tr><tr><td style="font-weight:bold;vertical-align:top;">session_id</td><td style="vertical-align:top;">:</td><td><div>177.37.226.197-a62c222e-c1f3-4c65-ae38-80c368f73b5d</div></td></tr><tr><td style="font-weight:bold;vertical-align:top;">session_id_name</td><td style="vertical-align:top;">:</td><td><div>session_id_aluminum</div></td></tr><tr><td style="font-weight:bold;vertical-align:top;">session_locked</td><td style="vertical-align:top;">:</td><td><div>True</div></td></tr><tr><td style="font-weight:bold;vertical-align:top;">session_masterapp</td><td style="vertical-align:top;">:</td><td><div>aluminum</div></td></tr><tr><td style="font-weight:bold;vertical-align:top;">session_new</td><td style="vertical-align:top;">:</td><td><div>False</div></td></tr><tr><td style="font-weight:bold;vertical-align:top;">session_storage_type</td><td style="vertical-align:top;">:</td><td><div>file</div></td></tr><tr><td style="font-weight:bold;vertical-align:top;">show_toolbar</td><td style="vertical-align:top;">:</td><td><div>False</div></td></tr><tr><td style="font-weight:bold;vertical-align:top;">status</td><td style="vertical-align:top;">:</td><td><div>200</div></td></tr><tr><td style="font-weight:bold;vertical-align:top;">view</td><td style="vertical-align:top;">:</td><td><div>projeto/acesso_projeto.html</div></td></tr></table></div>'
tRp348
sS'locals'
p349
(dp350
S'handlers'
p351
S'[<pydal.helpers.classes.TimingHandler object>]'
p352
sS'self'
p353
S'<pydal.adapters.sqlite.SQLite object>'
p354
sg48
S'(\'SELECT "carrada"."id", "carrada"."projeto", "car... NULL) ORDER BY "carrada"."data_envio" DESC DESC;\',)'
p355
sS'handler'
p356
S'<pydal.helpers.classes.TimingHandler object>'
p357
sS'command'
p358
S'\'SELECT "carrada"."id", "carrada"."projeto", "car... NULL) ORDER BY "carrada"."data_envio" DESC DESC;\''
p359
sS'kwargs'
p360
g21
sssS'traceback'
p361
S'Traceback (most recent call last):\n  File "/home/rogoberto/web2py/gluon/restricted.py", line 219, in restricted\n    exec(ccode, environment)\n  File "/home/rogoberto/web2py/applications/aluminum/controllers/projeto.py", line 90, in <module>\n  File "/home/rogoberto/web2py/gluon/globals.py", line 421, in <lambda>\n    self._caller = lambda f: f()\n  File "/home/rogoberto/web2py/gluon/tools.py", line 3862, in f\n    return action(*a, **b)\n  File "/home/rogoberto/web2py/applications/aluminum/controllers/projeto.py", line 10, in acesso_projeto\n    data = db(db.carrada).select(orderby=~~db.carrada.data_envio).first().data_envio\n  File "/home/rogoberto/web2py/gluon/packages/dal/pydal/objects.py", line 2277, in select\n    return adapter.select(self.query, fields, attributes)\n  File "/home/rogoberto/web2py/gluon/packages/dal/pydal/adapters/sqlite.py", line 82, in select\n    return super(SQLite, self).select(query, fields, attributes)\n  File "/home/rogoberto/web2py/gluon/packages/dal/pydal/adapters/base.py", line 763, in select\n    return self._select_aux(sql, fields, attributes, colnames)\n  File "/home/rogoberto/web2py/gluon/packages/dal/pydal/adapters/base.py", line 719, in _select_aux\n    rows = self._select_aux_execute(sql)\n  File "/home/rogoberto/web2py/gluon/packages/dal/pydal/adapters/base.py", line 713, in _select_aux_execute\n    self.execute(sql)\n  File "/home/rogoberto/web2py/gluon/packages/dal/pydal/adapters/__init__.py", line 67, in wrap\n    return f(*args, **kwargs)\n  File "/home/rogoberto/web2py/gluon/packages/dal/pydal/adapters/base.py", line 413, in execute\n    rv = self.cursor.execute(command, *args[1:], **kwargs)\nOperationalError: near "DESC": syntax error\n'
p362
s.