(dp1
S'output'
p2
S"<type 'exceptions.NameError'> name 'percentual_despesa_venda' is not defined"
p3
sS'layer'
p4
S'/home/rogoberto/web2py/applications/aluminum/views/chefe/relatorio.html'
p5
sS'code'
p6
S'response.write(\'<!DOCTYPE html>\\n<!--[if (gt IE 9)|!(IE)]><!--> <html class="no-js" lang="\', escape=False)\nresponse.write(T.accepted_language or \'en\')\nresponse.write(\'"> <!--<![endif]-->\\n  <head>\\n    <meta charset="utf-8">\\n    <!-- www.phpied.com/conditional-comments-block-downloads/ -->\\n    <!-- Always force latest IE rendering engine\\n         (even in intranet) & Chrome Frame\\n         Remove this if you use the .htaccess -->\\n    <meta http-equiv="X-UA-Compatible" content="IE=edge\', escape=False)\nresponse.write(not request.is_local and \',chrome=1\' or \'\')\nresponse.write(\'">\\n    <!--  Mobile Viewport Fix\\n          j.mp/mobileviewport & davidbcalhoun.com/2010/viewport-metatag\\n          device-width: Occupy full width of the screen in its current orientation\\n          initial-scale = 1.0 retains dimensions instead of zooming out if page height > device height\\n          user-scalable = yes allows the user to zoom in -->\\n    <meta name="viewport" content="width=device-width, initial-scale=1.0">\\n       <title>Aluminum System</title>\\n      <meta name="author" content="Arsenal System">\\n<!--       <meta name="description" content="cr\\xc3\\xa9diario de aluminio, controle seus custos, despesas vendas e cobran\\xc3\\xa7as"> -->\\n<!--       <meta name="keywords" content="Controle Cheque, pagamentos, Sistema"> -->\\n<!--       <meta name="author" content="Arsenal System"> -->\\n      <meta name="description" content="Gerenciamento controle de crediario">\\n    <!-- http://dev.w3.org/html5/markup/meta.name.html -->\\n    <meta name="application-name" content="sistema credi\\xc3\\xa1rio panela">\\n    <!-- Speaking of Google, don\\\'t forget to set your site up:\\n         http://google.com/webmasters -->\\n    <meta name="google-site-verification" content="peneleiro Juazeiro, panela credi\\xc3\\xa1rio, sistema panela">\\n    <!-- include stylesheets -->\\n    <link rel="stylesheet" href="https://cdnjs.cloudflare.com/ajax/libs/font-awesome/4.7.0/css/font-awesome.min.css"/>\\n    <link rel="stylesheet" href="\', escape=False)\nresponse.write(URL(\'static\',\'css/bootstrap.min.css\'))\nresponse.write(\'"/>\\n    <link rel="stylesheet" href="\', escape=False)\nresponse.write(URL(\'static\',\'css/web2py-bootstrap4.css\'))\nresponse.write(\'"/>\\n    <link rel="shortcut icon" href="\', escape=False)\nresponse.write(URL(\'static\',\'images/ico.ico\'))\nresponse.write(\'" type="image/x-icon">\\n    <link rel="apple-touch-icon" href="\', escape=False)\nresponse.write(URL(\'static\',\'images/ico.png\'))\nresponse.write(\'">\\n    <!-- All JavaScript at the bottom, except for Modernizr which enables\\n         HTML5 elements & feature detects -->\\n    <script src="\', escape=False)\nresponse.write(URL(\'static\',\'js/modernizr-2.8.3.min.js\'))\nresponse.write(\'"></script>\\n    <!-- Favicons -->\\n    \', escape=False)\nresponse.write(\'<script type="text/javascript"><!--\\n    // These variables are used by the web2py_ajax_init function in web2py_ajax.js (which is loaded below).\\n    \', escape=False)\nresponse.write(ASSIGNJS(\nw2p_ajax_confirm_message = T(\'Are you sure you want to delete this object?\'),\nw2p_ajax_disable_with_message = T(\'Working...\'),\nw2p_ajax_date_format = T(\'%Y-%m-%d\'),\nw2p_ajax_datetime_format = T(\'%Y-%m-%d %H:%M:%S\'),\najax_error_500 = T.M(\'An error occured, please [[reload %s]] the page\') % URL(args=request.args, vars=request.get_vars)\n))\nresponse.write(\'\\n    //--></script>\\n\', escape=False)\nresponse.files.insert(0,URL(\'static\',\'js/jquery.js\'))\nresponse.files.insert(1,URL(\'static\',\'css/calendar.css\'))\nresponse.files.insert(2,URL(\'static\',\'js/calendar.js\'))\nresponse.files.insert(3,URL(\'static\',\'js/web2py.js\'))\nresponse.include_meta()\nresponse.include_files()\nresponse.write(\'\\n\', escape=False)\nresponse.write(\' <!-- this includes jquery.js, calendar.js/.css and web2py.js -->\\n      \', escape=False)\nif auth.user:\n    response.write(\'\\n    \', escape=False)\n    if auth.user.first_name=="Rogoberto":\n        response.write(\'\\n   \\n    \', escape=False)\n    elif auth.user.first_name=="Meme":\n        response.write(\'\\n    <link rel="stylesheet" href="https://bootswatch.com/4/materia/bootstrap.css"> \\n    \', escape=False)\n        pass\n    response.write(\'\\n    \', escape=False)\n    pass\nresponse.write(\'\\n    \', escape=False)\nresponse.write(\'\\n  \\n  </head>\\n  <body>\\n      \\n        <style  type="text/css">\\n    @media print{\\n        .btn{\\n             display: none;\\n        }\\n        #noprint { display:none; } \\n      a:link{font:15px "verdana"; color:#8B4513; text-decoration:none;}\\n\\na:hover{font:20px "verdana"; color:black; text-decoration:underline;}\\n    }\\n      </style>\\n    <div class="w2p_flash alert alert-dismissable">\', escape=False)\nresponse.write(response.flash or \'\')\nresponse.write(\'</div>\\n    <!-- Navbar ======================================= -->\\n    <nav class="navbar navbar-light navbar-expand-md bg-faded justify-content-center">\\n        <a class="navbar-brand" href="https://rogoberto.pythonanywhere.com/aluminum/#acesso">Aluminum</a>\\n       <button class="navbar-toggler" type="button" data-toggle="collapse" data-target="#navbarNavDropdown" aria-controls="navbarNavDropdown" aria-expanded="false" aria-label="Toggle navigation">\\n         <span class="navbar-toggler-icon"></span>\\n       </button>\\n       <div class="navbar-collapse collapse w-100" id="navbarNavDropdown">\\n         <ul class="navbar-nav w-100 justify-content-center">\\n          \', escape=False)\nfor _item in response.menu or []:\n    response.write(\'\\n          \', escape=False)\n    if (not len(_item)>4) or not _item[3]:\n        response.write(\'\\n          <li class="nav-item \', escape=False)\n        if _item[1]:\n            response.write(\'active\', escape=False)\n            pass\n        response.write(\'">\\n            <a class="nav-link" href="\', escape=False)\n        response.write(_item[2])\n        response.write(\'">\', escape=False)\n        response.write(_item[0])\n        response.write(\'</a>\\n          </li>\\n          \', escape=False)\n    else:\n        response.write(\'\\n          <li class="nav-item dropdown">\\n            <a class="nav-link dropdown-toggle" href="\', escape=False)\n        response.write(_item[2])\n        response.write(\'" data-toggle="dropdown" aria-haspopup="true" aria-expanded="false">\', escape=False)\n        response.write(_item[0])\n        response.write(\'</a>\\n            <div class="dropdown-menu">\\n              \', escape=False)\n        for _subitem in _item[3]:\n            response.write(\'\\n              <a class="dropdown-item" href="\', escape=False)\n            response.write(_subitem[2])\n            response.write(\'">\', escape=False)\n            response.write(_subitem[0])\n            response.write(\'</a>\\n              \', escape=False)\n            pass\n        response.write(\'\\n            </div>\\n          </li>\\n          \', escape=False)\n        pass\n    response.write(\'\\n          \', escape=False)\n    pass\nresponse.write(\'\\n        </ul>\\n\\n        \', escape=False)\nif \'auth\' in globals():\n    response.write(\'\\n        <ul class="nav navbar-nav ml-auto w-100 justify-content-end">\\n          <li class="nav-item dropdown">\\n            <a class="nav-link dropdown-toggle" href="#" data-toggle="dropdown" aria-haspopup="true" aria-expanded="false">\\n              \', escape=False)\n    if auth.user:\n        response.write(auth.user.first_name)\n    else:\n        response.write(\'LOGIN\', escape=False)\n        pass\n    response.write(\'\\n            </a>\\n            <div class="dropdown-menu dropdown-menu-right">\\n              \', escape=False)\n    if auth.user:\n        response.write(\'\\n              <a class="dropdown-item" href="\', escape=False)\n        response.write(URL(\'default\',\'user/profile\'))\n        response.write(\'">\', escape=False)\n        response.write(T(\'Profile\'))\n        response.write(\'</a>\\n              \', escape=False)\n        if \'change_password\' not in auth.settings.actions_disabled:\n            response.write(\'\\n              <a class="dropdown-item" href="\', escape=False)\n            response.write(URL(\'default\',\'user/change_password\'))\n            response.write(\'">\', escape=False)\n            response.write(T(\'Change Password\'))\n            response.write(\'</a>\\n              \', escape=False)\n            pass\n        response.write(\'\\n              <a class="dropdown-item" href="\', escape=False)\n        response.write(URL(\'default\',\'user/logout\'))\n        response.write(\'">\', escape=False)\n        response.write(T(\'Logout\'))\n        response.write(\'</a>\\n              \', escape=False)\n    else:\n        response.write(\'\\n              <a class="dropdown-item" href="\', escape=False)\n        response.write(URL(\'default\',\'user/login\'))\n        response.write(\'">\', escape=False)\n        response.write(T(\'Login\'))\n        response.write(\'</a>\\n              \', escape=False)\n        if \'register\' not in auth.settings.actions_disabled:\n            response.write(\'\\n              <a class="dropdown-item" href="\', escape=False)\n            response.write(URL(\'default\',\'user/register\'))\n            response.write(\'">\', escape=False)\n            response.write(T(\'Sign up\'))\n            response.write(\'</a>\\n              \', escape=False)\n            pass\n        response.write(\'\\n              \', escape=False)\n        if \'retrieve_password\' not in auth.settings.actions_disabled:\n            response.write(\'\\n              <a class="dropdown-item" href="\', escape=False)\n            response.write(URL(\'default\',\'user/retrieve_password\'))\n            response.write(\'">\', escape=False)\n            response.write(T(\'Lost Password\'))\n            response.write(\'</a>\\n              \', escape=False)\n            pass\n        response.write(\'\\n              \', escape=False)\n        pass\n    response.write(\'\\n            </div>\\n          </li>\\n        </ul>\\n        \', escape=False)\n    pass\nresponse.write(\'\\n      </div>\\n    </nav>\\n\\n    <!-- Masthead ===================================== -->\\n    \', escape=False)\nresponse.write(\'\\n<header class="header container-fluid d-none d-print-block">\\n     <div class="row">\\n        <div class="col-md-12">\\n          <div class="copyright pull-left">Aluminum System</div>\\n          <div id="poweredBy" class="pull-right">\\n            Gest\\xc3\\xa3o de vendas e cobran\\xc3\\xa7as artefatos de aluminio\\n            \\n          </div>\\n        </div>\\n      </div>\\n</header>\\n    \', escape=False)\nresponse.write(\'\\n    <!-- Main ========================================= -->\\n    <!-- Begin page content -->\\n    <div class="container-fluid main-container py-5">\\n      \', escape=False)\nresponse.write(\'\\n\\n\', escape=False)\nsaldo=0\nresponse.write(\'\\n\', escape=False)\nmsaida=projeto.total_preco_gratificacao+projeto.total_preco_refugo+projeto.total_preco_retorno\nresponse.write(\'\\n\', escape=False)\npsaida=projeto.total_pecas_gratificacao+projeto.total_pecas_refugo+projeto.total_pecas_retorno\nresponse.write(\'\\n\', escape=False)\nestoque=projeto.total_preco_mercadoria-msaida-(projeto.total_venda_vista*2)-projeto.total_venda_prazo\nresponse.write(\'\\n\', escape=False)\ndinheiro_viagem=projeto.total_entradas_venda+projeto.adiantamento+projeto.total_venda_vista\nresponse.write(\'\\n\', escape=False)\nperc_desp=0\nresponse.write(\'\\n\', escape=False)\nif projeto.total_despesa_venda>0 and projeto.total_venda_prazo:\n    response.write(\'\\n\', escape=False)\n    perc_desp=projeto.total_despesa_venda/projeto.total_venda_prazo*100\n    response.write(\'\\n\', escape=False)\n    pass\nresponse.write(\'\\n\', escape=False)\ndinh_apresentado=projeto.total_caderno_chefe+projeto.total_caderno_funcionario+\tprojeto.total_caderno_vendedor+projeto.total_despesa_venda+projeto.total_devolucao_dinheiro\nresponse.write(\'\\n\', escape=False)\ndiferencav=dinheiro_viagem-dinh_apresentado\nresponse.write(\'\\n\', escape=False)\ncomissaov=0.0\nresponse.write(\'\\n\', escape=False)\nif projeto.total_venda_vista>0 and projeto.comissao_vista>0:\n    response.write(\'\\n\', escape=False)\n    comissaov=(projeto.total_venda_vista*projeto.comissao_vista)/100\n    response.write(\'\\n\', escape=False)\n    pass\nresponse.write(\'\\n\', escape=False)\ncomissaop=0.0\nresponse.write(\'\\n\', escape=False)\nif projeto.total_venda_prazo>0 and projeto.comissao_praso>0:\n    response.write(\'\\n\', escape=False)\n    comissaop=(projeto.total_venda_prazo*projeto.comissao_praso)/100\n    response.write(\'\\n\', escape=False)\n    pass\nresponse.write(\'\\n\', escape=False)\ntotal_comissao=comissaop+comissaov\nresponse.write(\'\\n\', escape=False)\nsaldo_chefe=0.0\nresponse.write(\'\\n\', escape=False)\nsaldo_chefe=total_comissao-projeto.total_caderno_chefe-projeto.vale_saida\nresponse.write(\'\\n<div class="py-1">\\n      <div class="container">\\n          <div class="row">\\n    <div class="col-md-6">\\n        <a class="btn btn-outline-light" href="\', escape=False)\nresponse.write(URL(\'projeto\',\'acesso_projeto\', args=projeto.id))\nresponse.write(\'"> <i class="fa text-danger fa-arrow-left  fa-2x"></i></a>\\n        \\n    </div>\\n</div>\\n        <h4>Relat\\xc3\\xb3rio do Chefe</h4>\\n        <div class="row">\\n          <div class="col-md-6">\\n            <p class="d-flex justify-content-between mb-3"> <span><b>Informa\\xc3\\xa7\\xc3\\xb5es Mercadoria</b></span> </p>\\n            <ul class="list-group" >\\n              <li class="list-group-item d-flex justify-content-between">\\n                <div>\\n                  <h6 class="my-0"><b>Total Mercadoria&nbsp;</b></h6> <small class="text-muted">\', escape=False)\nresponse.write(projeto.total_pecas_mercadoria)\nresponse.write(\' Pe\\xc3\\xa7as</small>\\n                </div> <span class="text-muted">R$ \', escape=False)\nresponse.write("{:,}".format(round(projeto.total_preco_mercadoria,1)).replace(",","."))\nresponse.write(\'0</span>\\n              </li>\\n                \\n                \', escape=False)\nif msaida>0:\n    response.write(\'\\n              <li class="list-group-item d-flex justify-content-between">\\n                <div>\\n                  <h6 class="my-0"><i class="fa text-primary fa-arrow-right"></i> <b>Saida Mercadoria</b></h6> <small class="text-muted">\', escape=False)\n    response.write(psaida)\n    response.write(\' Pe\\xc3\\xa7as</small>\\n                </div> <span class="text-muted">R$ \', escape=False)\n    response.write("{:,}".format(round(msaida,1)).replace(",","."))\n    response.write(\'0</span>\\n              </li>\\n                \', escape=False)\n    pass\nresponse.write(\'\\n                 \', escape=False)\nif projeto.total_venda_prazo>0:\n    response.write(\'\\n              <li class="list-group-item d-flex justify-content-between">\\n                <div>\\n                  <h6 class="my-0"><b>Total Venda \\xc3\\xa0 Prazo</b></h6> <small class="text-muted">\', escape=False)\n    response.write(projeto.quant_fichas_venda)\n    response.write(\' Fichas</small>\\n                </div> <span class="text-muted">R$ \', escape=False)\n    response.write("{:,}".format(round(projeto.total_venda_prazo,1)).replace(",","."))\n    response.write(\'0</span>\\n              </li>\\n                \', escape=False)\n    pass\nresponse.write(\'\\n                \', escape=False)\nif projeto.total_venda_vista>0:\n    response.write(\'\\n              <li class="list-group-item d-flex justify-content-between">\\n                <div>\\n                  <h6 class="my-0"><b>Total Venda \\xc3\\xa0 Vista</b></h6> <small class="text-muted">\', escape=False)\n    response.write(projeto.quant_dias_venda_vista)\n    response.write(\' Dias Registrados</small>\\n                </div> <span class="text-muted">R$ \', escape=False)\n    response.write("{:,}".format(round(projeto.total_venda_vista,1)).replace(",","."))\n    response.write(\'0</span>\\n              </li>\\n                \', escape=False)\n    pass\nresponse.write(\'\\n              <li class="list-group-item d-flex justify-content-between bg-light">\\n                <div>\\n                  <h6 class="my-0"><b>Estoque da Mercadoria</b></h6> <small class="text-muted">No final da Viagem n\\xc3\\xa3o pode faltar</small>\\n                </div> <span class="text-muted">R$ \', escape=False)\nresponse.write("{:,}".format(round(estoque,2)).replace(",","."))\nresponse.write(\'0</span>\\n              </li>\\n              <br>\\n              <p class="d-flex justify-content-between mb-3"> <span><b>Dinheiro da Viagem.</b></span> </p>\\n              <li class="list-group-item d-flex justify-content-between bg-light">\\n                <div class="text-success">\\n                  <h6 class="my-0"><b>Venda \\xc3\\xa0 Vista</b></h6> <small>R$ \', escape=False)\nresponse.write("{:,}".format(round(projeto.total_venda_vista*2,2)).replace(",","."))\nresponse.write(\'0&nbsp;Mercadoria&nbsp;</small>\\n                </div> <span class="text-success">R$ \', escape=False)\nresponse.write("{:,}".format(round(projeto.total_venda_vista,1)).replace(",","."))\nresponse.write(\'0</span>\\n              </li>\\n              <li class="list-group-item d-flex justify-content-between">\\n                <div>\\n                  <h6 class="my-0">Adiantamento</h6>\\n                </div> <span class="text-muted">R$ \', escape=False)\nresponse.write("{:,}".format(round(projeto.adiantamento,1)).replace(",","."))\nresponse.write(\'0</span>\\n              </li>\\n                \', escape=False)\nif projeto.total_entradas_venda>0:\n    response.write(\'\\n              <li class="list-group-item d-flex justify-content-between">\\n                <div>\\n                  <h6 class="my-0">Entradas da Venda</h6>\\n                </div> <span class="text-muted">R$ \', escape=False)\n    response.write("{:,}".format(round(projeto.total_entradas_venda,1)).replace(",","."))\n    response.write(\'0</span>\\n              </li>\\n                \', escape=False)\n    pass\nresponse.write(\'\\n              <li class="list-group-item d-flex justify-content-between bg-light"> <span><b>Dinheiro da Viagem</b></span> <b>R$ \', escape=False)\nresponse.write("{:,}".format(round(dinheiro_viagem,1)).replace(",","."))\nresponse.write(\'0</b> </li>\\n            </ul>\\n            <br>\\n            <p class="d-flex justify-content-between mb-3"> <span><b>Valor Apresentado.</b></span> </p>\\n            <ul class="list-group">\\n              <li class="list-group-item d-flex justify-content-between bg-light">\\n                <div>\\n                  <h6 class="my-0 text-danger"><b>Total Despesa</b></h6><b> <small class="text-danger">\', escape=False)\nresponse.write("{:,}".format(round(perc_desp,1)).replace(",","."))\nresponse.write(\'%</small>\\n                  </b>\\n                </div><b> <span class="text-danger">R$ \', escape=False)\nresponse.write("{:,}".format(round(projeto.total_despesa_venda,1)).replace(",","."))\nresponse.write(\'0</span></b>\\n              </li>\\n                \', escape=False)\nif projeto.total_caderno_vendedor>0:\n    response.write(\'\\n              <li class="list-group-item d-flex justify-content-between">\\n                <div>\\n                  <h6 class="my-0">Vale da Viagem Vendedor</h6>\\n                </div> <span class="text-muted">R$ \', escape=False)\n    response.write("{:,}".format(round(projeto.total_caderno_vendedor,1)).replace(",","."))\n    response.write(\'0</span>\\n              </li>\\n                \', escape=False)\n    pass\nresponse.write(\'\\n                \\n                \', escape=False)\nif projeto.total_caderno_funcionario>0:\n    response.write(\'\\n              <li class="list-group-item d-flex justify-content-between">\\n                <div>\\n                  <h6 class="my-0">Vale da Viagem Funcionario</h6>\\n                </div> <span class="text-muted">R$ \', escape=False)\n    response.write("{:,}".format(round(projeto.total_caderno_funcionario,1)).replace(",","."))\n    response.write(\'0</span>\\n              </li>\\n                \', escape=False)\n    pass\nresponse.write(\'\\n                \\n                \', escape=False)\nif projeto.total_caderno_chefe>0:\n    response.write(\'\\n              <li class="list-group-item d-flex justify-content-between">\\n                <div>\\n                  <h6 class="my-0">Vale da Viagem Chefe</h6>\\n                </div> <span class="text-muted">R$ \', escape=False)\n    response.write("{:,}".format(round(projeto.total_caderno_chefe,1)).replace(",","."))\n    response.write(\'0</span>\\n              </li>\\n                \', escape=False)\n    pass\nresponse.write(\'\\n                 \', escape=False)\nif projeto.total_devolucao_dinheiro>0:\n    response.write(\'\\n              <li class="list-group-item d-flex justify-content-between">\\n                <div>\\n                    \', escape=False)\n    if projeto.empresa==3:\n        response.write(\'\\n                  <h6 class="my-0">Dep\\xc3\\xb3sitos</h6>\\n                    \', escape=False)\n    else:\n        response.write(\'\\n                  <h6 class="my-0">Dinheiro Devolvido</h6>\\n                    \', escape=False)\n        pass\n    response.write(\'\\n                </div> <span class="text-muted">R$ \', escape=False)\n    response.write("{:,}".format(round(projeto.total_devolucao_dinheiro,1)).replace(",","."))\n    response.write(\'0</span>\\n              </li>\\n                \', escape=False)\n    pass\nresponse.write(\'\\n              <li class="list-group-item d-flex justify-content-between"> <span><b>Dinheiro Apresentado</b></span> <b>R$ \', escape=False)\nresponse.write("{:,}".format(round(dinh_apresentado,1)).replace(",","."))\nresponse.write(\'0</b> </li>\\n              <br>\\n                \', escape=False)\nif diferencav>=0:\n    response.write(\'\\n              <li class="list-group-item d-flex justify-content-between bg-light">\\n                <div class="text-success">\\n                  <h6 class="my-0">\\n                    <font class="text-primary">Dinheiro em Caixa</font>\\n                  </h6>\\n                </div> <span class="text-primary">R$ \', escape=False)\n    response.write("{:,}".format(round(diferencav,1)).replace(",","."))\n    response.write(\'0</span>\\n              </li>\\n                \', escape=False)\nelse:\n    response.write(\'\\n                 <li class="list-group-item d-flex justify-content-between bg-light">\\n                <div class="text-danger">\\n                  <h5 class="my-0">\\n                    <font class="text-danger">Est\\xc3\\xa1 sendo apresentado dinheiro de mais!!</font>\\n                      \', escape=False)\n    diferencav=0\n    response.write(\'\\n                  </h5>\\n                </div> \\n              </li>\\n                \', escape=False)\n    pass\nresponse.write(\'\\n            </ul><br>\\n          </div>\\n          <div class="col-md-6">\\n            <p class="d-flex justify-content-between mb-3"> <span><b>Saldos e Comiss\\xc3\\xb5es</b></span> </p>\\n            <ul class="list-group">\\n              <li class="list-group-item d-flex justify-content-between">\\n                <div>\\n                  <h6 class="my-0">Comiss\\xc3\\xa3o Venda \\xc3\\xa0 Prazo</h6> <small class="text-muted">R$ \', escape=False)\nresponse.write("{:,}".format(round(projeto.total_venda_prazo,1)).replace(",","."))\nresponse.write(\'0 - \', escape=False)\nresponse.write(projeto.comissao_praso)\nresponse.write(\'%</small>\\n                </div> <span class="text-muted">R$ \', escape=False)\nresponse.write("{:,}".format(round(comissaop)).replace(",","."))\nresponse.write(\'0</span>\\n              </li>\\n                \', escape=False)\nif projeto.comissao_vista>0:\n    response.write(\'\\n              <li class="list-group-item d-flex justify-content-between">\\n                <div>\\n                  <h6 class="my-0">Comiss\\xc3\\xa3o Venda \\xc3\\xa0 Vista</h6> <small class="text-muted">R$ \', escape=False)\n    response.write("{:,}".format(round(projeto.total_venda_vista,1)).replace(",","."))\n    response.write(\'0 - \', escape=False)\n    response.write(projeto.comissao_vista)\n    response.write(\'%</small>\\n                </div> <span class="text-muted">R$ \', escape=False)\n    response.write("{:,}".format(round(comissaov)).replace(",","."))\n    response.write(\'0</span>\\n              </li>\\n                \', escape=False)\n    pass\nresponse.write(\'\\n              <li class="list-group-item d-flex justify-content-between bg-light">\\n                <div class="text-success">\\n                  <h6 class="my-0">Total Comiss\\xc3\\xa3o<br></h6>\\n                </div> <span class="text-success">R$ \', escape=False)\nresponse.write("{:,}".format(round(total_comissao,1)).replace(",","."))\nresponse.write(\'0</span>\\n              </li>\\n              <br>\\n              <li class="list-group-item d-flex justify-content-between">\\n                <div>\\n                  <h6 class="my-0">Vale Sa\\xc3\\xadda</h6>\\n                </div> <span class="text-muted">R$ \', escape=False)\nresponse.write("{:,}".format(round(projeto.vale_saida,1)).replace(",","."))\nresponse.write(\'0</span>\\n              </li>\\n              <li class="list-group-item d-flex justify-content-between">\\n                <div>\\n                  <h6 class="my-0">Vale Caderno</h6>\\n                </div> <span class="text-muted">R$ \', escape=False)\nresponse.write("{:,}".format(round(projeto.total_caderno_chefe,1)).replace(",","."))\nresponse.write(\'0</span>\\n              </li>\\n                              \', escape=False)\nif saldo_chefe>0:\n    response.write(\'\\n              <li class="list-group-item d-flex justify-content-between bg-light">\\n                <div class="text-success">\\n                  <h6 class="my-0"><b class="text-success">Saldo Chefe</b></h6>\\n                </div> <span class="text-success">R$ \', escape=False)\n    response.write("{:,}".format(round(saldo_chefe,1)).replace(",","."))\n    response.write(\'0</span>\\n              </li>\\n                \', escape=False)\nelse:\n    response.write(\'\\n                <li class="list-group-item d-flex justify-content-between bg-light">\\n                <div class="text-danger">\\n                  <h6 class="my-0"><b class="text-danger">Saldo Chefe</b></h6>\\n                </div> <span class="text-danger">R$ \', escape=False)\n    response.write("{:,}".format(round(saldo_chefe,1)).replace(",","."))\n    response.write(\'0</span>\\n              </li>\\n                \', escape=False)\n    pass\nresponse.write(\'\\n            </ul>\\n            \', escape=False)\nif projeto.empresa==21:\n    response.write(\'\\n            <p class="d-flex justify-content-between mb-3"> <span><b>Despesa Geral.</b></span> </p>\\n            <ul class="list-group">\\n              <li class="list-group-item d-flex justify-content-between">\\n                <div>\\n                  <h6 class="my-0">Despesa Venda</h6>\\n                  <small class="text-muted">\\n                    \', escape=False)\n    response.write("{:,}".format(round(percentual_despesa_venda,1)).replace(",","."))\n    response.write(\'%\\n                  </small>\\n                </div>\\n                <span class="text-muted">\\n                  R$ \', escape=False)\n    response.write("{:,.2f}".format(round(projeto.total_despesa_venda)).replace(",","#").replace(".",",").replace("#","."))\n    response.write(\'\\n                </span>\\n              </li>\\n              <li class="list-group-item d-flex justify-content-between">\\n                <div>\\n                  <h6 class="my-0">Despesa Local</h6>\\n                  <small class="text-muted">\\n                     \', escape=False)\n    response.write("{:,}".format(round(percentual_despesa_local,1)).replace(",","."))\n    response.write(\'%\\n                  </small>\\n                </div>\\n                <span class="text-muted">\\n                  R$ \', escape=False)\n    response.write("{:,.2f}".format(round(projeto.total_despesa_local)).replace(",","#").replace(".",",").replace("#","."))\n    response.write(\'\\n                </span>\\n              </li>\\n              \', escape=False)\n    total_despesas_geral=projeto.total_despesa_local+projeto.total_despesa_venda\n    response.write(\'\\n            \', escape=False)\n    percentual_despesa_geral=0\n    response.write(\'\\n            \', escape=False)\n    if (total_despesas_geral>0) and (projeto.total_venda_prazo>0):\n        response.write(\'\\n            \', escape=False)\n        percentual_despesa_geral=total_despesas_geral/projeto.total_venda_prazo*100\n        response.write(\'\\n            \', escape=False)\n        pass\n    response.write(\'\\n              <li class="list-group-item d-flex justify-content-between">\\n                <div>\\n                  <h6 class="my-0">Despesa Geral</h6>\\n                  <small class="text-muted">\\n                    \', escape=False)\n    response.write("{:,}".format(round(percentual_despesa_geral,1)).replace(",","."))\n    response.write(\'%\\n                  </small>\\n                </div>\\n                <span class="text-muted">\\n                  R$ \', escape=False)\n    response.write("{:,.2f}".format(round(total_despesas_geral)).replace(",","#").replace(".",",").replace("#","."))\n    response.write(\'\\n                </span>\\n              </li>\\n              <ul>\\n                \', escape=False)\n    pass\nresponse.write(\'\\n          </div>\\n        </div>\\n      </div>\\n    </div>\\n\', escape=False)\nresponse.write(\'\\n      \', escape=False)\nresponse.write(response.toolbar() if response.show_toolbar else \'\')\nresponse.write(\'\\n    </div>\\n    \', escape=False)\nresponse.write(\' <!-- this is default footer -->\\n    <footer id="noprint" class="footer container-fluid ">\\n      <div class="row">\\n        <div class="col-md-12">\\n          <div class="copyright pull-left">\', escape=False)\nresponse.write(T(\'Copyright\'))\nresponse.write(\' &#169; \', escape=False)\nresponse.write(request.now.year)\nresponse.write(\'</div>\\n          <div id="poweredBy" class="pull-right">\\n              Suporte <a href="https://api.whatsapp.com/send?phone=5588981126816">(88)98112-6816</a>\\n            </div>\\n        </div>\\n      </div>\\n    </footer>\\n <footer class="footer container-fluid d-none d-print-block">\\n      <div class="row">\\n        <div class="col-md-12">\\n          <div class="copyright pull-left">Suporte - (88)98112-6816</div>\\n          <div id="poweredBy" class="pull-right">\\n             \', escape=False)\nif auth.user:\n    response.write(auth.user.first_name)\n    response.write(\' \', escape=False)\n    response.write(auth.user.last_name)\nelse:\n    response.write(\'Aluminum System\', escape=False)\n    pass\nresponse.write(\'\\n          </div>\\n        </div>\\n      </div>\\n    </footer>\\n    \', escape=False)\nresponse.write(\'\\n    <!-- The javascript =============================== -->\\n    <script src="\', escape=False)\nresponse.write(URL(\'static\',\'js/bootstrap.bundle.min.js\'))\nresponse.write(\'"></script>\\n    <script src="\', escape=False)\nresponse.write(URL(\'static\',\'js/web2py-bootstrap4.js\'))\nresponse.write(\'"></script>\\n    \', escape=False)\nresponse.write(\'\\n    \', escape=False)\nif response.google_analytics_id:\n    response.write(\'\\n    <!-- Analytics ==================================== -->\\n    <script src="\', escape=False)\n    response.write(URL(\'static\',\'js/analytics.min.js\'))\n    response.write(\'"></script>\\n    <script type="text/javascript">\\n      analytics.initialize({\\n      \\\'Google Analytics\\\':{trackingId:\\\'\', escape=False)\n    response.write(response.google_analytics_id)\n    response.write("\'}\\n      });\\n    </script>\\n    ", escape=False)\n    pass\nresponse.write(\'\\n  </body>\\n</html>\\n\', escape=False)'
p7
sS'snapshot'
p8
(dp9
S'exception'
p10
(dp11
S'__getslice__'
p12
S"<method-wrapper '__getslice__' of exceptions.NameError object>"
p13
sS'__str__'
p14
S"<method-wrapper '__str__' of exceptions.NameError object>"
p15
sS'__reduce__'
p16
S'<built-in method __reduce__ of exceptions.NameError object>'
p17
sS'__dict__'
p18
S'{}'
p19
sS'message'
p20
S'"name \'percentual_despesa_venda\' is not defined"'
p21
sS'__sizeof__'
p22
S'<built-in method __sizeof__ of exceptions.NameError object>'
p23
sS'__init__'
p24
S"<method-wrapper '__init__' of exceptions.NameError object>"
p25
sS'__setattr__'
p26
S"<method-wrapper '__setattr__' of exceptions.NameError object>"
p27
sS'__reduce_ex__'
p28
S'<built-in method __reduce_ex__ of exceptions.NameError object>'
p29
sS'__new__'
p30
S'<built-in method __new__ of type object>'
p31
sS'__format__'
p32
S'<built-in method __format__ of exceptions.NameError object>'
p33
sS'__class__'
p34
S"<type 'exceptions.NameError'>"
p35
sS'__doc__'
p36
S"'Name not found globally.'"
p37
sS'__getitem__'
p38
S"<method-wrapper '__getitem__' of exceptions.NameError object>"
p39
sS'__setstate__'
p40
S'<built-in method __setstate__ of exceptions.NameError object>'
p41
sS'__getattribute__'
p42
S"<method-wrapper '__getattribute__' of exceptions.NameError object>"
p43
sS'args'
p44
S'("name \'percentual_despesa_venda\' is not defined",)'
p45
sS'__subclasshook__'
p46
S'<built-in method __subclasshook__ of type object>'
p47
sS'__unicode__'
p48
S'<built-in method __unicode__ of exceptions.NameError object>'
p49
sS'__delattr__'
p50
S"<method-wrapper '__delattr__' of exceptions.NameError object>"
p51
sS'__repr__'
p52
S"<method-wrapper '__repr__' of exceptions.NameError object>"
p53
sS'__hash__'
p54
S"<method-wrapper '__hash__' of exceptions.NameError object>"
p55
ssS'evalue'
p56
S"name 'percentual_despesa_venda' is not defined"
p57
sS'request'
p58
cgluon.html
XML_unpickle
p59
(S's\xc7f\x00\x00<div><table><tr><td style="font-weight:bold;vertical-align:top;">ajax</td><td style="vertical-align:top;">:</td><td><div>False</div></td></tr><tr><td style="font-weight:bold;vertical-align:top;">application</td><td style="vertical-align:top;">:</td><td><div>aluminum</div></td></tr><tr><td style="font-weight:bold;vertical-align:top;">args</td><td style="vertical-align:top;">:</td><td><div><table><tr><td><div>132</div></td></tr></table></div></td></tr><tr><td style="font-weight:bold;vertical-align:top;">cid</td><td style="vertical-align:top;">:</td><td><div>None</div></td></tr><tr><td style="font-weight:bold;vertical-align:top;">client</td><td style="vertical-align:top;">:</td><td><div>191.212.144.51</div></td></tr><tr><td style="font-weight:bold;vertical-align:top;">controller</td><td style="vertical-align:top;">:</td><td><div>chefe</div></td></tr><tr><td style="font-weight:bold;vertical-align:top;">cookies</td><td style="vertical-align:top;">:</td><td><div><table><tr><td style="font-weight:bold;vertical-align:top;">session_id_admin</td><td style="vertical-align:top;">:</td><td><div>191.212.144.51-728a2e94-ee25-44eb-8b85-0b22a531cb7a<table><tr><td style="font-weight:bold;vertical-align:top;">comment</td><td style="vertical-align:top;">:</td><td><div></div></td></tr><tr><td style="font-weight:bold;vertical-align:top;">domain</td><td style="vertical-align:top;">:</td><td><div></div></td></tr><tr><td style="font-weight:bold;vertical-align:top;">expires</td><td style="vertical-align:top;">:</td><td><div></div></td></tr><tr><td style="font-weight:bold;vertical-align:top;">httponly</td><td style="vertical-align:top;">:</td><td><div></div></td></tr><tr><td style="font-weight:bold;vertical-align:top;">max-age</td><td style="vertical-align:top;">:</td><td><div></div></td></tr><tr><td style="font-weight:bold;vertical-align:top;">path</td><td style="vertical-align:top;">:</td><td><div></div></td></tr><tr><td style="font-weight:bold;vertical-align:top;">secure</td><td style="vertical-align:top;">:</td><td><div></div></td></tr><tr><td style="font-weight:bold;vertical-align:top;">version</td><td style="vertical-align:top;">:</td><td><div></div></td></tr></table></div></td></tr><tr><td style="font-weight:bold;vertical-align:top;">session_id_agrosystem</td><td style="vertical-align:top;">:</td><td><div>191.212.144.51-3dc5c406-642a-4277-ad66-fbbfa730d36c<table><tr><td style="font-weight:bold;vertical-align:top;">comment</td><td style="vertical-align:top;">:</td><td><div></div></td></tr><tr><td style="font-weight:bold;vertical-align:top;">domain</td><td style="vertical-align:top;">:</td><td><div></div></td></tr><tr><td style="font-weight:bold;vertical-align:top;">expires</td><td style="vertical-align:top;">:</td><td><div></div></td></tr><tr><td style="font-weight:bold;vertical-align:top;">httponly</td><td style="vertical-align:top;">:</td><td><div></div></td></tr><tr><td style="font-weight:bold;vertical-align:top;">max-age</td><td style="vertical-align:top;">:</td><td><div></div></td></tr><tr><td style="font-weight:bold;vertical-align:top;">path</td><td style="vertical-align:top;">:</td><td><div></div></td></tr><tr><td style="font-weight:bold;vertical-align:top;">secure</td><td style="vertical-align:top;">:</td><td><div></div></td></tr><tr><td style="font-weight:bold;vertical-align:top;">version</td><td style="vertical-align:top;">:</td><td><div></div></td></tr></table></div></td></tr><tr><td style="font-weight:bold;vertical-align:top;">session_id_aluminum</td><td style="vertical-align:top;">:</td><td><div>191.212.144.51-621a15b4-9ff7-496f-bc3a-5f04439c71fb<table><tr><td style="font-weight:bold;vertical-align:top;">comment</td><td style="vertical-align:top;">:</td><td><div></div></td></tr><tr><td style="font-weight:bold;vertical-align:top;">domain</td><td style="vertical-align:top;">:</td><td><div></div></td></tr><tr><td style="font-weight:bold;vertical-align:top;">expires</td><td style="vertical-align:top;">:</td><td><div></div></td></tr><tr><td style="font-weight:bold;vertical-align:top;">httponly</td><td style="vertical-align:top;">:</td><td><div></div></td></tr><tr><td style="font-weight:bold;vertical-align:top;">max-age</td><td style="vertical-align:top;">:</td><td><div></div></td></tr><tr><td style="font-weight:bold;vertical-align:top;">path</td><td style="vertical-align:top;">:</td><td><div></div></td></tr><tr><td style="font-weight:bold;vertical-align:top;">secure</td><td style="vertical-align:top;">:</td><td><div></div></td></tr><tr><td style="font-weight:bold;vertical-align:top;">version</td><td style="vertical-align:top;">:</td><td><div></div></td></tr></table></div></td></tr><tr><td style="font-weight:bold;vertical-align:top;">session_id_overcoming</td><td style="vertical-align:top;">:</td><td><div>191.212.144.51-6e30a602-ad2f-41a0-9b71-34a2b46366c3<table><tr><td style="font-weight:bold;vertical-align:top;">comment</td><td style="vertical-align:top;">:</td><td><div></div></td></tr><tr><td style="font-weight:bold;vertical-align:top;">domain</td><td style="vertical-align:top;">:</td><td><div></div></td></tr><tr><td style="font-weight:bold;vertical-align:top;">expires</td><td style="vertical-align:top;">:</td><td><div></div></td></tr><tr><td style="font-weight:bold;vertical-align:top;">httponly</td><td style="vertical-align:top;">:</td><td><div></div></td></tr><tr><td style="font-weight:bold;vertical-align:top;">max-age</td><td style="vertical-align:top;">:</td><td><div></div></td></tr><tr><td style="font-weight:bold;vertical-align:top;">path</td><td style="vertical-align:top;">:</td><td><div></div></td></tr><tr><td style="font-weight:bold;vertical-align:top;">secure</td><td style="vertical-align:top;">:</td><td><div></div></td></tr><tr><td style="font-weight:bold;vertical-align:top;">version</td><td style="vertical-align:top;">:</td><td><div></div></td></tr></table></div></td></tr><tr><td style="font-weight:bold;vertical-align:top;">session_id_welcome</td><td style="vertical-align:top;">:</td><td><div>191.212.144.51-94a54de2-18bd-464f-bd23-d69b4dc1f938<table><tr><td style="font-weight:bold;vertical-align:top;">comment</td><td style="vertical-align:top;">:</td><td><div></div></td></tr><tr><td style="font-weight:bold;vertical-align:top;">domain</td><td style="vertical-align:top;">:</td><td><div></div></td></tr><tr><td style="font-weight:bold;vertical-align:top;">expires</td><td style="vertical-align:top;">:</td><td><div></div></td></tr><tr><td style="font-weight:bold;vertical-align:top;">httponly</td><td style="vertical-align:top;">:</td><td><div></div></td></tr><tr><td style="font-weight:bold;vertical-align:top;">max-age</td><td style="vertical-align:top;">:</td><td><div></div></td></tr><tr><td style="font-weight:bold;vertical-align:top;">path</td><td style="vertical-align:top;">:</td><td><div></div></td></tr><tr><td style="font-weight:bold;vertical-align:top;">secure</td><td style="vertical-align:top;">:</td><td><div></div></td></tr><tr><td style="font-weight:bold;vertical-align:top;">version</td><td style="vertical-align:top;">:</td><td><div></div></td></tr></table></div></td></tr></table></div></td></tr><tr><td style="font-weight:bold;vertical-align:top;">env</td><td style="vertical-align:top;">:</td><td><div><table><tr><td style="font-weight:bold;vertical-align:top;">CONTENT_LENGTH</td><td style="vertical-align:top;">:</td><td><div></div></td></tr><tr><td style="font-weight:bold;vertical-align:top;">CONTENT_TYPE</td><td style="vertical-align:top;">:</td><td><div></div></td></tr><tr><td style="font-weight:bold;vertical-align:top;">DOCUMENT_ROOT</td><td style="vertical-align:top;">:</td><td><div>/usr/local/openresty/nginx/html</div></td></tr><tr><td style="font-weight:bold;vertical-align:top;">HTTPS</td><td style="vertical-align:top;">:</td><td><div>on</div></td></tr><tr><td style="font-weight:bold;vertical-align:top;">HTTP_ACCEPT</td><td style="vertical-align:top;">:</td><td><div>text/html,application/xhtml+xml,application/xml;q=0.9,image/webp,*/*;q=0.8</div></td></tr><tr><td style="font-weight:bold;vertical-align:top;">HTTP_ACCEPT_ENCODING</td><td style="vertical-align:top;">:</td><td><div>gzip, deflate, br</div></td></tr><tr><td style="font-weight:bold;vertical-align:top;">HTTP_ACCEPT_LANGUAGE</td><td style="vertical-align:top;">:</td><td><div>pt-BR,pt;q=0.8,en-US;q=0.5,en;q=0.3</div></td></tr><tr><td style="font-weight:bold;vertical-align:top;">HTTP_CACHE_CONTROL</td><td style="vertical-align:top;">:</td><td><div>max-age=0</div></td></tr><tr><td style="font-weight:bold;vertical-align:top;">HTTP_CONNECTION</td><td style="vertical-align:top;">:</td><td><div>close</div></td></tr><tr><td style="font-weight:bold;vertical-align:top;">HTTP_COOKIE</td><td style="vertical-align:top;">:</td><td><div>_ga=GA1.3.89391603.1621978944; session_id_overcoming=191.212.144.51-6e30a602-ad2f-41a0-9b71-34a2b46366c3; _ga=GA1.3.89391603.1621978944; session_id_agrosystem=191.212.144.51-3dc5c406-642a-4277-ad66-fbbfa730d36c; _gid=GA1.3.374763176.1623705350; session_id_admin=191.212.144.51-728a2e94-ee25-44eb-8b85-0b22a531cb7a; session_id_aluminum=191.212.144.51-621a15b4-9ff7-496f-bc3a-5f04439c71fb; session_id_welcome=191.212.144.51-94a54de2-18bd-464f-bd23-d69b4dc1f938; _gat=1</div></td></tr><tr><td style="font-weight:bold;vertical-align:top;">HTTP_HOST</td><td style="vertical-align:top;">:</td><td><div>rogoberto.pythonanywhere.com</div></td></tr><tr><td style="font-weight:bold;vertical-align:top;">HTTP_REFERER</td><td style="vertical-align:top;">:</td><td><div>https://rogoberto.pythonanywhere.com/aluminum/usuario/acesso_projeto/132</div></td></tr><tr><td style="font-weight:bold;vertical-align:top;">HTTP_UPGRADE_INSECURE_REQUESTS</td><td style="vertical-align:top;">:</td><td><div>1</div></td></tr><tr><td style="font-weight:bold;vertical-align:top;">HTTP_USER_AGENT</td><td style="vertical-align:top;">:</td><td><div>Mozilla/5.0 (X11; Ubuntu; Linux x86_64; rv:89.0) Gecko/20100101 Firefox/89.0</div></td></tr><tr><td style="font-weight:bold;vertical-align:top;">HTTP_X_FORWARDED_FOR</td><td style="vertical-align:top;">:</td><td><div>191.212.144.51</div></td></tr><tr><td style="font-weight:bold;vertical-align:top;">HTTP_X_REAL_IP</td><td style="vertical-align:top;">:</td><td><div>191.212.144.51</div></td></tr><tr><td style="font-weight:bold;vertical-align:top;">PATH_INFO</td><td style="vertical-align:top;">:</td><td><div>/aluminum/chefe/relatorio/132</div></td></tr><tr><td style="font-weight:bold;vertical-align:top;">QUERY_STRING</td><td style="vertical-align:top;">:</td><td><div></div></td></tr><tr><td style="font-weight:bold;vertical-align:top;">REMOTE_ADDR</td><td style="vertical-align:top;">:</td><td><div>10.0.0.224</div></td></tr><tr><td style="font-weight:bold;vertical-align:top;">REMOTE_PORT</td><td style="vertical-align:top;">:</td><td><div>58346</div></td></tr><tr><td style="font-weight:bold;vertical-align:top;">REQUEST_METHOD</td><td style="vertical-align:top;">:</td><td><div>GET</div></td></tr><tr><td style="font-weight:bold;vertical-align:top;">REQUEST_URI</td><td style="vertical-align:top;">:</td><td><div>/aluminum/chefe/relatorio/132</div></td></tr><tr><td style="font-weight:bold;vertical-align:top;">SCRIPT_NAME</td><td style="vertical-align:top;">:</td><td><div></div></td></tr><tr><td style="font-weight:bold;vertical-align:top;">SERVER_NAME</td><td style="vertical-align:top;">:</td><td><div>rogoberto.pythonanywhere.com</div></td></tr><tr><td style="font-weight:bold;vertical-align:top;">SERVER_PORT</td><td style="vertical-align:top;">:</td><td><div>443</div></td></tr><tr><td style="font-weight:bold;vertical-align:top;">SERVER_PROTOCOL</td><td style="vertical-align:top;">:</td><td><div>HTTP/1.1</div></td></tr><tr><td style="font-weight:bold;vertical-align:top;">app_folders</td><td style="vertical-align:top;">:</td><td><div>set([&#x27;/home/rogoberto/web2py/applications/welcome/&#x27;, &#x27;/home/rogoberto/web2py/applications/aluminum/&#x27;, &#x27;/home/rogoberto/web2py/applications/prodigy/&#x27;, &#x27;/home/rogoberto/web2py/applications/admin/&#x27;, &#x27;/home/rogoberto/web2py/applications/agrosystem/&#x27;, &#x27;/home/rogoberto/web2py/applications/localfs/&#x27;])</div></td></tr><tr><td style="font-weight:bold;vertical-align:top;">applications_parent</td><td style="vertical-align:top;">:</td><td><div>/home/rogoberto/web2py</div></td></tr><tr><td style="font-weight:bold;vertical-align:top;">content_length</td><td style="vertical-align:top;">:</td><td><div></div></td></tr><tr><td style="font-weight:bold;vertical-align:top;">content_type</td><td style="vertical-align:top;">:</td><td><div></div></td></tr><tr><td style="font-weight:bold;vertical-align:top;">db_sessions</td><td style="vertical-align:top;">:</td><td><div>set([])</div></td></tr><tr><td style="font-weight:bold;vertical-align:top;">debugging</td><td style="vertical-align:top;">:</td><td><div>True</div></td></tr><tr><td style="font-weight:bold;vertical-align:top;">document_root</td><td style="vertical-align:top;">:</td><td><div>/usr/local/openresty/nginx/html</div></td></tr><tr><td style="font-weight:bold;vertical-align:top;">gluon_parent</td><td style="vertical-align:top;">:</td><td><div>/home/rogoberto/web2py</div></td></tr><tr><td style="font-weight:bold;vertical-align:top;">http_accept</td><td style="vertical-align:top;">:</td><td><div>text/html,application/xhtml+xml,application/xml;q=0.9,image/webp,*/*;q=0.8</div></td></tr><tr><td style="font-weight:bold;vertical-align:top;">http_accept_encoding</td><td style="vertical-align:top;">:</td><td><div>gzip, deflate, br</div></td></tr><tr><td style="font-weight:bold;vertical-align:top;">http_accept_language</td><td style="vertical-align:top;">:</td><td><div>pt-BR,pt;q=0.8,en-US;q=0.5,en;q=0.3</div></td></tr><tr><td style="font-weight:bold;vertical-align:top;">http_cache_control</td><td style="vertical-align:top;">:</td><td><div>max-age=0</div></td></tr><tr><td style="font-weight:bold;vertical-align:top;">http_connection</td><td style="vertical-align:top;">:</td><td><div>close</div></td></tr><tr><td style="font-weight:bold;vertical-align:top;">http_cookie</td><td style="vertical-align:top;">:</td><td><div>_ga=GA1.3.89391603.1621978944; session_id_overcoming=191.212.144.51-6e30a602-ad2f-41a0-9b71-34a2b46366c3; _ga=GA1.3.89391603.1621978944; session_id_agrosystem=191.212.144.51-3dc5c406-642a-4277-ad66-fbbfa730d36c; _gid=GA1.3.374763176.1623705350; session_id_admin=191.212.144.51-728a2e94-ee25-44eb-8b85-0b22a531cb7a; session_id_aluminum=191.212.144.51-621a15b4-9ff7-496f-bc3a-5f04439c71fb; session_id_welcome=191.212.144.51-94a54de2-18bd-464f-bd23-d69b4dc1f938; _gat=1</div></td></tr><tr><td style="font-weight:bold;vertical-align:top;">http_host</td><td style="vertical-align:top;">:</td><td><div>rogoberto.pythonanywhere.com</div></td></tr><tr><td style="font-weight:bold;vertical-align:top;">http_referer</td><td style="vertical-align:top;">:</td><td><div>https://rogoberto.pythonanywhere.com/aluminum/usuario/acesso_projeto/132</div></td></tr><tr><td style="font-weight:bold;vertical-align:top;">http_upgrade_insecure_requests</td><td style="vertical-align:top;">:</td><td><div>1</div></td></tr><tr><td style="font-weight:bold;vertical-align:top;">http_user_agent</td><td style="vertical-align:top;">:</td><td><div>Mozilla/5.0 (X11; Ubuntu; Linux x86_64; rv:89.0) Gecko/20100101 Firefox/89.0</div></td></tr><tr><td style="font-weight:bold;vertical-align:top;">http_x_forwarded_for</td><td style="vertical-align:top;">:</td><td><div>191.212.144.51</div></td></tr><tr><td style="font-weight:bold;vertical-align:top;">http_x_real_ip</td><td style="vertical-align:top;">:</td><td><div>191.212.144.51</div></td></tr><tr><td style="font-weight:bold;vertical-align:top;">https</td><td style="vertical-align:top;">:</td><td><div>on</div></td></tr><tr><td style="font-weight:bold;vertical-align:top;">is_jython</td><td style="vertical-align:top;">:</td><td><div>False</div></td></tr><tr><td style="font-weight:bold;vertical-align:top;">is_py2</td><td style="vertical-align:top;">:</td><td><div>True</div></td></tr><tr><td style="font-weight:bold;vertical-align:top;">is_pypy</td><td style="vertical-align:top;">:</td><td><div>False</div></td></tr><tr><td style="font-weight:bold;vertical-align:top;">is_source</td><td style="vertical-align:top;">:</td><td><div>True</div></td></tr><tr><td style="font-weight:bold;vertical-align:top;">local_hosts</td><td style="vertical-align:top;">:</td><td><div><table><tr><td><div>35.173.69.207</div></td></tr><tr><td><div>::ffff:127.0.0.1</div></td></tr><tr><td><div>::1</div></td></tr><tr><td><div>rogoberto.pythonanywhere.com</div></td></tr><tr><td><div>127.0.0.1</div></td></tr><tr><td><div>blue-liveweb5</div></td></tr><tr><td><div>localhost</div></td></tr></table></div></td></tr><tr><td style="font-weight:bold;vertical-align:top;">path_info</td><td style="vertical-align:top;">:</td><td><div>/aluminum/chefe/relatorio/132</div></td></tr><tr><td style="font-weight:bold;vertical-align:top;">query_string</td><td style="vertical-align:top;">:</td><td><div></div></td></tr><tr><td style="font-weight:bold;vertical-align:top;">remote_addr</td><td style="vertical-align:top;">:</td><td><div>10.0.0.224</div></td></tr><tr><td style="font-weight:bold;vertical-align:top;">remote_port</td><td style="vertical-align:top;">:</td><td><div>58346</div></td></tr><tr><td style="font-weight:bold;vertical-align:top;">request_method</td><td style="vertical-align:top;">:</td><td><div>GET</div></td></tr><tr><td style="font-weight:bold;vertical-align:top;">request_uri</td><td style="vertical-align:top;">:</td><td><div>/aluminum/chefe/relatorio/132</div></td></tr><tr><td style="font-weight:bold;vertical-align:top;">script_name</td><td style="vertical-align:top;">:</td><td><div></div></td></tr><tr><td style="font-weight:bold;vertical-align:top;">server_name</td><td style="vertical-align:top;">:</td><td><div>rogoberto.pythonanywhere.com</div></td></tr><tr><td style="font-weight:bold;vertical-align:top;">server_port</td><td style="vertical-align:top;">:</td><td><div>443</div></td></tr><tr><td style="font-weight:bold;vertical-align:top;">server_protocol</td><td style="vertical-align:top;">:</td><td><div>HTTP/1.1</div></td></tr><tr><td style="font-weight:bold;vertical-align:top;">uwsgi.node</td><td style="vertical-align:top;">:</td><td><div>blue-liveweb5</div></td></tr><tr><td style="font-weight:bold;vertical-align:top;">uwsgi.version</td><td style="vertical-align:top;">:</td><td><div>2.0.17.1</div></td></tr><tr><td style="font-weight:bold;vertical-align:top;">uwsgi_node</td><td style="vertical-align:top;">:</td><td><div>blue-liveweb5</div></td></tr><tr><td style="font-weight:bold;vertical-align:top;">uwsgi_version</td><td style="vertical-align:top;">:</td><td><div>2.0.17.1</div></td></tr><tr><td style="font-weight:bold;vertical-align:top;">web2py_original_uri</td><td style="vertical-align:top;">:</td><td><div>/aluminum/chefe/relatorio/132</div></td></tr><tr><td style="font-weight:bold;vertical-align:top;">web2py_path</td><td style="vertical-align:top;">:</td><td><div>/home/rogoberto/web2py</div></td></tr><tr><td style="font-weight:bold;vertical-align:top;">web2py_version</td><td style="vertical-align:top;">:</td><td><div>2.17.1-stable+timestamp.2018.08.06.01.02.56</div></td></tr><tr><td style="font-weight:bold;vertical-align:top;">wsgi.errors</td><td style="vertical-align:top;">:</td><td><div>&lt;uwsgi_file__bin_user_wsgi_wrapper.ErrorLogFile object at 0x7fc5d9045c10&gt;</div></td></tr><tr><td style="font-weight:bold;vertical-align:top;">wsgi.file_wrapper</td><td style="vertical-align:top;">:</td><td><div>&lt;built-in function uwsgi_sendfile&gt;</div></td></tr><tr><td style="font-weight:bold;vertical-align:top;">wsgi.input</td><td style="vertical-align:top;">:</td><td><div>&lt;uwsgi._Input object at 0x7fc5d1dfb4c8&gt;</div></td></tr><tr><td style="font-weight:bold;vertical-align:top;">wsgi.multiprocess</td><td style="vertical-align:top;">:</td><td><div>True</div></td></tr><tr><td style="font-weight:bold;vertical-align:top;">wsgi.multithread</td><td style="vertical-align:top;">:</td><td><div>False</div></td></tr><tr><td style="font-weight:bold;vertical-align:top;">wsgi.run_once</td><td style="vertical-align:top;">:</td><td><div>False</div></td></tr><tr><td style="font-weight:bold;vertical-align:top;">wsgi.url_scheme</td><td style="vertical-align:top;">:</td><td><div>https</div></td></tr><tr><td style="font-weight:bold;vertical-align:top;">wsgi.version</td><td style="vertical-align:top;">:</td><td><div><table><tr><td><div>1</div></td></tr><tr><td><div>0</div></td></tr></table></div></td></tr><tr><td style="font-weight:bold;vertical-align:top;">wsgi_errors</td><td style="vertical-align:top;">:</td><td><div>&lt;uwsgi_file__bin_user_wsgi_wrapper.ErrorLogFile object at 0x7fc5d9045c10&gt;</div></td></tr><tr><td style="font-weight:bold;vertical-align:top;">wsgi_file_wrapper</td><td style="vertical-align:top;">:</td><td><div>&lt;built-in function uwsgi_sendfile&gt;</div></td></tr><tr><td style="font-weight:bold;vertical-align:top;">wsgi_input</td><td style="vertical-align:top;">:</td><td><div>&lt;uwsgi._Input object at 0x7fc5d1dfb4c8&gt;</div></td></tr><tr><td style="font-weight:bold;vertical-align:top;">wsgi_multiprocess</td><td style="vertical-align:top;">:</td><td><div>True</div></td></tr><tr><td style="font-weight:bold;vertical-align:top;">wsgi_multithread</td><td style="vertical-align:top;">:</td><td><div>False</div></td></tr><tr><td style="font-weight:bold;vertical-align:top;">wsgi_run_once</td><td style="vertical-align:top;">:</td><td><div>False</div></td></tr><tr><td style="font-weight:bold;vertical-align:top;">wsgi_url_scheme</td><td style="vertical-align:top;">:</td><td><div>https</div></td></tr><tr><td style="font-weight:bold;vertical-align:top;">wsgi_version</td><td style="vertical-align:top;">:</td><td><div><table><tr><td><div>1</div></td></tr><tr><td><div>0</div></td></tr></table></div></td></tr></table></div></td></tr><tr><td style="font-weight:bold;vertical-align:top;">extension</td><td style="vertical-align:top;">:</td><td><div>html</div></td></tr><tr><td style="font-weight:bold;vertical-align:top;">folder</td><td style="vertical-align:top;">:</td><td><div>/home/rogoberto/web2py/applications/aluminum/</div></td></tr><tr><td style="font-weight:bold;vertical-align:top;">function</td><td style="vertical-align:top;">:</td><td><div>relatorio</div></td></tr><tr><td style="font-weight:bold;vertical-align:top;">global_settings</td><td style="vertical-align:top;">:</td><td><div><table><tr><td style="font-weight:bold;vertical-align:top;">app_folders</td><td style="vertical-align:top;">:</td><td><div>set([&#x27;/home/rogoberto/web2py/applications/welcome/&#x27;, &#x27;/home/rogoberto/web2py/applications/aluminum/&#x27;, &#x27;/home/rogoberto/web2py/applications/prodigy/&#x27;, &#x27;/home/rogoberto/web2py/applications/admin/&#x27;, &#x27;/home/rogoberto/web2py/applications/agrosystem/&#x27;, &#x27;/home/rogoberto/web2py/applications/localfs/&#x27;])</div></td></tr><tr><td style="font-weight:bold;vertical-align:top;">applications_parent</td><td style="vertical-align:top;">:</td><td><div>/home/rogoberto/web2py</div></td></tr><tr><td style="font-weight:bold;vertical-align:top;">db_sessions</td><td style="vertical-align:top;">:</td><td><div>set([])</div></td></tr><tr><td style="font-weight:bold;vertical-align:top;">debugging</td><td style="vertical-align:top;">:</td><td><div>True</div></td></tr><tr><td style="font-weight:bold;vertical-align:top;">gluon_parent</td><td style="vertical-align:top;">:</td><td><div>/home/rogoberto/web2py</div></td></tr><tr><td style="font-weight:bold;vertical-align:top;">is_jython</td><td style="vertical-align:top;">:</td><td><div>False</div></td></tr><tr><td style="font-weight:bold;vertical-align:top;">is_py2</td><td style="vertical-align:top;">:</td><td><div>True</div></td></tr><tr><td style="font-weight:bold;vertical-align:top;">is_pypy</td><td style="vertical-align:top;">:</td><td><div>False</div></td></tr><tr><td style="font-weight:bold;vertical-align:top;">is_source</td><td style="vertical-align:top;">:</td><td><div>True</div></td></tr><tr><td style="font-weight:bold;vertical-align:top;">local_hosts</td><td style="vertical-align:top;">:</td><td><div><table><tr><td><div>35.173.69.207</div></td></tr><tr><td><div>::ffff:127.0.0.1</div></td></tr><tr><td><div>::1</div></td></tr><tr><td><div>rogoberto.pythonanywhere.com</div></td></tr><tr><td><div>127.0.0.1</div></td></tr><tr><td><div>blue-liveweb5</div></td></tr><tr><td><div>localhost</div></td></tr></table></div></td></tr><tr><td style="font-weight:bold;vertical-align:top;">web2py_version</td><td style="vertical-align:top;">:</td><td><div>2.17.1-stable+timestamp.2018.08.06.01.02.56</div></td></tr></table></div></td></tr><tr><td style="font-weight:bold;vertical-align:top;">is_https</td><td style="vertical-align:top;">:</td><td><div>True</div></td></tr><tr><td style="font-weight:bold;vertical-align:top;">is_local</td><td style="vertical-align:top;">:</td><td><div>False</div></td></tr><tr><td style="font-weight:bold;vertical-align:top;">is_restful</td><td style="vertical-align:top;">:</td><td><div>False</div></td></tr><tr><td style="font-weight:bold;vertical-align:top;">is_scheduler</td><td style="vertical-align:top;">:</td><td><div>False</div></td></tr><tr><td style="font-weight:bold;vertical-align:top;">is_shell</td><td style="vertical-align:top;">:</td><td><div>False</div></td></tr><tr><td style="font-weight:bold;vertical-align:top;">method</td><td style="vertical-align:top;">:</td><td><div>GET</div></td></tr><tr><td style="font-weight:bold;vertical-align:top;">now</td><td style="vertical-align:top;">:</td><td><div>datetime.datetime(2021, 6, 18, 11, 3, 12, 680635)</div></td></tr><tr><td style="font-weight:bold;vertical-align:top;">url</td><td style="vertical-align:top;">:</td><td><div>/aluminum/chefe/relatorio/132</div></td></tr><tr><td style="font-weight:bold;vertical-align:top;">utcnow</td><td style="vertical-align:top;">:</td><td><div>datetime.datetime(2021, 6, 18, 11, 3, 12, 680645)</div></td></tr><tr><td style="font-weight:bold;vertical-align:top;">wsgi</td><td style="vertical-align:top;">:</td><td><div>&lt;gluon.main.LazyWSGI object at 0x7fc5d208e590&gt;</div></td></tr></table></div>'
tRp60
sS'frames'
p61
(lp62
(dp63
S'file'
p64
S'/home/rogoberto/web2py/gluon/restricted.py'
p65
sS'dump'
p66
(dp67
S'environment'
p68
S"{'A': <class 'gluon.html.A'>, 'ANY_OF': <class 'gluon.validators.ANY_OF'>, 'ASSIGNJS': <function ASSIGNJS>, 'AppConfig': <function AppConfig>, 'Auth': <class 'gluon.tools.Auth'>, 'B': <class 'gluon.html.B'>, 'BEAUTIFY': <class 'gluon.html.BEAUTIFY'>, 'BODY': <class 'gluon.html.BODY'>, 'BR': <class 'gluon.html.BR'>, 'BUTTON': <class 'gluon.html.BUTTON'>, ...}"
p69
sS'ccode'
p70
S'<code object <module> at 0x7fc5d8402a30, file "/...ons/aluminum/views/chefe/relatorio.html", line 1>'
p71
ssS'lnum'
p72
I219
sS'lines'
p73
(dp74
I214
S'    if environment is None:'
p75
sI215
S'        environment = {}'
p76
sI216
S"    environment['__file__'] = layer"
p77
sI217
S"    environment['__name__'] = '__restricted__'"
p78
sI218
S'    try:'
p79
sI219
S'        exec(ccode, environment)'
p80
sI220
S'    except HTTP:'
p81
sI221
S'        raise'
p82
sI222
S'    except RestrictedError:'
p83
sI223
S'        # do not encapsulate (obfuscate) the original RestrictedError'
p84
ssS'call'
p85
S'(ccode=<code object <module> at 0x7fc5d8402a30, file "/...ons/aluminum/views/chefe/relatorio.html", line 1>, environment={\'A\': <class \'gluon.html.A\'>, \'ANY_OF\': <class \'gluon.validators.ANY_OF\'>, \'ASSIGNJS\': <function ASSIGNJS>, \'AppConfig\': <function AppConfig>, \'Auth\': <class \'gluon.tools.Auth\'>, \'B\': <class \'gluon.html.B\'>, \'BEAUTIFY\': <class \'gluon.html.BEAUTIFY\'>, \'BODY\': <class \'gluon.html.BODY\'>, \'BR\': <class \'gluon.html.BR\'>, \'BUTTON\': <class \'gluon.html.BUTTON\'>, ...}, layer=\'/home/rogoberto/web2py/applications/aluminum/views/chefe/relatorio.html\', scode=r"response.write(\'<!DOCTYPE html>\\n<!--[if (gt IE ...nse.write(\'\\n  </body>\\n</html>\\n\', escape=False)")'
p86
sS'func'
p87
S'restricted'
p88
sa(dp89
g64
S'/home/rogoberto/web2py/applications/aluminum/views/chefe/relatorio.html'
p90
sg66
(dp91
sg72
I301
sg73
(dp92
I292
S"    response.write('0</span>\\n              </li>\\n                ', escape=False)"
p93
sI293
S'else:'
p94
sI294
S'    response.write(\'\\n                <li class="list-group-item d-flex justify-content-between bg-light">\\n                <div class="text-danger">\\n                  <h6 class="my-0"><b class="text-danger">Saldo Chefe</b></h6>\\n                </div> <span class="text-danger">R$ \', escape=False)'
p95
sI295
S'    response.write("{:,}".format(round(saldo_chefe,1)).replace(",","."))'
p96
sI296
S"    response.write('0</span>\\n              </li>\\n                ', escape=False)"
p97
sI297
S'    pass'
p98
sI298
S"response.write('\\n            </ul>\\n            ', escape=False)"
p99
sI299
S'if projeto.empresa==21:'
p100
sI300
S'    response.write(\'\\n            <p class="d-flex justify-content-between mb-3"> <span><b>Despesa Geral.</b></span> </p>\\n            <ul class="list-group">\\n              <li class="list-group-item d-flex justify-content-between">\\n                <div>\\n                  <h6 class="my-0">Despesa Venda</h6>\\n                  <small class="text-muted">\\n                    \', escape=False)'
p101
sI301
S'    response.write("{:,}".format(round(percentual_despesa_venda,1)).replace(",","."))'
p102
sI302
S'    response.write(\'%\\n                  </small>\\n                </div>\\n                <span class="text-muted">\\n                  R$ \', escape=False)'
p103
sI303
S'    response.write("{:,.2f}".format(round(projeto.total_despesa_venda)).replace(",","#").replace(".",",").replace("#","."))'
p104
sI304
S'    response.write(\'\\n                </span>\\n              </li>\\n              <li class="list-group-item d-flex justify-content-between">\\n                <div>\\n                  <h6 class="my-0">Despesa Local</h6>\\n                  <small class="text-muted">\\n                     \', escape=False)'
p105
sI305
S'    response.write("{:,}".format(round(percentual_despesa_local,1)).replace(",","."))'
p106
sI306
S'    response.write(\'%\\n                  </small>\\n                </div>\\n                <span class="text-muted">\\n                  R$ \', escape=False)'
p107
sI307
S'    response.write("{:,.2f}".format(round(projeto.total_despesa_local)).replace(",","#").replace(".",",").replace("#","."))'
p108
sI308
S"    response.write('\\n                </span>\\n              </li>\\n              ', escape=False)"
p109
sI309
S'    total_despesas_geral=projeto.total_despesa_local+projeto.total_despesa_venda'
p110
sI310
S"    response.write('\\n            ', escape=False)"
p111
sI311
S'    percentual_despesa_geral=0'
p112
ssg85
S'()'
p113
sg87
S'<module>'
p114
sasS'pyver'
p115
S'Python 2.7.12: /usr/local/bin/uwsgi (prefix: /usr)'
p116
sS'session'
p117
g59
(S'so\x08\x00\x00<div><table><tr><td style="font-weight:bold;vertical-align:top;">auth</td><td style="vertical-align:top;">:</td><td><div><table><tr><td style="font-weight:bold;vertical-align:top;">expiration</td><td style="vertical-align:top;">:</td><td><div>3600</div></td></tr><tr><td style="font-weight:bold;vertical-align:top;">hmac_key</td><td style="vertical-align:top;">:</td><td><div>3b6790df-7eb8-43ff-9bf1-0074307746a0</div></td></tr><tr><td style="font-weight:bold;vertical-align:top;">last_visit</td><td style="vertical-align:top;">:</td><td><div>datetime.datetime(2021, 6, 18, 11, 2, 31, 523895)</div></td></tr><tr><td style="font-weight:bold;vertical-align:top;">remember_me</td><td style="vertical-align:top;">:</td><td><div>False</div></td></tr><tr><td style="font-weight:bold;vertical-align:top;">user</td><td style="vertical-align:top;">:</td><td><div><table><tr><td style="font-weight:bold;vertical-align:top;">email</td><td style="vertical-align:top;">:</td><td><div>humberto@paifilho.com</div></td></tr><tr><td style="font-weight:bold;vertical-align:top;">first_name</td><td style="vertical-align:top;">:</td><td><div>Humberto</div></td></tr><tr><td style="font-weight:bold;vertical-align:top;">id</td><td style="vertical-align:top;">:</td><td><div>93L</div></td></tr><tr><td style="font-weight:bold;vertical-align:top;">last_name</td><td style="vertical-align:top;">:</td><td><div>Chefe</div></td></tr><tr><td style="font-weight:bold;vertical-align:top;">registration_id</td><td style="vertical-align:top;">:</td><td><div></div></td></tr><tr><td style="font-weight:bold;vertical-align:top;">registration_key</td><td style="vertical-align:top;">:</td><td><div></div></td></tr><tr><td style="font-weight:bold;vertical-align:top;">reset_password_key</td><td style="vertical-align:top;">:</td><td><div></div></td></tr></table></div></td></tr><tr><td style="font-weight:bold;vertical-align:top;">user_groups</td><td style="vertical-align:top;">:</td><td><div><table></table></div></td></tr></table></div></td></tr><tr><td style="font-weight:bold;vertical-align:top;">flash</td><td style="vertical-align:top;">:</td><td><div>None</div></td></tr></table></div>'
tRp118
sS'etype'
p119
S"<type 'exceptions.NameError'>"
p120
sS'date'
p121
S'Fri Jun 18 11:03:14 2021'
p122
sS'response'
p123
g59
(S's\x11\x1d\x00\x00<div><table><tr><td style="font-weight:bold;vertical-align:top;">body</td><td style="vertical-align:top;">:</td><td><div>&lt;cStringIO.StringO object at 0x7fc5d165d1f0&gt;</div></td></tr><tr><td style="font-weight:bold;vertical-align:top;">cookies</td><td style="vertical-align:top;">:</td><td><div><table><tr><td style="font-weight:bold;vertical-align:top;">session_id_aluminum</td><td style="vertical-align:top;">:</td><td><div>191.212.144.51-621a15b4-9ff7-496f-bc3a-5f04439c71fb<table><tr><td style="font-weight:bold;vertical-align:top;">comment</td><td style="vertical-align:top;">:</td><td><div></div></td></tr><tr><td style="font-weight:bold;vertical-align:top;">domain</td><td style="vertical-align:top;">:</td><td><div></div></td></tr><tr><td style="font-weight:bold;vertical-align:top;">expires</td><td style="vertical-align:top;">:</td><td><div></div></td></tr><tr><td style="font-weight:bold;vertical-align:top;">httponly</td><td style="vertical-align:top;">:</td><td><div></div></td></tr><tr><td style="font-weight:bold;vertical-align:top;">max-age</td><td style="vertical-align:top;">:</td><td><div></div></td></tr><tr><td style="font-weight:bold;vertical-align:top;">path</td><td style="vertical-align:top;">:</td><td><div>/</div></td></tr><tr><td style="font-weight:bold;vertical-align:top;">secure</td><td style="vertical-align:top;">:</td><td><div></div></td></tr><tr><td style="font-weight:bold;vertical-align:top;">version</td><td style="vertical-align:top;">:</td><td><div></div></td></tr></table></div></td></tr></table></div></td></tr><tr><td style="font-weight:bold;vertical-align:top;">delimiters</td><td style="vertical-align:top;">:</td><td><div><table><tr><td><div>{{</div></td></tr><tr><td><div>}}</div></td></tr></table></div></td></tr><tr><td style="font-weight:bold;vertical-align:top;">files</td><td style="vertical-align:top;">:</td><td><div><table><tr><td><div>/aluminum/static/js/jquery.js</div></td></tr><tr><td><div>/aluminum/static/css/calendar.css</div></td></tr><tr><td><div>/aluminum/static/js/calendar.js</div></td></tr><tr><td><div>/aluminum/static/js/web2py.js</div></td></tr></table></div></td></tr><tr><td style="font-weight:bold;vertical-align:top;">flash</td><td style="vertical-align:top;">:</td><td><div></div></td></tr><tr><td style="font-weight:bold;vertical-align:top;">form_label_separator</td><td style="vertical-align:top;">:</td><td><div></div></td></tr><tr><td style="font-weight:bold;vertical-align:top;">formstyle</td><td style="vertical-align:top;">:</td><td><div>bootstrap4_inline</div></td></tr><tr><td style="font-weight:bold;vertical-align:top;">generic_patterns</td><td style="vertical-align:top;">:</td><td><div><table></table></div></td></tr><tr><td style="font-weight:bold;vertical-align:top;">google_analytics_id</td><td style="vertical-align:top;">:</td><td><div>None</div></td></tr><tr><td style="font-weight:bold;vertical-align:top;">headers</td><td style="vertical-align:top;">:</td><td><div><table><tr><td style="font-weight:bold;vertical-align:top;">X-Powered-By</td><td style="vertical-align:top;">:</td><td><div>web2py</div></td></tr></table></div></td></tr><tr><td style="font-weight:bold;vertical-align:top;">menu</td><td style="vertical-align:top;">:</td><td><div><table><tr><td><div><table><tr><td><div>Principal</div></td></tr><tr><td><div>False</div></td></tr><tr><td><div>/aluminum</div></td></tr><tr><td><div><table></table></div></td></tr></table></div></td></tr></table></div></td></tr><tr><td style="font-weight:bold;vertical-align:top;">meta</td><td style="vertical-align:top;">:</td><td><div><table><tr><td style="font-weight:bold;vertical-align:top;">author</td><td style="vertical-align:top;">:</td><td><div>Your Name &lt;you@example.com&gt;</div></td></tr><tr><td style="font-weight:bold;vertical-align:top;">description</td><td style="vertical-align:top;">:</td><td><div>Controle suas venda e cobrancas.</div></td></tr><tr><td style="font-weight:bold;vertical-align:top;">generator</td><td style="vertical-align:top;">:</td><td><div>Web2py Web Framework</div></td></tr><tr><td style="font-weight:bold;vertical-align:top;">keywords</td><td style="vertical-align:top;">:</td><td><div><table><tr><td><div>web2py</div></td></tr><tr><td><div>python</div></td></tr><tr><td><div>framework</div></td></tr></table></div></td></tr></table></div></td></tr><tr><td style="font-weight:bold;vertical-align:top;">models_to_run</td><td style="vertical-align:top;">:</td><td><div><table><tr><td><div>^\\w+\\.py$</div></td></tr><tr><td><div>^chefe/\\w+\\.py$</div></td></tr><tr><td><div>^chefe/relatorio/\\w+\\.py$</div></td></tr></table></div></td></tr><tr><td style="font-weight:bold;vertical-align:top;">postprocessing</td><td style="vertical-align:top;">:</td><td><div><table></table></div></td></tr><tr><td style="font-weight:bold;vertical-align:top;">session_client</td><td style="vertical-align:top;">:</td><td><div>191.212.144.51</div></td></tr><tr><td style="font-weight:bold;vertical-align:top;">session_cookie_compression_level</td><td style="vertical-align:top;">:</td><td><div>None</div></td></tr><tr><td style="font-weight:bold;vertical-align:top;">session_cookie_expires</td><td style="vertical-align:top;">:</td><td><div>None</div></td></tr><tr><td style="font-weight:bold;vertical-align:top;">session_data_name</td><td style="vertical-align:top;">:</td><td><div>session_data_aluminum</div></td></tr><tr><td style="font-weight:bold;vertical-align:top;">session_file</td><td style="vertical-align:top;">:</td><td><div>&lt;open file &#x27;/home/rogoberto/web2py/applications/aluminum/sessions/1ad/1f9/191.212.144.51-621a15b4-9ff7-496f-bc3a-5f04439c71fb&#x27;, mode &#x27;rb+&#x27; at 0x7fc5d02235d0&gt;</div></td></tr><tr><td style="font-weight:bold;vertical-align:top;">session_filename</td><td style="vertical-align:top;">:</td><td><div>/home/rogoberto/web2py/applications/aluminum/sessions/191.212.144.51-621a15b4-9ff7-496f-bc3a-5f04439c71fb</div></td></tr><tr><td style="font-weight:bold;vertical-align:top;">session_hash</td><td style="vertical-align:top;">:</td><td><div>fea3feeb4879ff2b11244f5a6c284888</div></td></tr><tr><td style="font-weight:bold;vertical-align:top;">session_id</td><td style="vertical-align:top;">:</td><td><div>191.212.144.51-621a15b4-9ff7-496f-bc3a-5f04439c71fb</div></td></tr><tr><td style="font-weight:bold;vertical-align:top;">session_id_name</td><td style="vertical-align:top;">:</td><td><div>session_id_aluminum</div></td></tr><tr><td style="font-weight:bold;vertical-align:top;">session_locked</td><td style="vertical-align:top;">:</td><td><div>True</div></td></tr><tr><td style="font-weight:bold;vertical-align:top;">session_masterapp</td><td style="vertical-align:top;">:</td><td><div>aluminum</div></td></tr><tr><td style="font-weight:bold;vertical-align:top;">session_new</td><td style="vertical-align:top;">:</td><td><div>False</div></td></tr><tr><td style="font-weight:bold;vertical-align:top;">session_storage_type</td><td style="vertical-align:top;">:</td><td><div>file</div></td></tr><tr><td style="font-weight:bold;vertical-align:top;">show_toolbar</td><td style="vertical-align:top;">:</td><td><div>False</div></td></tr><tr><td style="font-weight:bold;vertical-align:top;">status</td><td style="vertical-align:top;">:</td><td><div>200</div></td></tr><tr><td style="font-weight:bold;vertical-align:top;">view</td><td style="vertical-align:top;">:</td><td><div>chefe/relatorio.html</div></td></tr></table></div>'
tRp124
sS'locals'
p125
(dp126
S'psaida'
p127
S'0L'
p128
sS'PY2'
p129
S'True'
p130
sS'OBJECT'
p131
S"<class 'gluon.html.OBJECT'>"
p132
sS'SQLDB'
p133
S"<class 'pydal.base.DAL'>"
p134
sg117
S"<Storage {'_auth_next': None, 'flash': None, 'au...-ce30-4f76-8a8f-73d7a3f94ee4'], '_secure': True}>"
p135
sS'LINK'
p136
S"<class 'gluon.html.LINK'>"
p137
sS'BR'
p138
S"<class 'gluon.html.BR'>"
p139
sS'local_import'
p140
S'<function <lambda>>'
p141
sS'OPTGROUP'
p142
S"<class 'gluon.html.OPTGROUP'>"
p143
sS'__package__'
p144
S'None'
p145
sS'PRE'
p146
S"<class 'gluon.html.PRE'>"
p147
sS'IS_INT_IN_RANGE'
p148
S"<class 'gluon.validators.IS_INT_IN_RANGE'>"
p149
sS'to_bytes'
p150
S'<function to_bytes>'
p151
sS'total_comissao'
p152
S'26464.5'
p153
sS'IS_LOWER'
p154
S"<class 'gluon.validators.IS_LOWER'>"
p155
sS'IS_STRONG'
p156
S"<class 'gluon.validators.IS_STRONG'>"
p157
sS'cache'
p158
S'<gluon.cache.Cache object>'
p159
sS'IS_IN_DB'
p160
S"<class 'gluon.validators.IS_IN_DB'>"
p161
sS'TAG'
p162
S'<gluon.html.__TAG__ object>'
p163
sS'SQLField'
p164
S"<class 'pydal.objects.Field'>"
p165
sS'mail'
p166
S'<gluon.tools.Mail object>'
p167
sS'BODY'
p168
S"<class 'gluon.html.BODY'>"
p169
sS'IS_DATE_IN_RANGE'
p170
S"<class 'gluon.validators.IS_DATE_IN_RANGE'>"
p171
sS'IFRAME'
p172
S"<class 'gluon.html.IFRAME'>"
p173
sS'URL'
p174
S'<function URL>'
p175
sS'__file__'
p176
S"'/home/rogoberto/web2py/applications/aluminum/views/chefe/relatorio.html'"
p177
sS'db'
p178
S'<DAL uri="sqlite://storage.sqlite">'
p179
sS'auth'
p180
S'<gluon.tools.Auth object>'
p181
sS'P'
S"<class 'gluon.html.P'>"
p182
sS'TFOOT'
p183
S"<class 'gluon.html.TFOOT'>"
p184
sS'iteritems'
p185
S'<function <lambda>>'
p186
sS'XHTML'
p187
S"<class 'gluon.html.XHTML'>"
p188
sS'datetime'
p189
S"<module 'datetime' (built-in)>"
p190
sS'ON'
p191
g130
sS'OL'
p192
S"<class 'gluon.html.OL'>"
p193
sS'TEXTAREA'
p194
S"<class 'gluon.html.TEXTAREA'>"
p195
sS'MENU'
p196
S"<class 'gluon.html.MENU'>"
p197
sS'perc_desp'
p198
S'7.467803186424297'
p199
sS'IS_IMAGE'
p200
S"<class 'gluon.validators.IS_IMAGE'>"
p201
sS'EM'
p202
S"<class 'gluon.html.EM'>"
p203
sS'CODE'
p204
S"<class 'gluon.html.CODE'>"
p205
sS'HTTP'
p206
S"<class 'gluon.http.HTTP'>"
p207
sS'HR'
p208
S"<class 'gluon.html.HR'>"
p209
sS'IS_DATETIME'
p210
S"<class 'gluon.validators.IS_DATETIME'>"
p211
sS'reduce'
p212
S'<built-in function reduce>'
p213
sS'STYLE'
p214
S"<class 'gluon.html.STYLE'>"
p215
sS'LABEL'
p216
S"<class 'gluon.html.LABEL'>"
p217
sS'CLEANUP'
p218
S"<class 'gluon.validators.CLEANUP'>"
p219
sS'BUTTON'
p220
S"<class 'gluon.html.BUTTON'>"
p221
sS'SELECT'
p222
S"<class 'gluon.html.SELECT'>"
p223
sS'CENTER'
p224
S"<class 'gluon.html.CENTER'>"
p225
sS'Auth'
p226
S"<class 'gluon.tools.Auth'>"
p227
sS'urlopen'
p228
S'<function urlopen>'
p229
sS'HTML'
p230
S"<class 'gluon.html.HTML'>"
p231
sS'SQLFORM'
p232
S"<class 'gluon.sqlhtml.SQLFORM'>"
p233
sS'_item'
p234
S"(<lazyT 'Home'>, False, '/aluminum', [])"
p235
sS'LOAD'
p236
S'<function LOAD>'
p237
sS'redirect'
p238
S'<function redirect>'
p239
sS'FIELDSET'
p240
S"<class 'gluon.html.FIELDSET'>"
p241
sS'IS_EQUAL_TO'
p242
S"<class 'gluon.validators.IS_EQUAL_TO'>"
p243
sS'embed64'
p244
S'<function embed64>'
p245
sS'IS_LIST_OF'
p246
S"<class 'gluon.validators.IS_LIST_OF'>"
p247
sS'INPUT'
p248
S"<class 'gluon.html.INPUT'>"
p249
sS'EMBED'
p250
S"<class 'gluon.html.EMBED'>"
p251
sS'configuration'
p252
S"{'host': {'names': 'localhost:*, 127.0.0.1:*, *:...': 'sqlite://storage.sqlite', 'pool_size': '10'}}"
p253
sS'H2'
p254
S"<class 'gluon.html.H2'>"
p255
sS'H3'
p256
S"<class 'gluon.html.H3'>"
p257
sS'projeto'
p258
S"<Row {'empresa': 21L, 'total_salario_funcionario...rado': 32713.0, 'total_pecas_mercadoria': 8846L}>"
p259
sS'H1'
p260
S"<class 'gluon.html.H1'>"
p261
sS'H6'
p262
S"<class 'gluon.html.H6'>"
p263
sS'H4'
p264
S"<class 'gluon.html.H4'>"
p265
sS'H5'
p266
S"<class 'gluon.html.H5'>"
p267
sS'UL'
p268
S"<class 'gluon.html.UL'>"
p269
sS'IS_UPPER'
p270
S"<class 'gluon.validators.IS_UPPER'>"
p271
sS'xmlescape'
p272
S'<function xmlescape>'
p273
sS'IS_TIME'
p274
S"<class 'gluon.validators.IS_TIME'>"
p275
sS'OPTION'
p276
S"<class 'gluon.html.OPTION'>"
p277
sS'TITLE'
p278
S"<class 'gluon.html.TITLE'>"
p279
sS'CRYPT'
p280
S"<class 'gluon.validators.CRYPT'>"
p281
sS'IS_EMPTY_OR'
p282
S"<class 'gluon.validators.IS_EMPTY_OR'>"
p283
sS'MARKMIN'
p284
S"<class 'gluon.html.MARKMIN'>"
p285
sS'__name__'
p286
S"'__restricted__'"
p287
sS'STRONG'
p288
S"<class 'gluon.html.STRONG'>"
p289
sS'COL'
p290
S"<class 'gluon.html.COL'>"
p291
sS'__builtins__'
p292
S"{'ArithmeticError': <type 'exceptions.ArithmeticError'>, 'AssertionError': <type 'exceptions.AssertionError'>, 'AttributeError': <type 'exceptions.AttributeError'>, 'BaseException': <type 'exceptions.BaseException'>, 'BufferError': <type 'exceptions.BufferError'>, 'BytesWarning': <type 'exceptions.BytesWarning'>, 'DeprecationWarning': <type 'exceptions.DeprecationWarning'>, 'EOFError': <type 'exceptions.EOFError'>, 'Ellipsis': Ellipsis, 'EnvironmentError': <type 'exceptions.EnvironmentError'>, ...}"
p293
sS'SCRIPT'
p294
S"<class 'gluon.html.SCRIPT'>"
p295
sS'totalfichas'
p296
S'1620L'
p297
sS'TABLE'
p298
S"<class 'gluon.html.TABLE'>"
p299
sS'IS_IPV4'
p300
S"<class 'gluon.validators.IS_IPV4'>"
p301
sS'IS_LENGTH'
p302
S"<class 'gluon.validators.IS_LENGTH'>"
p303
sS'IS_IPV6'
p304
S"<class 'gluon.validators.IS_IPV6'>"
p305
sS'XML'
p306
S"<class 'gluon.html.XML'>"
p307
sS'ANY_OF'
p308
S"<class 'gluon.validators.ANY_OF'>"
p309
sS'B'
S"<class 'gluon.html.B'>"
p310
sS'IMG'
p311
S"<class 'gluon.html.IMG'>"
p312
sS'SQLTABLE'
p313
S"<class 'gluon.sqlhtml.SQLTABLE'>"
p314
sS'IS_MATCH'
p315
S"<class 'gluon.validators.IS_MATCH'>"
p316
sS'IS_ALPHANUMERIC'
p317
S"<class 'gluon.validators.IS_ALPHANUMERIC'>"
p318
sS'msaida'
p319
S'0.0'
p320
sS'SPAN'
p321
S"<class 'gluon.html.SPAN'>"
p322
sS'IS_JSON'
p323
S"<class 'gluon.validators.IS_JSON'>"
p324
sS'IS_IPADDRESS'
p325
S"<class 'gluon.validators.IS_IPADDRESS'>"
p326
sS'IS_SLUG'
p327
S"<class 'gluon.validators.IS_SLUG'>"
p328
sS'BEAUTIFY'
p329
S"<class 'gluon.html.BEAUTIFY'>"
p330
sS'META'
p331
S"<class 'gluon.html.META'>"
p332
sS'dinheiro_viagem'
p333
S'99770.0'
p334
sS'subvenda'
p335
S'<Rows (3)>'
p336
sS'AppConfig'
p337
S'<function AppConfig>'
p338
sS'IS_DATE'
p339
S"<class 'gluon.validators.IS_DATE'>"
p340
sS'IS_EMAIL'
p341
S"<class 'gluon.validators.IS_EMAIL'>"
p342
sS'IS_NOT_EMPTY'
p343
S"<class 'gluon.validators.IS_NOT_EMPTY'>"
p344
sS'xrange'
p345
S"<type 'xrange'>"
p346
sS'TBODY'
p347
S"<class 'gluon.html.TBODY'>"
p348
sS'CAT'
p349
S"<class 'gluon.html.CAT'>"
p350
sS'Field'
p351
S"<class 'pydal.objects.Field'>"
p352
sS'IS_LIST_OF_EMAILS'
p353
S"<class 'gluon.validators.IS_LIST_OF_EMAILS'>"
p354
sS'diferencav'
p355
S'22966.790000000008'
p356
sg58
S"<Storage {'_vars': None, 'function': 'relatorio'...web2py/applications/aluminum/', 'method': 'GET'}>"
p357
sS'DIV'
p358
S"<class 'gluon.html.DIV'>"
p359
sS'LEGEND'
p360
S"<class 'gluon.html.LEGEND'>"
p361
sS'totalvenda'
p362
S'248870.0'
p363
sS'comissaop'
p364
S'21108.3'
p365
sS'comissaov'
p366
S'5356.2'
p367
sS'to_native'
p368
S'<function to_native>'
p369
sS'COLGROUP'
p370
S"<class 'gluon.html.COLGROUP'>"
p371
sS'DAL'
p372
S"<class 'pydal.base.DAL'>"
p373
sS'ASSIGNJS'
p374
S'<function ASSIGNJS>'
p375
sS'TR'
p376
S"<class 'gluon.html.TR'>"
p377
sS'LI'
p378
S"<class 'gluon.html.LI'>"
p379
sS'saldo_chefe'
p380
S'14844.5'
p381
sS'TH'
p382
S"<class 'gluon.html.TH'>"
p383
sS'TD'
p384
S"<class 'gluon.html.TD'>"
p385
sS'IS_URL'
p386
S"<class 'gluon.validators.IS_URL'>"
p387
sS'A'
S"<class 'gluon.html.A'>"
p388
sS'estoque'
p389
S'463500.0'
p390
sS'HEAD'
p391
S"<class 'gluon.html.HEAD'>"
p392
sS'IS_DATETIME_IN_RANGE'
p393
S"<class 'gluon.validators.IS_DATETIME_IN_RANGE'>"
p394
sS'FORM'
p395
S"<class 'gluon.html.FORM'>"
p396
sS'I'
S"<class 'gluon.html.I'>"
p397
sS'Request'
p398
S'<class urllib2.Request>'
p399
sS'IS_NOT_IN_DB'
p400
S"<class 'gluon.validators.IS_NOT_IN_DB'>"
p401
sS'saldo'
p402
S'0'
sg123
S"<Storage {'body': <cStringIO.StringO object at 0...0x7fc5d1e4e398>, 'view': 'chefe/relatorio.html'}>"
p403
sS'THEAD'
p404
S"<class 'gluon.html.THEAD'>"
p405
sS'a'
S"<Row {'total_saldo_cobrador': -5422.48, 'nome_co...a': datetime.date(2021, 5, 27), 'projeto': 132L}>"
p406
sS'IS_NULL_OR'
p407
S"<class 'gluon.validators.IS_EMPTY_OR'>"
p408
sS'IS_FLOAT_IN_RANGE'
p409
S"<class 'gluon.validators.IS_FLOAT_IN_RANGE'>"
p410
sS'IS_EXPR'
p411
S"<class 'gluon.validators.IS_EXPR'>"
p412
sS'T'
S'<gluon.languages.translator object>'
p413
sS'IS_IN_SET'
p414
S"<class 'gluon.validators.IS_IN_SET'>"
p415
sS'IS_UPLOAD_FILENAME'
p416
S"<class 'gluon.validators.IS_UPLOAD_FILENAME'>"
p417
sS'dinh_apresentado'
p418
S'76803.20999999999'
p419
sS'TT'
p420
S"<class 'gluon.html.TT'>"
p421
sS'IS_DECIMAL_IN_RANGE'
p422
S"<class 'gluon.validators.IS_DECIMAL_IN_RANGE'>"
p423
sssS'traceback'
p424
S'Traceback (most recent call last):\n  File "/home/rogoberto/web2py/gluon/restricted.py", line 219, in restricted\n    exec(ccode, environment)\n  File "/home/rogoberto/web2py/applications/aluminum/views/chefe/relatorio.html", line 301, in <module>\nNameError: name \'percentual_despesa_venda\' is not defined\n'
p425
s.