(dp1
S'output'
p2
S"<type 'exceptions.NameError'> name 'empresa' is not defined"
p3
sS'layer'
p4
S'/home/rogoberto/web2py/applications/aluminum/views/acs_relatorio/mapeamanto_administrativo.html'
p5
sS'code'
p6
S'response.write(\'<!DOCTYPE html>\\n<!--[if (gt IE 9)|!(IE)]><!--> <html class="no-js" lang="\', escape=False)\nresponse.write(T.accepted_language or \'en\')\nresponse.write(\'"> <!--<![endif]-->\\n  <head>\\n    <meta charset="utf-8">\\n    <!-- www.phpied.com/conditional-comments-block-downloads/ -->\\n    <!-- Always force latest IE rendering engine\\n         (even in intranet) & Chrome Frame\\n         Remove this if you use the .htaccess -->\\n    <meta http-equiv="X-UA-Compatible" content="IE=edge\', escape=False)\nresponse.write(not request.is_local and \',chrome=1\' or \'\')\nresponse.write(\'">\\n    <!--  Mobile Viewport Fix\\n          j.mp/mobileviewport & davidbcalhoun.com/2010/viewport-metatag\\n          device-width: Occupy full width of the screen in its current orientation\\n          initial-scale = 1.0 retains dimensions instead of zooming out if page height > device height\\n          user-scalable = yes allows the user to zoom in -->\\n    <meta name="viewport" content="width=device-width, initial-scale=1.0">\\n       <title>Aluminum System</title>\\n      <meta name="author" content="Arsenal System">\\n<!--       <meta name="description" content="cr\\xc3\\xa9diario de aluminio, controle seus custos, despesas vendas e cobran\\xc3\\xa7as"> -->\\n<!--       <meta name="keywords" content="Controle Cheque, pagamentos, Sistema"> -->\\n<!--       <meta name="author" content="Arsenal System"> -->\\n      <meta name="description" content="Gerenciamento controle de crediario">\\n    <!-- http://dev.w3.org/html5/markup/meta.name.html -->\\n    <meta name="application-name" content="sistema credi\\xc3\\xa1rio panela">\\n    <!-- Speaking of Google, don\\\'t forget to set your site up:\\n         http://google.com/webmasters -->\\n    <meta name="google-site-verification" content="peneleiro Juazeiro, panela credi\\xc3\\xa1rio, sistema panela">\\n    <!-- include stylesheets -->\\n    <link rel="stylesheet" href="https://cdnjs.cloudflare.com/ajax/libs/font-awesome/4.7.0/css/font-awesome.min.css"/>\\n    <link rel="stylesheet" href="\', escape=False)\nresponse.write(URL(\'static\',\'css/bootstrap.min.css\'))\nresponse.write(\'"/>\\n    <link rel="stylesheet" href="\', escape=False)\nresponse.write(URL(\'static\',\'css/web2py-bootstrap4.css\'))\nresponse.write(\'"/>\\n    <link rel="shortcut icon" href="\', escape=False)\nresponse.write(URL(\'static\',\'images/ico.ico\'))\nresponse.write(\'" type="image/x-icon">\\n    <link rel="apple-touch-icon" href="\', escape=False)\nresponse.write(URL(\'static\',\'images/ico.png\'))\nresponse.write(\'">\\n    <!-- All JavaScript at the bottom, except for Modernizr which enables\\n         HTML5 elements & feature detects -->\\n    <script src="\', escape=False)\nresponse.write(URL(\'static\',\'js/modernizr-2.8.3.min.js\'))\nresponse.write(\'"></script>\\n    <!-- Favicons -->\\n    \', escape=False)\nresponse.write(\'<script type="text/javascript"><!--\\n    // These variables are used by the web2py_ajax_init function in web2py_ajax.js (which is loaded below).\\n    \', escape=False)\nresponse.write(ASSIGNJS(\nw2p_ajax_confirm_message = T(\'Are you sure you want to delete this object?\'),\nw2p_ajax_disable_with_message = T(\'Working...\'),\nw2p_ajax_date_format = T(\'%Y-%m-%d\'),\nw2p_ajax_datetime_format = T(\'%Y-%m-%d %H:%M:%S\'),\najax_error_500 = T.M(\'An error occured, please [[reload %s]] the page\') % URL(args=request.args, vars=request.get_vars)\n))\nresponse.write(\'\\n    //--></script>\\n\', escape=False)\nresponse.files.insert(0,URL(\'static\',\'js/jquery.js\'))\nresponse.files.insert(1,URL(\'static\',\'css/calendar.css\'))\nresponse.files.insert(2,URL(\'static\',\'js/calendar.js\'))\nresponse.files.insert(3,URL(\'static\',\'js/web2py.js\'))\nresponse.include_meta()\nresponse.include_files()\nresponse.write(\'\\n\', escape=False)\nresponse.write(\' <!-- this includes jquery.js, calendar.js/.css and web2py.js -->\\n      \', escape=False)\nif auth.user:\n    response.write(\'\\n    \', escape=False)\n    if auth.user.first_name=="Rogoberto":\n        response.write(\'\\n   \\n    \', escape=False)\n    elif auth.user.first_name=="Meme":\n        response.write(\'\\n    <link rel="stylesheet" href="https://bootswatch.com/4/materia/bootstrap.css"> \\n    \', escape=False)\n        pass\n    response.write(\'\\n    \', escape=False)\n    pass\nresponse.write(\'\\n    \', escape=False)\nresponse.write(\'\\n  \\n  </head>\\n  <body>\\n      \\n        <style  type="text/css">\\n    @media print{\\n        .btn{\\n             display: none;\\n        }\\n        #noprint { display:none; } \\n      a:link{font:15px "verdana"; color:#8B4513; text-decoration:none;}\\n\\na:hover{font:20px "verdana"; color:black; text-decoration:underline;}\\n    }\\n      </style>\\n    <div class="w2p_flash alert alert-dismissable">\', escape=False)\nresponse.write(response.flash or \'\')\nresponse.write(\'</div>\\n    <!-- Navbar ======================================= -->\\n    <nav class="navbar navbar-light navbar-expand-md bg-faded justify-content-center">\\n        <a class="navbar-brand" href="https://rogoberto.pythonanywhere.com/aluminum/#acesso">Aluminum</a>\\n       <button class="navbar-toggler" type="button" data-toggle="collapse" data-target="#navbarNavDropdown" aria-controls="navbarNavDropdown" aria-expanded="false" aria-label="Toggle navigation">\\n         <span class="navbar-toggler-icon"></span>\\n       </button>\\n       <div class="navbar-collapse collapse w-100" id="navbarNavDropdown">\\n         <ul class="navbar-nav w-100 justify-content-center">\\n          \', escape=False)\nfor _item in response.menu or []:\n    response.write(\'\\n          \', escape=False)\n    if (not len(_item)>4) or not _item[3]:\n        response.write(\'\\n          <li class="nav-item \', escape=False)\n        if _item[1]:\n            response.write(\'active\', escape=False)\n            pass\n        response.write(\'">\\n            <a class="nav-link" href="\', escape=False)\n        response.write(_item[2])\n        response.write(\'">\', escape=False)\n        response.write(_item[0])\n        response.write(\'</a>\\n          </li>\\n          \', escape=False)\n    else:\n        response.write(\'\\n          <li class="nav-item dropdown">\\n            <a class="nav-link dropdown-toggle" href="\', escape=False)\n        response.write(_item[2])\n        response.write(\'" data-toggle="dropdown" aria-haspopup="true" aria-expanded="false">\', escape=False)\n        response.write(_item[0])\n        response.write(\'</a>\\n            <div class="dropdown-menu">\\n              \', escape=False)\n        for _subitem in _item[3]:\n            response.write(\'\\n              <a class="dropdown-item" href="\', escape=False)\n            response.write(_subitem[2])\n            response.write(\'">\', escape=False)\n            response.write(_subitem[0])\n            response.write(\'</a>\\n              \', escape=False)\n            pass\n        response.write(\'\\n            </div>\\n          </li>\\n          \', escape=False)\n        pass\n    response.write(\'\\n          \', escape=False)\n    pass\nresponse.write(\'\\n        </ul>\\n\\n        \', escape=False)\nif \'auth\' in globals():\n    response.write(\'\\n        <ul class="nav navbar-nav ml-auto w-100 justify-content-end">\\n          <li class="nav-item dropdown">\\n            <a class="nav-link dropdown-toggle" href="#" data-toggle="dropdown" aria-haspopup="true" aria-expanded="false">\\n              \', escape=False)\n    if auth.user:\n        response.write(auth.user.first_name)\n    else:\n        response.write(\'LOGIN\', escape=False)\n        pass\n    response.write(\'\\n            </a>\\n            <div class="dropdown-menu dropdown-menu-right">\\n              \', escape=False)\n    if auth.user:\n        response.write(\'\\n              <a class="dropdown-item" href="\', escape=False)\n        response.write(URL(\'default\',\'user/profile\'))\n        response.write(\'">\', escape=False)\n        response.write(T(\'Profile\'))\n        response.write(\'</a>\\n              \', escape=False)\n        if \'change_password\' not in auth.settings.actions_disabled:\n            response.write(\'\\n              <a class="dropdown-item" href="\', escape=False)\n            response.write(URL(\'default\',\'user/change_password\'))\n            response.write(\'">\', escape=False)\n            response.write(T(\'Change Password\'))\n            response.write(\'</a>\\n              \', escape=False)\n            pass\n        response.write(\'\\n              <a class="dropdown-item" href="\', escape=False)\n        response.write(URL(\'default\',\'user/logout\'))\n        response.write(\'">\', escape=False)\n        response.write(T(\'Logout\'))\n        response.write(\'</a>\\n              \', escape=False)\n    else:\n        response.write(\'\\n              <a class="dropdown-item" href="\', escape=False)\n        response.write(URL(\'default\',\'user/login\'))\n        response.write(\'">\', escape=False)\n        response.write(T(\'Login\'))\n        response.write(\'</a>\\n              \', escape=False)\n        if \'register\' not in auth.settings.actions_disabled:\n            response.write(\'\\n              <a class="dropdown-item" href="\', escape=False)\n            response.write(URL(\'default\',\'user/register\'))\n            response.write(\'">\', escape=False)\n            response.write(T(\'Sign up\'))\n            response.write(\'</a>\\n              \', escape=False)\n            pass\n        response.write(\'\\n              \', escape=False)\n        if \'retrieve_password\' not in auth.settings.actions_disabled:\n            response.write(\'\\n              <a class="dropdown-item" href="\', escape=False)\n            response.write(URL(\'default\',\'user/retrieve_password\'))\n            response.write(\'">\', escape=False)\n            response.write(T(\'Lost Password\'))\n            response.write(\'</a>\\n              \', escape=False)\n            pass\n        response.write(\'\\n              \', escape=False)\n        pass\n    response.write(\'\\n            </div>\\n          </li>\\n        </ul>\\n        \', escape=False)\n    pass\nresponse.write(\'\\n      </div>\\n    </nav>\\n\\n    <!-- Masthead ===================================== -->\\n    \', escape=False)\nresponse.write(\'\\n<header class="header container-fluid d-none d-print-block">\\n     <div class="row">\\n        <div class="col-md-12">\\n          <div class="copyright pull-left">Aluminum System</div>\\n          <div id="poweredBy" class="pull-right">\\n            Gest\\xc3\\xa3o de vendas e cobran\\xc3\\xa7as artefatos de aluminio\\n            \\n          </div>\\n        </div>\\n      </div>\\n</header>\\n    \', escape=False)\nresponse.write(\'\\n    <!-- Main ========================================= -->\\n    <!-- Begin page content -->\\n    <div class="container-fluid main-container py-5">\\n      \', escape=False)\nresponse.write(\'\\n<div class="py-3 text-center">\\n    <div class="container">\\n        <div class="row">\\n            <div class="col-md-12">\\n                <h1 class="mb-3">Mapeamento de Trabalho</h1>\\n            </div>\\n        </div>\\n        <div class="row">\\n            <div class="col-md-6">\\n                <div class="row">\\n                    <div class="col-md-4 col-6">\\n                        <a class="btn btn-primary btn-block my-1" href="\', escape=False)\nresponse.write(URL(\'acs_principal\',\'index\', args=empresa.id*12))\nresponse.write(\'">\\n                          <i class="fa fa-arrow-left fa-fw"></i>Voltar</a>\\n                    </div>\\n                    <div class="col-md-4 col-6"></div>\\n                    <div class="col-md-4 col-12"></div>\\n                </div>\\n            </div>\\n            <div class="col-md-6 col-12"></div>\\n        </div>\\n        <div class="row">\\n            <div class="col-md-6 border p-1 my-2">\\n                <h4 class="">Cadastro Geral</h4>\\n                <ul class="list-group">\\n                    <li class="border-0 list-group-item d-flex justify-content-between align-items-center">\\n                        Cheques de Compras<br />\\n                        <i class="fa fa-sign-out text-muted fa-lg"></i>\\n                    </li>\\n                    <li class="border-0 list-group-item d-flex justify-content-between align-items-center">\\n                        Pagamentos Futuros<br />\\n                        <i class="fa fa-sign-out text-muted fa-lg"></i>\\n                    </li>\\n                    <li class="border-0 list-group-item d-flex justify-content-between align-items-center">\\n                        Retiradas e Vales Futuros<br />\\n                        <i class="fa fa-sign-out text-muted fa-lg"></i>\\n                    </li>\\n                    <li class="border-0 list-group-item d-flex justify-content-between align-items-center">\\n                        Despesas Locais da Venda&nbsp;<br />\\n                        <i class="fa fa-sign-out text-muted fa-lg"></i>\\n                    </li>\\n                    <li class="border-0 list-group-item d-flex justify-content-between align-items-center">\\n                        Despesas Locais da Cobran\\xc3\\xa7a&nbsp;&nbsp;<br />\\n                        <i class="fa fa-sign-out text-muted fa-lg"></i>\\n                    </li>\\n                    <li class="border-0 list-group-item d-flex justify-content-between align-items-center">\\n                        Despesas Locais Geral&nbsp;&nbsp;<br />\\n                        <i class="fa fa-sign-out text-muted fa-lg"></i>\\n                    </li>\\n                    <li class="border-0 list-group-item d-flex justify-content-between align-items-center">\\n                        Retiradas e Vales Futuros<br />\\n                        <i class="fa fa-sign-out text-muted fa-lg"></i>\\n                    </li>\\n                    <li class="border-0 list-group-item d-flex justify-content-between align-items-center">\\n                        Despesas Locais da Venda&nbsp;<br />\\n                        <i class="fa fa-sign-out text-muted fa-lg"></i>\\n                    </li>\\n                    <li class="border-0 list-group-item d-flex justify-content-between align-items-center">\\n                        Conferir Dep\\xc3\\xb3sistos das Cobran\\xc3\\xa7as<br />\\n                        <i class="fa fa-sign-out text-muted fa-lg"></i>\\n                    </li>\\n                </ul>\\n            </div>\\n            <div class="col-md-6 border p-1 my-2">\\n                <h4 class="">Revis\\xc3\\xa3o Geral</h4>\\n                <ul class="list-group">\\n                    <li class="border-0 list-group-item d-flex justify-content-between align-items-center">\\n                        Baixa em Cheques pagos<br />\\n                        <i class="fa fa-sign-out text-muted fa-lg"></i>\\n                    </li>\\n                    <li class="border-0 list-group-item d-flex justify-content-between align-items-center">\\n                        Baixa em Pagamentos pagos<br />\\n                        <i class="fa fa-sign-out text-muted fa-lg"></i>\\n                    </li>\\n                    <li class="border-0 list-group-item d-flex justify-content-between align-items-center">\\n                        Baixa em Vales Retirados<br />\\n                        <i class="fa fa-sign-out text-muted fa-lg"></i>\\n                    </li>\\n                    <li class="border-0 list-group-item d-flex justify-content-between align-items-center">\\n                        Verificar Despesas Recorrentes<br />\\n                        <i class="fa fa-sign-out text-muted fa-lg"></i>\\n                    </li>\\n                    <li class="border-0 list-group-item d-flex justify-content-between align-items-center">\\n                        Dep\\xc3\\xb3sitos das Cobran\\xc3\\xa7as<br />\\n                        <i class="fa fa-sign-out text-muted fa-lg"></i>\\n                    </li>\\n                    <li class="border-0 list-group-item d-flex justify-content-between align-items-center">\\n                        Recebimentos das Cobran\\xc3\\xa7as<br />\\n                        <i class="fa fa-sign-out text-muted fa-lg"></i>\\n                    </li>\\n                    <li class="border-0 list-group-item d-flex justify-content-between align-items-center">\\n                        Despesas das Cobran\\xc3\\xa7as Diariamente<br />\\n                        <i class="fa fa-sign-out text-muted fa-lg"></i>\\n                    </li>\\n                    <li class="border-0 list-group-item d-flex justify-content-between align-items-center">\\n                        Despesas das Vendas Diariamente&nbsp;<br />\\n                        <i class="fa fa-sign-out text-muted fa-lg"></i>\\n                    </li>\\n                    <li class="border-0 list-group-item d-flex justify-content-between align-items-center">\\n                        Recolher mercadoria de Devolu\\xc3\\xa7\\xc3\\xa3o<br />\\n                        <i class="fa fa-sign-out text-muted fa-lg"></i>\\n                    </li>\\n                </ul>\\n            </div>\\n        </div>\\n        <div class="row">\\n            <div class="col-md-6 border p-1 my-2">\\n                <h4 class="">Saida da Equipe de Vendas</h4>\\n                <ul class="list-group">\\n                    <li class="border-0 list-group-item d-flex justify-content-between align-items-center">\\n                        Fechar Venda Finalizada<br />\\n                        <i class="fa fa-sign-out text-muted fa-lg"></i>\\n                    </li>\\n                    <li class="border-0 list-group-item d-flex justify-content-between align-items-center">\\n                        Abrir Nova Venda Vincular Login<br />\\n                        <i class="fa fa-sign-out text-muted fa-lg"></i>\\n                    </li>\\n                    <li class="border-0 list-group-item d-flex justify-content-between align-items-center">\\n                        Verificar Comiss\\xc3\\xa3o do Chefe, Vales e Adiantamento<br />\\n                        <i class="fa fa-sign-out text-muted fa-lg"></i>\\n                    </li>\\n                    <li class="border-0 list-group-item d-flex justify-content-between align-items-center">\\n                        Cadastrar Retorno da Mercadoiria na Venda Atual<br />\\n                        <i class="fa fa-sign-out text-muted fa-lg"></i>\\n                    </li>\\n                    <li class="border-0 list-group-item d-flex justify-content-between align-items-center">\\n                        Cadastrar Compra da Mercadoria na venda Atual<br />\\n                        <i class="fa fa-sign-out text-muted fa-lg"></i>\\n                    </li>\\n                    <li class="border-0 list-group-item d-flex justify-content-between align-items-center">\\n                        Quant, Custos e Pre\\xc3\\xa7os da Mercadoria<br />\\n                        <i class="fa fa-sign-out text-muted fa-lg"></i>\\n                    </li>\\n                    <li class="border-0 list-group-item d-flex justify-content-between align-items-center">\\n                        Cadastrar Pastas da Despesa&nbsp; da Venda<br />\\n                        <i class="fa fa-sign-out text-muted fa-lg"></i>\\n                    </li>\\n                    <li class="border-0 list-group-item d-flex justify-content-between align-items-center">\\n                        Cadastrar Funcionarios e Vales<br />\\n                        <i class="fa fa-sign-out text-muted fa-lg"></i>\\n                    </li>\\n                    <li class="border-0 list-group-item d-flex justify-content-between align-items-center">\\n                        Cadastrar Equipe de Vendas e Vales<br />\\n                        <i class="fa fa-sign-out text-muted fa-lg"></i>\\n                    </li>\\n                    <li class="border-0 list-group-item d-flex justify-content-between align-items-center">\\n                        Cadastrar Transportes e Quilometragem<br />\\n                        <i class="fa fa-sign-out text-muted fa-lg"></i>\\n                    </li>\\n                    <li class="border-0 list-group-item d-flex justify-content-between align-items-center">\\n                        Fechar e Abrir Parti\\xc3\\xa7\\xc3\\xb5es quando necessario<br />\\n                        <i class="fa fa-sign-out text-muted fa-lg"></i>\\n                    </li>\\n                </ul>\\n            </div>\\n            <div class="col-md-6 border p-1 my-2">\\n                <h4 class="">Chegada da Equipe de Vendas</h4>\\n                <ul class="list-group">\\n                    <li class="border-0 list-group-item d-flex justify-content-between align-items-center">\\n                        Separar Fichas por Vendedores, Conferir<br />\\n                        <i class="fa fa-sign-out text-muted fa-lg"></i>\\n                    </li>\\n                    <li class="border-0 list-group-item d-flex justify-content-between align-items-center">\\n                        Entradas, vales caderno, venda e quantidade<br />\\n                        <i class="fa fa-sign-out text-muted fa-lg"></i>\\n                    </li>\\n                    <li class="border-0 list-group-item d-flex justify-content-between align-items-center">\\n                        Separar e Somar Despesa da Venda<br />\\n                        <i class="fa fa-sign-out text-muted fa-lg"></i>\\n                    </li>\\n                    <li class="border-0 list-group-item d-flex justify-content-between align-items-center">\\n                        Ajustar Venda \\xc3\\xa0 Prazo<br />\\n                        <i class="fa fa-sign-out text-muted fa-lg"></i>\\n                    </li>\\n                    <li class="border-0 list-group-item d-flex justify-content-between align-items-center">\\n                        Conferir Retorno da Mercadoria&nbsp;<br />\\n                        <i class="fa fa-sign-out text-muted fa-lg"></i>\\n                    </li>\\n                    <li class="border-0 list-group-item d-flex justify-content-between align-items-center">\\n                        Verificar Gratifica\\xc3\\xa7\\xc3\\xb5es de mercadoria<br />\\n                        <i class="fa fa-sign-out text-muted fa-lg"></i>\\n                    </li>\\n                    <li class="border-0 list-group-item d-flex justify-content-between align-items-center">\\n                        Verificar Pe\\xc3\\xa7as Estragadas<br />\\n                        <i class="fa fa-sign-out text-muted fa-lg"></i>\\n                    </li>\\n                    <li class="border-0 list-group-item d-flex justify-content-between align-items-center">\\n                        Presta\\xc3\\xa7\\xc3\\xa3o da Equipe<br />\\n                        <i class="fa fa-sign-out text-muted fa-lg"></i>\\n                    </li>\\n                    <li class="border-0 list-group-item d-flex justify-content-between align-items-center">\\n                        Presta\\xc3\\xa7\\xc3\\xa3o da Mercadoria&nbsp;<br />\\n                        <i class="fa fa-sign-out text-muted fa-lg"></i>\\n                    </li>\\n                    <li class="border-0 list-group-item d-flex justify-content-between align-items-center">\\n                        Presta\\xc3\\xa7\\xc3\\xa3o do Dinheiro<br />\\n                        <i class="fa fa-sign-out text-muted fa-lg"></i>\\n                    </li>\\n                    <li class="border-0 list-group-item d-flex justify-content-between align-items-center">\\n                        Ajustar datas de saida e chegada e de cobran\\xc3\\xa7a<br />\\n                        <i class="fa fa-sign-out text-muted fa-lg"></i>\\n                    </li>\\n                </ul>\\n            </div>\\n        </div>\\n      <div style="page-break-after: always"></div>\\n        <div class="row">\\n            <div class="col-md-6 border p-1 my-2">\\n                <h4 class="">Saida da Cobran\\xc3\\xa7a</h4>\\n                <ul class="list-group">\\n                    <li class="border-0 list-group-item d-flex justify-content-between align-items-center">\\n                        Alocar logins dos cobradores<br />\\n                        <i class="fa fa-sign-out text-muted fa-lg"></i>\\n                    </li>\\n                    <li class="border-0 list-group-item d-flex justify-content-between align-items-center">\\n                        Cadastrar Cobradores e Ajudantes<br />\\n                        <i class="fa fa-sign-out text-muted fa-lg"></i>\\n                    </li>\\n                    <li class="border-0 list-group-item d-flex justify-content-between align-items-center">\\n                        Verificar as Comiss\\xc3\\xb5es dos cobradores<br />\\n                        <i class="fa fa-sign-out text-muted fa-lg"></i>\\n                    </li>\\n                    <li class="border-0 list-group-item d-flex justify-content-between align-items-center">\\n                        Inserir e Conferir os Vales da Cobran\\xc3\\xa7a<br />\\n                        <i class="fa fa-sign-out text-muted fa-lg"></i>\\n                    </li>\\n                    <li class="border-0 list-group-item d-flex justify-content-between align-items-center">\\n                        Cadastrar Pastas de Despesa da Cobran\\xc3\\xa7a<br />\\n                        <i class="fa fa-sign-out text-muted fa-lg"></i>\\n                    </li>\\n                    <li class="border-0 list-group-item d-flex justify-content-between align-items-center">\\n                        Reconferir Quant de Fichas com Cobrador<br />\\n                        <i class="fa fa-sign-out text-muted fa-lg"></i>\\n                    </li>\\n                    <li class="border-0 list-group-item d-flex justify-content-between align-items-center">\\n                        Cadastrar Despesas Locais da Cobran\\xc3\\xa7a<br />\\n                        <i class="fa fa-sign-out text-muted fa-lg"></i>\\n                    </li>\\n                    <li class="border-0 list-group-item d-flex justify-content-between align-items-center">\\n                        &nbsp;Diariamente Despesas da Cobran\\xc3\\xa7a<br />\\n                        <i class="fa fa-sign-out text-muted fa-lg"></i>\\n                    </li>\\n                    <li class="border-0 list-group-item d-flex justify-content-between align-items-center">\\n                        &nbsp;Diariamente Recebimentos da Cobran\\xc3\\xa7a&nbsp;<br />\\n                        <i class="fa fa-sign-out text-muted fa-lg"></i>\\n                    </li>\\n                    <li class="border-0 list-group-item d-flex justify-content-between align-items-center">\\n                        &nbsp;Diariamente Depositos da Cobran\\xc3\\xa7a&nbsp;<br />\\n                        <i class="fa fa-sign-out text-muted fa-lg"></i>\\n                    </li>\\n                </ul>\\n            </div>\\n            <div class="col-md-6 border p-1 my-2">\\n                <h4 class="">Chegada da Cobran\\xc3\\xa7a</h4>\\n                <ul class="list-group">\\n                    <li class="border-0 list-group-item d-flex justify-content-between align-items-center">\\n                        Contar Fichas Juntamente com o Cobrador<br />\\n                        <i class="fa fa-sign-out text-muted fa-lg"></i>\\n                    </li>\\n                    <li class="border-0 list-group-item d-flex justify-content-between align-items-center">\\n                        Finalizar Cobran\\xc3\\xa7a (Bloquear Cobrador)<br />\\n                        <i class="fa fa-sign-out text-muted fa-lg"></i>\\n                    </li>\\n                    <li class="border-0 list-group-item d-flex justify-content-between align-items-center">\\n                        Separar Fichas por Vendedor e por Tipo<br />\\n                        <i class="fa fa-sign-out text-muted fa-lg"></i>\\n                    </li>\\n                    <li class="border-0 list-group-item d-flex justify-content-between align-items-center">\\n                        Alocar Valores no Sistema<br />\\n                        <i class="fa fa-sign-out text-muted fa-lg"></i>\\n                    </li>\\n                    <li class="border-0 list-group-item d-flex justify-content-between align-items-center">\\n                        Retirar as Entradas das Fichas Quitadas<br />\\n                        <i class="fa fa-sign-out text-muted fa-lg"></i>\\n                    </li>\\n                    <li class="border-0 list-group-item d-flex justify-content-between align-items-center">\\n                        Separar e Conferir Despesas<br />\\n                        <i class="fa fa-sign-out text-muted fa-lg"></i>\\n                    </li>\\n                    <li class="border-0 list-group-item d-flex justify-content-between align-items-center">\\n                        Separar e Conferir Depositos<br />\\n                        <i class="fa fa-sign-out text-muted fa-lg"></i>\\n                    </li>\\n                    <li class="border-0 list-group-item d-flex justify-content-between align-items-center">\\n                        Registrar as Devolu\\xc3\\xa7\\xc3\\xb5es (Romaneio)<br />\\n                        <i class="fa fa-sign-out text-muted fa-lg"></i>\\n                    </li>\\n                    <li class="border-0 list-group-item d-flex justify-content-between align-items-center">\\n                        Contabilizar nas Fichas Devolu\\xc3\\xa7\\xc3\\xb5es<br />\\n                        <i class="fa fa-sign-out text-muted fa-lg"></i>\\n                    </li>\\n                    <li class="border-0 list-group-item d-flex justify-content-between align-items-center">\\n                      Ajustar Relatorio de Quita\\xc3\\xa7\\xc3\\xa3o\\n                        <i class="fa fa-sign-out text-muted fa-lg"></i>\\n                  </li>\\n                </ul>\\n            </div>\\n        </div>\\n        <div class="row">\\n            <div class="col-md-6 border p-1 my-2">\\n                <h4 class="">Impress\\xc3\\xb5es da Venda</h4>\\n                <ul class="list-group">\\n                    <li class="border-0 list-group-item d-flex justify-content-between align-items-center">\\n                        Carradas e Mercadoria<br />\\n                        <i class="fa fa-sign-out text-muted fa-lg"></i>\\n                    </li>\\n                    <li class="border-0 list-group-item d-flex justify-content-between align-items-center">\\n                        Adiantamento de Dinheiro e Vales do Chefe<br />\\n                        <i class="fa fa-sign-out text-muted fa-lg"></i>\\n                    </li>\\n                    <li class="border-0 list-group-item d-flex justify-content-between align-items-center">\\n                        Funcionarios e Equipe de Vendas<br />\\n                        <i class="fa fa-sign-out text-muted fa-lg"></i>\\n                    </li>\\n                    <li class="border-0 list-group-item d-flex justify-content-between align-items-center">\\n                        Venda \\xc3\\xa0 Vista<br />\\n                        <i class="fa fa-sign-out text-muted fa-lg"></i>\\n                    </li>\\n                    <li class="border-0 list-group-item d-flex justify-content-between align-items-center">\\n                        Despesa da Venda e Despesa Local<br />\\n                        <i class="fa fa-sign-out text-muted fa-lg"></i>\\n                    </li>\\n                    <li class="border-0 list-group-item d-flex justify-content-between align-items-center">\\n                        Presta\\xc3\\xa7\\xc3\\xa3o de Contas da Venda<br />\\n                        <i class="fa fa-sign-out text-muted fa-lg"></i>\\n                    </li>\\n                    <li class="border-0 list-group-item d-flex justify-content-between align-items-center">\\n                        Rela\\xc3\\xa7\\xc3\\xa3o Individual (Vendadores)<br />\\n                        <i class="fa fa-sign-out text-muted fa-lg"></i>\\n                    </li>\\n                    <li class="border-0 list-group-item d-flex justify-content-between align-items-center">\\n                        Relatorio de Investimentos<br />\\n                        <i class="fa fa-sign-out text-muted fa-lg"></i>\\n                    </li>\\n                    <li class="border-0 list-group-item d-flex justify-content-between align-items-center">\\n                        Lista de Cheques<br />\\n                        <i class="fa fa-sign-out text-muted fa-lg"></i>\\n                    </li>\\n                    <li class="border-0 list-group-item d-flex justify-content-between align-items-center">\\n                        Lista de Transportes<br />\\n                        <i class="fa fa-sign-out text-muted fa-lg"></i>\\n                    </li>\\n                </ul>\\n            </div>\\n            <div class="col-md-6 border p-1 my-2">\\n                <h4 class="">Impress\\xc3\\xb5es da Cobran\\xc3\\xa7a</h4>\\n                <ul class="list-group">\\n                    <li class="border-0 list-group-item d-flex justify-content-between align-items-center">\\n                        Devolu\\xc3\\xa7\\xc3\\xb5es da Cobran\\xc3\\xa7a<br />\\n                        <i class="fa fa-sign-out text-muted fa-lg"></i>\\n                    </li>\\n                    <li class="border-0 list-group-item d-flex justify-content-between align-items-center">\\n                        Aloca\\xc3\\xa7\\xc3\\xa3o de Valores (Vendedores)<br />\\n                        <i class="fa fa-sign-out text-muted fa-lg"></i>\\n                    </li>\\n                    <li class="border-0 list-group-item d-flex justify-content-between align-items-center">\\n                        Relatorio de An\\xc3\\xa1lise<br />\\n                        <i class="fa fa-sign-out text-muted fa-lg"></i>\\n                    </li>\\n                    <li class="border-0 list-group-item d-flex justify-content-between align-items-center">\\n                        Lista Recebimentos<br />\\n                        <i class="fa fa-sign-out text-muted fa-lg"></i>\\n                    </li>\\n                    <li class="border-0 list-group-item d-flex justify-content-between align-items-center">\\n                        Lista Depositos<br />\\n                        <i class="fa fa-sign-out text-muted fa-lg"></i>\\n                    </li>\\n                    <li class="border-0 list-group-item d-flex justify-content-between align-items-center">\\n                        Lista Despesas<br />\\n                        <i class="fa fa-sign-out text-muted fa-lg"></i>\\n                    </li>\\n                    <li class="border-0 list-group-item d-flex justify-content-between align-items-center">\\n                        Lista Vales de Caderno<br />\\n                        <i class="fa fa-sign-out text-muted fa-lg"></i>\\n                    </li>\\n                    <li class="border-0 list-group-item d-flex justify-content-between align-items-center">\\n                        Presta\\xc3\\xa7\\xc3\\xa3o da Cobran\\xc3\\xa7a<br />\\n                        <i class="fa fa-sign-out text-muted fa-lg"></i>\\n                    </li>\\n                    <li class="border-0 list-group-item d-flex justify-content-between align-items-center">\\n                        Rela\\xc3\\xa7\\xc3\\xa3o Individual Vendedores<br />\\n                        <i class="fa fa-sign-out text-muted fa-lg"></i>\\n                    </li>\\n                    <li class="border-0 list-group-item d-flex justify-content-between align-items-center">\\n                        Relatorio de Quita\\xc3\\xa7\\xc3\\xa3o<br />\\n                        <i class="fa fa-sign-out text-muted fa-lg"></i>\\n                    </li>\\n                </ul>\\n            </div>\\n        </div>\\n        <div class="row">\\n            <div class="col-md-6 border p-1 my-2">\\n                <h4 class="">Organiza\\xc3\\xa7\\xc3\\xa3o Extra</h4>\\n                <ul class="list-group">\\n                    <li class="border-0 list-group-item d-flex justify-content-between align-items-center">\\n                        Separar Fichas de Repasse<br />\\n                        <i class="fa fa-sign-out text-muted fa-lg"></i>\\n                    </li>\\n                    <li class="border-0 list-group-item d-flex justify-content-between align-items-center">\\n                        Cadastro de Vendedores, Chefes e Cobradores<br />\\n                        <i class="fa fa-sign-out text-muted fa-lg"></i>\\n                    </li>\\n                    <li class="border-0 list-group-item d-flex justify-content-between align-items-center">\\n                        Recolhimentos de Devolu\\xc3\\xa7\\xc3\\xb5es<br />\\n                        <i class="fa fa-sign-out text-muted fa-lg"></i>\\n                    </li>\\n                    <li class="border-0 list-group-item d-flex justify-content-between align-items-center" >\\n                      Cadastro de Despesas Desvinculadas\\n                        <i class="fa fa-sign-out text-muted fa-lg"></i>\\n                  </li>\\n                </ul>\\n            </div>\\n            <div class="col-md-6 border p-1 my-2">\\n                <h4 class="">Impress\\xc3\\xb5es da Cobran\\xc3\\xa7a</h4>\\n                <ul class="list-group">\\n                    <li class="border-0 list-group-item d-flex justify-content-between align-items-center">\\n                        Verificar Relatorio Investimento<br />\\n                        <i class="fa fa-sign-out text-muted fa-lg"></i>\\n                    </li>\\n                    <li class="border-0 list-group-item d-flex justify-content-between align-items-center">\\n                        Mapear Despesas Recorrentes<br />\\n                        <i class="fa fa-sign-out text-muted fa-lg"></i>\\n                    </li>\\n                    <li class="border-0 list-group-item d-flex justify-content-between align-items-center">\\n                        Classificar Vendedores Bons ou N\\xc3\\xa3o<br />\\n                        <i class="fa fa-sign-out text-muted fa-lg"></i>\\n                    </li>\\n                    <li class="border-0 list-group-item d-flex justify-content-between align-items-center">\\n                        Classificar Cobradores Bons ou N\\xc3\\xa3o<br />\\n                        <i class="fa fa-sign-out text-muted fa-lg"></i>\\n                    </li>\\n                </ul>\\n            </div>\\n        </div>\\n    </div>\\n</div>\\n\', escape=False)\nresponse.write(\'\\n      \', escape=False)\nresponse.write(response.toolbar() if response.show_toolbar else \'\')\nresponse.write(\'\\n    </div>\\n    \', escape=False)\nresponse.write(\' <!-- this is default footer -->\\n    <footer id="noprint" class="footer container-fluid ">\\n      <div class="row">\\n        <div class="col-md-12">\\n          <div class="copyright pull-left">\', escape=False)\nresponse.write(T(\'Copyright\'))\nresponse.write(\' &#169; \', escape=False)\nresponse.write(request.now.year)\nresponse.write(\'</div>\\n          <div id="poweredBy" class="pull-right">\\n              Suporte <a href="https://api.whatsapp.com/send?phone=5588981126816">(88)98112-6816</a>\\n            </div>\\n        </div>\\n      </div>\\n    </footer>\\n <footer class="footer container-fluid d-none d-print-block">\\n      <div class="row">\\n        <div class="col-md-12">\\n          <div class="copyright pull-left">Suporte - (88)98112-6816</div>\\n          <div id="poweredBy" class="pull-right">\\n             \', escape=False)\nif auth.user:\n    response.write(auth.user.first_name)\n    response.write(\' \', escape=False)\n    response.write(auth.user.last_name)\nelse:\n    response.write(\'Aluminum System\', escape=False)\n    pass\nresponse.write(\'\\n          </div>\\n        </div>\\n      </div>\\n    </footer>\\n    \', escape=False)\nresponse.write(\'\\n    <!-- The javascript =============================== -->\\n    <script src="\', escape=False)\nresponse.write(URL(\'static\',\'js/bootstrap.bundle.min.js\'))\nresponse.write(\'"></script>\\n    <script src="\', escape=False)\nresponse.write(URL(\'static\',\'js/web2py-bootstrap4.js\'))\nresponse.write(\'"></script>\\n    \', escape=False)\nresponse.write(\'\\n    \', escape=False)\nif response.google_analytics_id:\n    response.write(\'\\n    <!-- Analytics ==================================== -->\\n    <script src="\', escape=False)\n    response.write(URL(\'static\',\'js/analytics.min.js\'))\n    response.write(\'"></script>\\n    <script type="text/javascript">\\n      analytics.initialize({\\n      \\\'Google Analytics\\\':{trackingId:\\\'\', escape=False)\n    response.write(response.google_analytics_id)\n    response.write("\'}\\n      });\\n    </script>\\n    ", escape=False)\n    pass\nresponse.write(\'\\n  </body>\\n</html>\\n\', escape=False)'
p7
sS'snapshot'
p8
(dp9
S'exception'
p10
(dp11
S'__getslice__'
p12
S"<method-wrapper '__getslice__' of exceptions.NameError object>"
p13
sS'__str__'
p14
S"<method-wrapper '__str__' of exceptions.NameError object>"
p15
sS'__reduce__'
p16
S'<built-in method __reduce__ of exceptions.NameError object>'
p17
sS'__dict__'
p18
S'{}'
p19
sS'message'
p20
S'"name \'empresa\' is not defined"'
p21
sS'__sizeof__'
p22
S'<built-in method __sizeof__ of exceptions.NameError object>'
p23
sS'__init__'
p24
S"<method-wrapper '__init__' of exceptions.NameError object>"
p25
sS'__setattr__'
p26
S"<method-wrapper '__setattr__' of exceptions.NameError object>"
p27
sS'__reduce_ex__'
p28
S'<built-in method __reduce_ex__ of exceptions.NameError object>'
p29
sS'__new__'
p30
S'<built-in method __new__ of type object>'
p31
sS'__format__'
p32
S'<built-in method __format__ of exceptions.NameError object>'
p33
sS'__class__'
p34
S"<type 'exceptions.NameError'>"
p35
sS'__doc__'
p36
S"'Name not found globally.'"
p37
sS'__getitem__'
p38
S"<method-wrapper '__getitem__' of exceptions.NameError object>"
p39
sS'__setstate__'
p40
S'<built-in method __setstate__ of exceptions.NameError object>'
p41
sS'__getattribute__'
p42
S"<method-wrapper '__getattribute__' of exceptions.NameError object>"
p43
sS'args'
p44
S'("name \'empresa\' is not defined",)'
p45
sS'__subclasshook__'
p46
S'<built-in method __subclasshook__ of type object>'
p47
sS'__unicode__'
p48
S'<built-in method __unicode__ of exceptions.NameError object>'
p49
sS'__delattr__'
p50
S"<method-wrapper '__delattr__' of exceptions.NameError object>"
p51
sS'__repr__'
p52
S"<method-wrapper '__repr__' of exceptions.NameError object>"
p53
sS'__hash__'
p54
S"<method-wrapper '__hash__' of exceptions.NameError object>"
p55
ssS'evalue'
p56
S"name 'empresa' is not defined"
p57
sS'request'
p58
cgluon.html
XML_unpickle
p59
(S'sTg\x00\x00<div><table><tr><td style="font-weight:bold;vertical-align:top;">ajax</td><td style="vertical-align:top;">:</td><td><div>False</div></td></tr><tr><td style="font-weight:bold;vertical-align:top;">application</td><td style="vertical-align:top;">:</td><td><div>aluminum</div></td></tr><tr><td style="font-weight:bold;vertical-align:top;">args</td><td style="vertical-align:top;">:</td><td><div><table><tr><td><div>14</div></td></tr></table></div></td></tr><tr><td style="font-weight:bold;vertical-align:top;">cid</td><td style="vertical-align:top;">:</td><td><div>None</div></td></tr><tr><td style="font-weight:bold;vertical-align:top;">client</td><td style="vertical-align:top;">:</td><td><div>191.212.144.51</div></td></tr><tr><td style="font-weight:bold;vertical-align:top;">controller</td><td style="vertical-align:top;">:</td><td><div>acs_relatorio</div></td></tr><tr><td style="font-weight:bold;vertical-align:top;">cookies</td><td style="vertical-align:top;">:</td><td><div><table><tr><td style="font-weight:bold;vertical-align:top;">session_id_admin</td><td style="vertical-align:top;">:</td><td><div>191.212.144.51-f1dcb516-3dce-45f3-9767-1f51495fd8e4<table><tr><td style="font-weight:bold;vertical-align:top;">comment</td><td style="vertical-align:top;">:</td><td><div></div></td></tr><tr><td style="font-weight:bold;vertical-align:top;">domain</td><td style="vertical-align:top;">:</td><td><div></div></td></tr><tr><td style="font-weight:bold;vertical-align:top;">expires</td><td style="vertical-align:top;">:</td><td><div></div></td></tr><tr><td style="font-weight:bold;vertical-align:top;">httponly</td><td style="vertical-align:top;">:</td><td><div></div></td></tr><tr><td style="font-weight:bold;vertical-align:top;">max-age</td><td style="vertical-align:top;">:</td><td><div></div></td></tr><tr><td style="font-weight:bold;vertical-align:top;">path</td><td style="vertical-align:top;">:</td><td><div></div></td></tr><tr><td style="font-weight:bold;vertical-align:top;">secure</td><td style="vertical-align:top;">:</td><td><div></div></td></tr><tr><td style="font-weight:bold;vertical-align:top;">version</td><td style="vertical-align:top;">:</td><td><div></div></td></tr></table></div></td></tr><tr><td style="font-weight:bold;vertical-align:top;">session_id_agrosystem</td><td style="vertical-align:top;">:</td><td><div>191.212.144.51-3dc5c406-642a-4277-ad66-fbbfa730d36c<table><tr><td style="font-weight:bold;vertical-align:top;">comment</td><td style="vertical-align:top;">:</td><td><div></div></td></tr><tr><td style="font-weight:bold;vertical-align:top;">domain</td><td style="vertical-align:top;">:</td><td><div></div></td></tr><tr><td style="font-weight:bold;vertical-align:top;">expires</td><td style="vertical-align:top;">:</td><td><div></div></td></tr><tr><td style="font-weight:bold;vertical-align:top;">httponly</td><td style="vertical-align:top;">:</td><td><div></div></td></tr><tr><td style="font-weight:bold;vertical-align:top;">max-age</td><td style="vertical-align:top;">:</td><td><div></div></td></tr><tr><td style="font-weight:bold;vertical-align:top;">path</td><td style="vertical-align:top;">:</td><td><div></div></td></tr><tr><td style="font-weight:bold;vertical-align:top;">secure</td><td style="vertical-align:top;">:</td><td><div></div></td></tr><tr><td style="font-weight:bold;vertical-align:top;">version</td><td style="vertical-align:top;">:</td><td><div></div></td></tr></table></div></td></tr><tr><td style="font-weight:bold;vertical-align:top;">session_id_aluminum</td><td style="vertical-align:top;">:</td><td><div>191.212.144.51-24616db9-0b73-4e6c-9979-71492a58f15d<table><tr><td style="font-weight:bold;vertical-align:top;">comment</td><td style="vertical-align:top;">:</td><td><div></div></td></tr><tr><td style="font-weight:bold;vertical-align:top;">domain</td><td style="vertical-align:top;">:</td><td><div></div></td></tr><tr><td style="font-weight:bold;vertical-align:top;">expires</td><td style="vertical-align:top;">:</td><td><div></div></td></tr><tr><td style="font-weight:bold;vertical-align:top;">httponly</td><td style="vertical-align:top;">:</td><td><div></div></td></tr><tr><td style="font-weight:bold;vertical-align:top;">max-age</td><td style="vertical-align:top;">:</td><td><div></div></td></tr><tr><td style="font-weight:bold;vertical-align:top;">path</td><td style="vertical-align:top;">:</td><td><div></div></td></tr><tr><td style="font-weight:bold;vertical-align:top;">secure</td><td style="vertical-align:top;">:</td><td><div></div></td></tr><tr><td style="font-weight:bold;vertical-align:top;">version</td><td style="vertical-align:top;">:</td><td><div></div></td></tr></table></div></td></tr><tr><td style="font-weight:bold;vertical-align:top;">session_id_overcoming</td><td style="vertical-align:top;">:</td><td><div>191.212.144.51-6e30a602-ad2f-41a0-9b71-34a2b46366c3<table><tr><td style="font-weight:bold;vertical-align:top;">comment</td><td style="vertical-align:top;">:</td><td><div></div></td></tr><tr><td style="font-weight:bold;vertical-align:top;">domain</td><td style="vertical-align:top;">:</td><td><div></div></td></tr><tr><td style="font-weight:bold;vertical-align:top;">expires</td><td style="vertical-align:top;">:</td><td><div></div></td></tr><tr><td style="font-weight:bold;vertical-align:top;">httponly</td><td style="vertical-align:top;">:</td><td><div></div></td></tr><tr><td style="font-weight:bold;vertical-align:top;">max-age</td><td style="vertical-align:top;">:</td><td><div></div></td></tr><tr><td style="font-weight:bold;vertical-align:top;">path</td><td style="vertical-align:top;">:</td><td><div></div></td></tr><tr><td style="font-weight:bold;vertical-align:top;">secure</td><td style="vertical-align:top;">:</td><td><div></div></td></tr><tr><td style="font-weight:bold;vertical-align:top;">version</td><td style="vertical-align:top;">:</td><td><div></div></td></tr></table></div></td></tr><tr><td style="font-weight:bold;vertical-align:top;">session_id_welcome</td><td style="vertical-align:top;">:</td><td><div>191.212.144.51-e612a197-4279-4f7d-952e-c313e96a3cc7<table><tr><td style="font-weight:bold;vertical-align:top;">comment</td><td style="vertical-align:top;">:</td><td><div></div></td></tr><tr><td style="font-weight:bold;vertical-align:top;">domain</td><td style="vertical-align:top;">:</td><td><div></div></td></tr><tr><td style="font-weight:bold;vertical-align:top;">expires</td><td style="vertical-align:top;">:</td><td><div></div></td></tr><tr><td style="font-weight:bold;vertical-align:top;">httponly</td><td style="vertical-align:top;">:</td><td><div></div></td></tr><tr><td style="font-weight:bold;vertical-align:top;">max-age</td><td style="vertical-align:top;">:</td><td><div></div></td></tr><tr><td style="font-weight:bold;vertical-align:top;">path</td><td style="vertical-align:top;">:</td><td><div></div></td></tr><tr><td style="font-weight:bold;vertical-align:top;">secure</td><td style="vertical-align:top;">:</td><td><div></div></td></tr><tr><td style="font-weight:bold;vertical-align:top;">version</td><td style="vertical-align:top;">:</td><td><div></div></td></tr></table></div></td></tr></table></div></td></tr><tr><td style="font-weight:bold;vertical-align:top;">env</td><td style="vertical-align:top;">:</td><td><div><table><tr><td style="font-weight:bold;vertical-align:top;">CONTENT_LENGTH</td><td style="vertical-align:top;">:</td><td><div></div></td></tr><tr><td style="font-weight:bold;vertical-align:top;">CONTENT_TYPE</td><td style="vertical-align:top;">:</td><td><div></div></td></tr><tr><td style="font-weight:bold;vertical-align:top;">DOCUMENT_ROOT</td><td style="vertical-align:top;">:</td><td><div>/usr/local/openresty/nginx/html</div></td></tr><tr><td style="font-weight:bold;vertical-align:top;">HTTPS</td><td style="vertical-align:top;">:</td><td><div>on</div></td></tr><tr><td style="font-weight:bold;vertical-align:top;">HTTP_ACCEPT</td><td style="vertical-align:top;">:</td><td><div>text/html,application/xhtml+xml,application/xml;q=0.9,image/webp,*/*;q=0.8</div></td></tr><tr><td style="font-weight:bold;vertical-align:top;">HTTP_ACCEPT_ENCODING</td><td style="vertical-align:top;">:</td><td><div>gzip, deflate, br</div></td></tr><tr><td style="font-weight:bold;vertical-align:top;">HTTP_ACCEPT_LANGUAGE</td><td style="vertical-align:top;">:</td><td><div>pt-BR,pt;q=0.8,en-US;q=0.5,en;q=0.3</div></td></tr><tr><td style="font-weight:bold;vertical-align:top;">HTTP_CACHE_CONTROL</td><td style="vertical-align:top;">:</td><td><div>max-age=0</div></td></tr><tr><td style="font-weight:bold;vertical-align:top;">HTTP_CONNECTION</td><td style="vertical-align:top;">:</td><td><div>close</div></td></tr><tr><td style="font-weight:bold;vertical-align:top;">HTTP_COOKIE</td><td style="vertical-align:top;">:</td><td><div>_ga=GA1.3.89391603.1621978944; session_id_overcoming=191.212.144.51-6e30a602-ad2f-41a0-9b71-34a2b46366c3; _ga=GA1.3.89391603.1621978944; session_id_agrosystem=191.212.144.51-3dc5c406-642a-4277-ad66-fbbfa730d36c; session_id_aluminum=191.212.144.51-24616db9-0b73-4e6c-9979-71492a58f15d; _gid=GA1.3.1270904441.1625854926; session_id_admin=191.212.144.51-f1dcb516-3dce-45f3-9767-1f51495fd8e4; session_id_welcome=191.212.144.51-e612a197-4279-4f7d-952e-c313e96a3cc7</div></td></tr><tr><td style="font-weight:bold;vertical-align:top;">HTTP_HOST</td><td style="vertical-align:top;">:</td><td><div>rogoberto.pythonanywhere.com</div></td></tr><tr><td style="font-weight:bold;vertical-align:top;">HTTP_REFERER</td><td style="vertical-align:top;">:</td><td><div>https://rogoberto.pythonanywhere.com/aluminum/acs_principal/index/168</div></td></tr><tr><td style="font-weight:bold;vertical-align:top;">HTTP_UPGRADE_INSECURE_REQUESTS</td><td style="vertical-align:top;">:</td><td><div>1</div></td></tr><tr><td style="font-weight:bold;vertical-align:top;">HTTP_USER_AGENT</td><td style="vertical-align:top;">:</td><td><div>Mozilla/5.0 (X11; Ubuntu; Linux x86_64; rv:89.0) Gecko/20100101 Firefox/89.0</div></td></tr><tr><td style="font-weight:bold;vertical-align:top;">HTTP_X_FORWARDED_FOR</td><td style="vertical-align:top;">:</td><td><div>191.212.144.51</div></td></tr><tr><td style="font-weight:bold;vertical-align:top;">HTTP_X_REAL_IP</td><td style="vertical-align:top;">:</td><td><div>191.212.144.51</div></td></tr><tr><td style="font-weight:bold;vertical-align:top;">PATH_INFO</td><td style="vertical-align:top;">:</td><td><div>/aluminum/acs_relatorio/mapeamanto_administrativo/14</div></td></tr><tr><td style="font-weight:bold;vertical-align:top;">QUERY_STRING</td><td style="vertical-align:top;">:</td><td><div></div></td></tr><tr><td style="font-weight:bold;vertical-align:top;">REMOTE_ADDR</td><td style="vertical-align:top;">:</td><td><div>10.0.0.224</div></td></tr><tr><td style="font-weight:bold;vertical-align:top;">REMOTE_PORT</td><td style="vertical-align:top;">:</td><td><div>52426</div></td></tr><tr><td style="font-weight:bold;vertical-align:top;">REQUEST_METHOD</td><td style="vertical-align:top;">:</td><td><div>GET</div></td></tr><tr><td style="font-weight:bold;vertical-align:top;">REQUEST_URI</td><td style="vertical-align:top;">:</td><td><div>/aluminum/acs_relatorio/mapeamanto_administrativo/14</div></td></tr><tr><td style="font-weight:bold;vertical-align:top;">SCRIPT_NAME</td><td style="vertical-align:top;">:</td><td><div></div></td></tr><tr><td style="font-weight:bold;vertical-align:top;">SERVER_NAME</td><td style="vertical-align:top;">:</td><td><div>rogoberto.pythonanywhere.com</div></td></tr><tr><td style="font-weight:bold;vertical-align:top;">SERVER_PORT</td><td style="vertical-align:top;">:</td><td><div>443</div></td></tr><tr><td style="font-weight:bold;vertical-align:top;">SERVER_PROTOCOL</td><td style="vertical-align:top;">:</td><td><div>HTTP/1.1</div></td></tr><tr><td style="font-weight:bold;vertical-align:top;">app_folders</td><td style="vertical-align:top;">:</td><td><div>set([&#x27;/home/rogoberto/web2py/applications/welcome/&#x27;, &#x27;/home/rogoberto/web2py/applications/aluminum/&#x27;, &#x27;/home/rogoberto/web2py/applications/prodigy/&#x27;, &#x27;/home/rogoberto/web2py/applications/admin/&#x27;, &#x27;/home/rogoberto/web2py/applications/agrosystem/&#x27;, &#x27;/home/rogoberto/web2py/applications/localfs/&#x27;])</div></td></tr><tr><td style="font-weight:bold;vertical-align:top;">applications_parent</td><td style="vertical-align:top;">:</td><td><div>/home/rogoberto/web2py</div></td></tr><tr><td style="font-weight:bold;vertical-align:top;">content_length</td><td style="vertical-align:top;">:</td><td><div></div></td></tr><tr><td style="font-weight:bold;vertical-align:top;">content_type</td><td style="vertical-align:top;">:</td><td><div></div></td></tr><tr><td style="font-weight:bold;vertical-align:top;">db_sessions</td><td style="vertical-align:top;">:</td><td><div>set([])</div></td></tr><tr><td style="font-weight:bold;vertical-align:top;">debugging</td><td style="vertical-align:top;">:</td><td><div>True</div></td></tr><tr><td style="font-weight:bold;vertical-align:top;">document_root</td><td style="vertical-align:top;">:</td><td><div>/usr/local/openresty/nginx/html</div></td></tr><tr><td style="font-weight:bold;vertical-align:top;">gluon_parent</td><td style="vertical-align:top;">:</td><td><div>/home/rogoberto/web2py</div></td></tr><tr><td style="font-weight:bold;vertical-align:top;">http_accept</td><td style="vertical-align:top;">:</td><td><div>text/html,application/xhtml+xml,application/xml;q=0.9,image/webp,*/*;q=0.8</div></td></tr><tr><td style="font-weight:bold;vertical-align:top;">http_accept_encoding</td><td style="vertical-align:top;">:</td><td><div>gzip, deflate, br</div></td></tr><tr><td style="font-weight:bold;vertical-align:top;">http_accept_language</td><td style="vertical-align:top;">:</td><td><div>pt-BR,pt;q=0.8,en-US;q=0.5,en;q=0.3</div></td></tr><tr><td style="font-weight:bold;vertical-align:top;">http_cache_control</td><td style="vertical-align:top;">:</td><td><div>max-age=0</div></td></tr><tr><td style="font-weight:bold;vertical-align:top;">http_connection</td><td style="vertical-align:top;">:</td><td><div>close</div></td></tr><tr><td style="font-weight:bold;vertical-align:top;">http_cookie</td><td style="vertical-align:top;">:</td><td><div>_ga=GA1.3.89391603.1621978944; session_id_overcoming=191.212.144.51-6e30a602-ad2f-41a0-9b71-34a2b46366c3; _ga=GA1.3.89391603.1621978944; session_id_agrosystem=191.212.144.51-3dc5c406-642a-4277-ad66-fbbfa730d36c; session_id_aluminum=191.212.144.51-24616db9-0b73-4e6c-9979-71492a58f15d; _gid=GA1.3.1270904441.1625854926; session_id_admin=191.212.144.51-f1dcb516-3dce-45f3-9767-1f51495fd8e4; session_id_welcome=191.212.144.51-e612a197-4279-4f7d-952e-c313e96a3cc7</div></td></tr><tr><td style="font-weight:bold;vertical-align:top;">http_host</td><td style="vertical-align:top;">:</td><td><div>rogoberto.pythonanywhere.com</div></td></tr><tr><td style="font-weight:bold;vertical-align:top;">http_referer</td><td style="vertical-align:top;">:</td><td><div>https://rogoberto.pythonanywhere.com/aluminum/acs_principal/index/168</div></td></tr><tr><td style="font-weight:bold;vertical-align:top;">http_upgrade_insecure_requests</td><td style="vertical-align:top;">:</td><td><div>1</div></td></tr><tr><td style="font-weight:bold;vertical-align:top;">http_user_agent</td><td style="vertical-align:top;">:</td><td><div>Mozilla/5.0 (X11; Ubuntu; Linux x86_64; rv:89.0) Gecko/20100101 Firefox/89.0</div></td></tr><tr><td style="font-weight:bold;vertical-align:top;">http_x_forwarded_for</td><td style="vertical-align:top;">:</td><td><div>191.212.144.51</div></td></tr><tr><td style="font-weight:bold;vertical-align:top;">http_x_real_ip</td><td style="vertical-align:top;">:</td><td><div>191.212.144.51</div></td></tr><tr><td style="font-weight:bold;vertical-align:top;">https</td><td style="vertical-align:top;">:</td><td><div>on</div></td></tr><tr><td style="font-weight:bold;vertical-align:top;">is_jython</td><td style="vertical-align:top;">:</td><td><div>False</div></td></tr><tr><td style="font-weight:bold;vertical-align:top;">is_py2</td><td style="vertical-align:top;">:</td><td><div>True</div></td></tr><tr><td style="font-weight:bold;vertical-align:top;">is_pypy</td><td style="vertical-align:top;">:</td><td><div>False</div></td></tr><tr><td style="font-weight:bold;vertical-align:top;">is_source</td><td style="vertical-align:top;">:</td><td><div>True</div></td></tr><tr><td style="font-weight:bold;vertical-align:top;">local_hosts</td><td style="vertical-align:top;">:</td><td><div><table><tr><td><div>35.173.69.207</div></td></tr><tr><td><div>::ffff:127.0.0.1</div></td></tr><tr><td><div>::1</div></td></tr><tr><td><div>rogoberto.pythonanywhere.com</div></td></tr><tr><td><div>127.0.0.1</div></td></tr><tr><td><div>blue-liveweb5</div></td></tr><tr><td><div>localhost</div></td></tr></table></div></td></tr><tr><td style="font-weight:bold;vertical-align:top;">path_info</td><td style="vertical-align:top;">:</td><td><div>/aluminum/acs_relatorio/mapeamanto_administrativo/14</div></td></tr><tr><td style="font-weight:bold;vertical-align:top;">query_string</td><td style="vertical-align:top;">:</td><td><div></div></td></tr><tr><td style="font-weight:bold;vertical-align:top;">remote_addr</td><td style="vertical-align:top;">:</td><td><div>10.0.0.224</div></td></tr><tr><td style="font-weight:bold;vertical-align:top;">remote_port</td><td style="vertical-align:top;">:</td><td><div>52426</div></td></tr><tr><td style="font-weight:bold;vertical-align:top;">request_method</td><td style="vertical-align:top;">:</td><td><div>GET</div></td></tr><tr><td style="font-weight:bold;vertical-align:top;">request_uri</td><td style="vertical-align:top;">:</td><td><div>/aluminum/acs_relatorio/mapeamanto_administrativo/14</div></td></tr><tr><td style="font-weight:bold;vertical-align:top;">script_name</td><td style="vertical-align:top;">:</td><td><div></div></td></tr><tr><td style="font-weight:bold;vertical-align:top;">server_name</td><td style="vertical-align:top;">:</td><td><div>rogoberto.pythonanywhere.com</div></td></tr><tr><td style="font-weight:bold;vertical-align:top;">server_port</td><td style="vertical-align:top;">:</td><td><div>443</div></td></tr><tr><td style="font-weight:bold;vertical-align:top;">server_protocol</td><td style="vertical-align:top;">:</td><td><div>HTTP/1.1</div></td></tr><tr><td style="font-weight:bold;vertical-align:top;">uwsgi.node</td><td style="vertical-align:top;">:</td><td><div>blue-liveweb5</div></td></tr><tr><td style="font-weight:bold;vertical-align:top;">uwsgi.version</td><td style="vertical-align:top;">:</td><td><div>2.0.17.1</div></td></tr><tr><td style="font-weight:bold;vertical-align:top;">uwsgi_node</td><td style="vertical-align:top;">:</td><td><div>blue-liveweb5</div></td></tr><tr><td style="font-weight:bold;vertical-align:top;">uwsgi_version</td><td style="vertical-align:top;">:</td><td><div>2.0.17.1</div></td></tr><tr><td style="font-weight:bold;vertical-align:top;">web2py_original_uri</td><td style="vertical-align:top;">:</td><td><div>/aluminum/acs_relatorio/mapeamanto_administrativo/14</div></td></tr><tr><td style="font-weight:bold;vertical-align:top;">web2py_path</td><td style="vertical-align:top;">:</td><td><div>/home/rogoberto/web2py</div></td></tr><tr><td style="font-weight:bold;vertical-align:top;">web2py_version</td><td style="vertical-align:top;">:</td><td><div>2.17.1-stable+timestamp.2018.08.06.01.02.56</div></td></tr><tr><td style="font-weight:bold;vertical-align:top;">wsgi.errors</td><td style="vertical-align:top;">:</td><td><div>&lt;uwsgi_file__bin_user_wsgi_wrapper.ErrorLogFile object at 0x7f6f48fa5c10&gt;</div></td></tr><tr><td style="font-weight:bold;vertical-align:top;">wsgi.file_wrapper</td><td style="vertical-align:top;">:</td><td><div>&lt;built-in function uwsgi_sendfile&gt;</div></td></tr><tr><td style="font-weight:bold;vertical-align:top;">wsgi.input</td><td style="vertical-align:top;">:</td><td><div>&lt;uwsgi._Input object at 0x7f6f4a3aad98&gt;</div></td></tr><tr><td style="font-weight:bold;vertical-align:top;">wsgi.multiprocess</td><td style="vertical-align:top;">:</td><td><div>True</div></td></tr><tr><td style="font-weight:bold;vertical-align:top;">wsgi.multithread</td><td style="vertical-align:top;">:</td><td><div>False</div></td></tr><tr><td style="font-weight:bold;vertical-align:top;">wsgi.run_once</td><td style="vertical-align:top;">:</td><td><div>False</div></td></tr><tr><td style="font-weight:bold;vertical-align:top;">wsgi.url_scheme</td><td style="vertical-align:top;">:</td><td><div>https</div></td></tr><tr><td style="font-weight:bold;vertical-align:top;">wsgi.version</td><td style="vertical-align:top;">:</td><td><div><table><tr><td><div>1</div></td></tr><tr><td><div>0</div></td></tr></table></div></td></tr><tr><td style="font-weight:bold;vertical-align:top;">wsgi_errors</td><td style="vertical-align:top;">:</td><td><div>&lt;uwsgi_file__bin_user_wsgi_wrapper.ErrorLogFile object at 0x7f6f48fa5c10&gt;</div></td></tr><tr><td style="font-weight:bold;vertical-align:top;">wsgi_file_wrapper</td><td style="vertical-align:top;">:</td><td><div>&lt;built-in function uwsgi_sendfile&gt;</div></td></tr><tr><td style="font-weight:bold;vertical-align:top;">wsgi_input</td><td style="vertical-align:top;">:</td><td><div>&lt;uwsgi._Input object at 0x7f6f4a3aad98&gt;</div></td></tr><tr><td style="font-weight:bold;vertical-align:top;">wsgi_multiprocess</td><td style="vertical-align:top;">:</td><td><div>True</div></td></tr><tr><td style="font-weight:bold;vertical-align:top;">wsgi_multithread</td><td style="vertical-align:top;">:</td><td><div>False</div></td></tr><tr><td style="font-weight:bold;vertical-align:top;">wsgi_run_once</td><td style="vertical-align:top;">:</td><td><div>False</div></td></tr><tr><td style="font-weight:bold;vertical-align:top;">wsgi_url_scheme</td><td style="vertical-align:top;">:</td><td><div>https</div></td></tr><tr><td style="font-weight:bold;vertical-align:top;">wsgi_version</td><td style="vertical-align:top;">:</td><td><div><table><tr><td><div>1</div></td></tr><tr><td><div>0</div></td></tr></table></div></td></tr></table></div></td></tr><tr><td style="font-weight:bold;vertical-align:top;">extension</td><td style="vertical-align:top;">:</td><td><div>html</div></td></tr><tr><td style="font-weight:bold;vertical-align:top;">folder</td><td style="vertical-align:top;">:</td><td><div>/home/rogoberto/web2py/applications/aluminum/</div></td></tr><tr><td style="font-weight:bold;vertical-align:top;">function</td><td style="vertical-align:top;">:</td><td><div>mapeamanto_administrativo</div></td></tr><tr><td style="font-weight:bold;vertical-align:top;">global_settings</td><td style="vertical-align:top;">:</td><td><div><table><tr><td style="font-weight:bold;vertical-align:top;">app_folders</td><td style="vertical-align:top;">:</td><td><div>set([&#x27;/home/rogoberto/web2py/applications/welcome/&#x27;, &#x27;/home/rogoberto/web2py/applications/aluminum/&#x27;, &#x27;/home/rogoberto/web2py/applications/prodigy/&#x27;, &#x27;/home/rogoberto/web2py/applications/admin/&#x27;, &#x27;/home/rogoberto/web2py/applications/agrosystem/&#x27;, &#x27;/home/rogoberto/web2py/applications/localfs/&#x27;])</div></td></tr><tr><td style="font-weight:bold;vertical-align:top;">applications_parent</td><td style="vertical-align:top;">:</td><td><div>/home/rogoberto/web2py</div></td></tr><tr><td style="font-weight:bold;vertical-align:top;">db_sessions</td><td style="vertical-align:top;">:</td><td><div>set([])</div></td></tr><tr><td style="font-weight:bold;vertical-align:top;">debugging</td><td style="vertical-align:top;">:</td><td><div>True</div></td></tr><tr><td style="font-weight:bold;vertical-align:top;">gluon_parent</td><td style="vertical-align:top;">:</td><td><div>/home/rogoberto/web2py</div></td></tr><tr><td style="font-weight:bold;vertical-align:top;">is_jython</td><td style="vertical-align:top;">:</td><td><div>False</div></td></tr><tr><td style="font-weight:bold;vertical-align:top;">is_py2</td><td style="vertical-align:top;">:</td><td><div>True</div></td></tr><tr><td style="font-weight:bold;vertical-align:top;">is_pypy</td><td style="vertical-align:top;">:</td><td><div>False</div></td></tr><tr><td style="font-weight:bold;vertical-align:top;">is_source</td><td style="vertical-align:top;">:</td><td><div>True</div></td></tr><tr><td style="font-weight:bold;vertical-align:top;">local_hosts</td><td style="vertical-align:top;">:</td><td><div><table><tr><td><div>35.173.69.207</div></td></tr><tr><td><div>::ffff:127.0.0.1</div></td></tr><tr><td><div>::1</div></td></tr><tr><td><div>rogoberto.pythonanywhere.com</div></td></tr><tr><td><div>127.0.0.1</div></td></tr><tr><td><div>blue-liveweb5</div></td></tr><tr><td><div>localhost</div></td></tr></table></div></td></tr><tr><td style="font-weight:bold;vertical-align:top;">web2py_version</td><td style="vertical-align:top;">:</td><td><div>2.17.1-stable+timestamp.2018.08.06.01.02.56</div></td></tr></table></div></td></tr><tr><td style="font-weight:bold;vertical-align:top;">is_https</td><td style="vertical-align:top;">:</td><td><div>True</div></td></tr><tr><td style="font-weight:bold;vertical-align:top;">is_local</td><td style="vertical-align:top;">:</td><td><div>False</div></td></tr><tr><td style="font-weight:bold;vertical-align:top;">is_restful</td><td style="vertical-align:top;">:</td><td><div>False</div></td></tr><tr><td style="font-weight:bold;vertical-align:top;">is_scheduler</td><td style="vertical-align:top;">:</td><td><div>False</div></td></tr><tr><td style="font-weight:bold;vertical-align:top;">is_shell</td><td style="vertical-align:top;">:</td><td><div>False</div></td></tr><tr><td style="font-weight:bold;vertical-align:top;">method</td><td style="vertical-align:top;">:</td><td><div>GET</div></td></tr><tr><td style="font-weight:bold;vertical-align:top;">now</td><td style="vertical-align:top;">:</td><td><div>datetime.datetime(2021, 7, 10, 4, 33, 42, 625107)</div></td></tr><tr><td style="font-weight:bold;vertical-align:top;">url</td><td style="vertical-align:top;">:</td><td><div>/aluminum/acs_relatorio/mapeamanto_administrativo/14</div></td></tr><tr><td style="font-weight:bold;vertical-align:top;">utcnow</td><td style="vertical-align:top;">:</td><td><div>datetime.datetime(2021, 7, 10, 4, 33, 42, 625118)</div></td></tr><tr><td style="font-weight:bold;vertical-align:top;">wsgi</td><td style="vertical-align:top;">:</td><td><div>&lt;gluon.main.LazyWSGI object at 0x7f6f40500290&gt;</div></td></tr></table></div>'
tRp60
sS'frames'
p61
(lp62
(dp63
S'file'
p64
S'/home/rogoberto/web2py/gluon/restricted.py'
p65
sS'dump'
p66
(dp67
S'environment'
p68
S"{'A': <class 'gluon.html.A'>, 'ANY_OF': <class 'gluon.validators.ANY_OF'>, 'ASSIGNJS': <function ASSIGNJS>, 'AppConfig': <function AppConfig>, 'Auth': <class 'gluon.tools.Auth'>, 'B': <class 'gluon.html.B'>, 'BEAUTIFY': <class 'gluon.html.BEAUTIFY'>, 'BODY': <class 'gluon.html.BODY'>, 'BR': <class 'gluon.html.BR'>, 'BUTTON': <class 'gluon.html.BUTTON'>, ...}"
p69
sS'ccode'
p70
S'<code object <module> at 0x7f6f408fdab0, file "/...elatorio/mapeamanto_administrativo.html", line 1>'
p71
ssS'lnum'
p72
I219
sS'lines'
p73
(dp74
I214
S'    if environment is None:'
p75
sI215
S'        environment = {}'
p76
sI216
S"    environment['__file__'] = layer"
p77
sI217
S"    environment['__name__'] = '__restricted__'"
p78
sI218
S'    try:'
p79
sI219
S'        exec(ccode, environment)'
p80
sI220
S'    except HTTP:'
p81
sI221
S'        raise'
p82
sI222
S'    except RestrictedError:'
p83
sI223
S'        # do not encapsulate (obfuscate) the original RestrictedError'
p84
ssS'call'
p85
S'(ccode=<code object <module> at 0x7f6f408fdab0, file "/...elatorio/mapeamanto_administrativo.html", line 1>, environment={\'A\': <class \'gluon.html.A\'>, \'ANY_OF\': <class \'gluon.validators.ANY_OF\'>, \'ASSIGNJS\': <function ASSIGNJS>, \'AppConfig\': <function AppConfig>, \'Auth\': <class \'gluon.tools.Auth\'>, \'B\': <class \'gluon.html.B\'>, \'BEAUTIFY\': <class \'gluon.html.BEAUTIFY\'>, \'BODY\': <class \'gluon.html.BODY\'>, \'BR\': <class \'gluon.html.BR\'>, \'BUTTON\': <class \'gluon.html.BUTTON\'>, ...}, layer=\'/home/rogoberto/web2py/applications/aluminum/views/acs_relatorio/mapeamanto_administrativo.html\', scode=r"response.write(\'<!DOCTYPE html>\\n<!--[if (gt IE ...nse.write(\'\\n  </body>\\n</html>\\n\', escape=False)")'
p86
sS'func'
p87
S'restricted'
p88
sa(dp89
g64
S'/home/rogoberto/web2py/applications/aluminum/views/acs_relatorio/mapeamanto_administrativo.html'
p90
sg66
(dp91
S'Pre'
p92
S'undefined'
p93
sS'e'
g93
sS'Mercadoria'
p94
g93
sS'da'
p95
g93
sS'Custos'
p96
g93
sS'Quant'
p97
g93
sS'br'
p98
g93
sS'os'
p99
g93
ssg72
I131
sg73
(dp100
I128
S'response.write(\'\\n<header class="header container-fluid d-none d-print-block">\\n     <div class="row">\\n        <div class="col-md-12">\\n          <div class="copyright pull-left">Aluminum System</div>\\n          <div id="poweredBy" class="pull-right">\\n            Gest\\xc3\\xa3o de vendas e cobran\\xc3\\xa7as artefatos de aluminio\\n            \\n          </div>\\n        </div>\\n      </div>\\n</header>\\n    \', escape=False)'
p101
sI129
S'response.write(\'\\n    <!-- Main ========================================= -->\\n    <!-- Begin page content -->\\n    <div class="container-fluid main-container py-5">\\n      \', escape=False)'
p102
sI130
S'response.write(\'\\n<div class="py-3 text-center">\\n    <div class="container">\\n        <div class="row">\\n            <div class="col-md-12">\\n                <h1 class="mb-3">Mapeamento de Trabalho</h1>\\n            </div>\\n        </div>\\n        <div class="row">\\n            <div class="col-md-6">\\n                <div class="row">\\n                    <div class="col-md-4 col-6">\\n                        <a class="btn btn-primary btn-block my-1" href="\', escape=False)'
p103
sI131
S"response.write(URL('acs_principal','index', args=empresa.id*12))"
p104
sI132
S'response.write(\'">\\n                          <i class="fa fa-arrow-left fa-fw"></i>Voltar</a>\\n                    </div>\\n                    <div class="col-md-4 col-6"></div>\\n                    <div class="col-md-4 col-12"></div>\\n                </div>\\n            </div>\\n            <div class="col-md-6 col-12"></div>\\n        </div>\\n        <div class="row">\\n            <div class="col-md-6 border p-1 my-2">\\n                <h4 class="">Cadastro Geral</h4>\\n                <ul class="list-group">\\n                    <li class="border-0 list-group-item d-flex justify-content-between align-items-center">\\n                        Cheques de Compras<br />\\n                        <i class="fa fa-sign-out text-muted fa-lg"></i>\\n                    </li>\\n                    <li class="border-0 list-group-item d-flex justify-content-between align-items-center">\\n                        Pagamentos Futuros<br />\\n                        <i class="fa fa-sign-out text-muted fa-lg"></i>\\n                    </li>\\n                    <li class="border-0 list-group-item d-flex justify-content-between align-items-center">\\n                        Retiradas e Vales Futuros<br />\\n                        <i class="fa fa-sign-out text-muted fa-lg"></i>\\n                    </li>\\n                    <li class="border-0 list-group-item d-flex justify-content-between align-items-center">\\n                        Despesas Locais da Venda&nbsp;<br />\\n                        <i class="fa fa-sign-out text-muted fa-lg"></i>\\n                    </li>\\n                    <li class="border-0 list-group-item d-flex justify-content-between align-items-center">\\n                        Despesas Locais da Cobran\\xc3\\xa7a&nbsp;&nbsp;<br />\\n                        <i class="fa fa-sign-out text-muted fa-lg"></i>\\n                    </li>\\n                    <li class="border-0 list-group-item d-flex justify-content-between align-items-center">\\n                        Despesas Locais Geral&nbsp;&nbsp;<br />\\n                        <i class="fa fa-sign-out text-muted fa-lg"></i>\\n                    </li>\\n                    <li class="border-0 list-group-item d-flex justify-content-between align-items-center">\\n                        Retiradas e Vales Futuros<br />\\n                        <i class="fa fa-sign-out text-muted fa-lg"></i>\\n                    </li>\\n                    <li class="border-0 list-group-item d-flex justify-content-between align-items-center">\\n                        Despesas Locais da Venda&nbsp;<br />\\n                        <i class="fa fa-sign-out text-muted fa-lg"></i>\\n                    </li>\\n                    <li class="border-0 list-group-item d-flex justify-content-between align-items-center">\\n                        Conferir Dep\\xc3\\xb3sistos das Cobran\\xc3\\xa7as<br />\\n                        <i class="fa fa-sign-out text-muted fa-lg"></i>\\n                    </li>\\n                </ul>\\n            </div>\\n            <div class="col-md-6 border p-1 my-2">\\n                <h4 class="">Revis\\xc3\\xa3o Geral</h4>\\n                <ul class="list-group">\\n                    <li class="border-0 list-group-item d-flex justify-content-between align-items-center">\\n                        Baixa em Cheques pagos<br />\\n                        <i class="fa fa-sign-out text-muted fa-lg"></i>\\n                    </li>\\n                    <li class="border-0 list-group-item d-flex justify-content-between align-items-center">\\n                        Baixa em Pagamentos pagos<br />\\n                        <i class="fa fa-sign-out text-muted fa-lg"></i>\\n                    </li>\\n                    <li class="border-0 list-group-item d-flex justify-content-between align-items-center">\\n                        Baixa em Vales Retirados<br />\\n                        <i class="fa fa-sign-out text-muted fa-lg"></i>\\n                    </li>\\n                    <li class="border-0 list-group-item d-flex justify-content-between align-items-center">\\n                        Verificar Despesas Recorrentes<br />\\n                        <i class="fa fa-sign-out text-muted fa-lg"></i>\\n                    </li>\\n                    <li class="border-0 list-group-item d-flex justify-content-between align-items-center">\\n                        Dep\\xc3\\xb3sitos das Cobran\\xc3\\xa7as<br />\\n                        <i class="fa fa-sign-out text-muted fa-lg"></i>\\n                    </li>\\n                    <li class="border-0 list-group-item d-flex justify-content-between align-items-center">\\n                        Recebimentos das Cobran\\xc3\\xa7as<br />\\n                        <i class="fa fa-sign-out text-muted fa-lg"></i>\\n                    </li>\\n                    <li class="border-0 list-group-item d-flex justify-content-between align-items-center">\\n                        Despesas das Cobran\\xc3\\xa7as Diariamente<br />\\n                        <i class="fa fa-sign-out text-muted fa-lg"></i>\\n                    </li>\\n                    <li class="border-0 list-group-item d-flex justify-content-between align-items-center">\\n                        Despesas das Vendas Diariamente&nbsp;<br />\\n                        <i class="fa fa-sign-out text-muted fa-lg"></i>\\n                    </li>\\n                    <li class="border-0 list-group-item d-flex justify-content-between align-items-center">\\n                        Recolher mercadoria de Devolu\\xc3\\xa7\\xc3\\xa3o<br />\\n                        <i class="fa fa-sign-out text-muted fa-lg"></i>\\n                    </li>\\n                </ul>\\n            </div>\\n        </div>\\n        <div class="row">\\n            <div class="col-md-6 border p-1 my-2">\\n                <h4 class="">Saida da Equipe de Vendas</h4>\\n                <ul class="list-group">\\n                    <li class="border-0 list-group-item d-flex justify-content-between align-items-center">\\n                        Fechar Venda Finalizada<br />\\n                        <i class="fa fa-sign-out text-muted fa-lg"></i>\\n                    </li>\\n                    <li class="border-0 list-group-item d-flex justify-content-between align-items-center">\\n                        Abrir Nova Venda Vincular Login<br />\\n                        <i class="fa fa-sign-out text-muted fa-lg"></i>\\n                    </li>\\n                    <li class="border-0 list-group-item d-flex justify-content-between align-items-center">\\n                        Verificar Comiss\\xc3\\xa3o do Chefe, Vales e Adiantamento<br />\\n                        <i class="fa fa-sign-out text-muted fa-lg"></i>\\n                    </li>\\n                    <li class="border-0 list-group-item d-flex justify-content-between align-items-center">\\n                        Cadastrar Retorno da Mercadoiria na Venda Atual<br />\\n                        <i class="fa fa-sign-out text-muted fa-lg"></i>\\n                    </li>\\n                    <li class="border-0 list-group-item d-flex justify-content-between align-items-center">\\n                        Cadastrar Compra da Mercadoria na venda Atual<br />\\n                        <i class="fa fa-sign-out text-muted fa-lg"></i>\\n                    </li>\\n                    <li class="border-0 list-group-item d-flex justify-content-between align-items-center">\\n                        Quant, Custos e Pre\\xc3\\xa7os da Mercadoria<br />\\n                        <i class="fa fa-sign-out text-muted fa-lg"></i>\\n                    </li>\\n                    <li class="border-0 list-group-item d-flex justify-content-between align-items-center">\\n                        Cadastrar Pastas da Despesa&nbsp; da Venda<br />\\n                        <i class="fa fa-sign-out text-muted fa-lg"></i>\\n                    </li>\\n                    <li class="border-0 list-group-item d-flex justify-content-between align-items-center">\\n                        Cadastrar Funcionarios e Vales<br />\\n                        <i class="fa fa-sign-out text-muted fa-lg"></i>\\n                    </li>\\n                    <li class="border-0 list-group-item d-flex justify-content-between align-items-center">\\n                        Cadastrar Equipe de Vendas e Vales<br />\\n                        <i class="fa fa-sign-out text-muted fa-lg"></i>\\n                    </li>\\n                    <li class="border-0 list-group-item d-flex justify-content-between align-items-center">\\n                        Cadastrar Transportes e Quilometragem<br />\\n                        <i class="fa fa-sign-out text-muted fa-lg"></i>\\n                    </li>\\n                    <li class="border-0 list-group-item d-flex justify-content-between align-items-center">\\n                        Fechar e Abrir Parti\\xc3\\xa7\\xc3\\xb5es quando necessario<br />\\n                        <i class="fa fa-sign-out text-muted fa-lg"></i>\\n                    </li>\\n                </ul>\\n            </div>\\n            <div class="col-md-6 border p-1 my-2">\\n                <h4 class="">Chegada da Equipe de Vendas</h4>\\n                <ul class="list-group">\\n                    <li class="border-0 list-group-item d-flex justify-content-between align-items-center">\\n                        Separar Fichas por Vendedores, Conferir<br />\\n                        <i class="fa fa-sign-out text-muted fa-lg"></i>\\n                    </li>\\n                    <li class="border-0 list-group-item d-flex justify-content-between align-items-center">\\n                        Entradas, vales caderno, venda e quantidade<br />\\n                        <i class="fa fa-sign-out text-muted fa-lg"></i>\\n                    </li>\\n                    <li class="border-0 list-group-item d-flex justify-content-between align-items-center">\\n                        Separar e Somar Despesa da Venda<br />\\n                        <i class="fa fa-sign-out text-muted fa-lg"></i>\\n                    </li>\\n                    <li class="border-0 list-group-item d-flex justify-content-between align-items-center">\\n                        Ajustar Venda \\xc3\\xa0 Prazo<br />\\n                        <i class="fa fa-sign-out text-muted fa-lg"></i>\\n                    </li>\\n                    <li class="border-0 list-group-item d-flex justify-content-between align-items-center">\\n                        Conferir Retorno da Mercadoria&nbsp;<br />\\n                        <i class="fa fa-sign-out text-muted fa-lg"></i>\\n                    </li>\\n                    <li class="border-0 list-group-item d-flex justify-content-between align-items-center">\\n                        Verificar Gratifica\\xc3\\xa7\\xc3\\xb5es de mercadoria<br />\\n                        <i class="fa fa-sign-out text-muted fa-lg"></i>\\n                    </li>\\n                    <li class="border-0 list-group-item d-flex justify-content-between align-items-center">\\n                        Verificar Pe\\xc3\\xa7as Estragadas<br />\\n                        <i class="fa fa-sign-out text-muted fa-lg"></i>\\n                    </li>\\n                    <li class="border-0 list-group-item d-flex justify-content-between align-items-center">\\n                        Presta\\xc3\\xa7\\xc3\\xa3o da Equipe<br />\\n                        <i class="fa fa-sign-out text-muted fa-lg"></i>\\n                    </li>\\n                    <li class="border-0 list-group-item d-flex justify-content-between align-items-center">\\n                        Presta\\xc3\\xa7\\xc3\\xa3o da Mercadoria&nbsp;<br />\\n                        <i class="fa fa-sign-out text-muted fa-lg"></i>\\n                    </li>\\n                    <li class="border-0 list-group-item d-flex justify-content-between align-items-center">\\n                        Presta\\xc3\\xa7\\xc3\\xa3o do Dinheiro<br />\\n                        <i class="fa fa-sign-out text-muted fa-lg"></i>\\n                    </li>\\n                    <li class="border-0 list-group-item d-flex justify-content-between align-items-center">\\n                        Ajustar datas de saida e chegada e de cobran\\xc3\\xa7a<br />\\n                        <i class="fa fa-sign-out text-muted fa-lg"></i>\\n                    </li>\\n                </ul>\\n            </div>\\n        </div>\\n      <div style="page-break-after: always"></div>\\n        <div class="row">\\n            <div class="col-md-6 border p-1 my-2">\\n                <h4 class="">Saida da Cobran\\xc3\\xa7a</h4>\\n                <ul class="list-group">\\n                    <li class="border-0 list-group-item d-flex justify-content-between align-items-center">\\n                        Alocar logins dos cobradores<br />\\n                        <i class="fa fa-sign-out text-muted fa-lg"></i>\\n                    </li>\\n                    <li class="border-0 list-group-item d-flex justify-content-between align-items-center">\\n                        Cadastrar Cobradores e Ajudantes<br />\\n                        <i class="fa fa-sign-out text-muted fa-lg"></i>\\n                    </li>\\n                    <li class="border-0 list-group-item d-flex justify-content-between align-items-center">\\n                        Verificar as Comiss\\xc3\\xb5es dos cobradores<br />\\n                        <i class="fa fa-sign-out text-muted fa-lg"></i>\\n                    </li>\\n                    <li class="border-0 list-group-item d-flex justify-content-between align-items-center">\\n                        Inserir e Conferir os Vales da Cobran\\xc3\\xa7a<br />\\n                        <i class="fa fa-sign-out text-muted fa-lg"></i>\\n                    </li>\\n                    <li class="border-0 list-group-item d-flex justify-content-between align-items-center">\\n                        Cadastrar Pastas de Despesa da Cobran\\xc3\\xa7a<br />\\n                        <i class="fa fa-sign-out text-muted fa-lg"></i>\\n                    </li>\\n                    <li class="border-0 list-group-item d-flex justify-content-between align-items-center">\\n                        Reconferir Quant de Fichas com Cobrador<br />\\n                        <i class="fa fa-sign-out text-muted fa-lg"></i>\\n                    </li>\\n                    <li class="border-0 list-group-item d-flex justify-content-between align-items-center">\\n                        Cadastrar Despesas Locais da Cobran\\xc3\\xa7a<br />\\n                        <i class="fa fa-sign-out text-muted fa-lg"></i>\\n                    </li>\\n                    <li class="border-0 list-group-item d-flex justify-content-between align-items-center">\\n                        &nbsp;Diariamente Despesas da Cobran\\xc3\\xa7a<br />\\n                        <i class="fa fa-sign-out text-muted fa-lg"></i>\\n                    </li>\\n                    <li class="border-0 list-group-item d-flex justify-content-between align-items-center">\\n                        &nbsp;Diariamente Recebimentos da Cobran\\xc3\\xa7a&nbsp;<br />\\n                        <i class="fa fa-sign-out text-muted fa-lg"></i>\\n                    </li>\\n                    <li class="border-0 list-group-item d-flex justify-content-between align-items-center">\\n                        &nbsp;Diariamente Depositos da Cobran\\xc3\\xa7a&nbsp;<br />\\n                        <i class="fa fa-sign-out text-muted fa-lg"></i>\\n                    </li>\\n                </ul>\\n            </div>\\n            <div class="col-md-6 border p-1 my-2">\\n                <h4 class="">Chegada da Cobran\\xc3\\xa7a</h4>\\n                <ul class="list-group">\\n                    <li class="border-0 list-group-item d-flex justify-content-between align-items-center">\\n                        Contar Fichas Juntamente com o Cobrador<br />\\n                        <i class="fa fa-sign-out text-muted fa-lg"></i>\\n                    </li>\\n                    <li class="border-0 list-group-item d-flex justify-content-between align-items-center">\\n                        Finalizar Cobran\\xc3\\xa7a (Bloquear Cobrador)<br />\\n                        <i class="fa fa-sign-out text-muted fa-lg"></i>\\n                    </li>\\n                    <li class="border-0 list-group-item d-flex justify-content-between align-items-center">\\n                        Separar Fichas por Vendedor e por Tipo<br />\\n                        <i class="fa fa-sign-out text-muted fa-lg"></i>\\n                    </li>\\n                    <li class="border-0 list-group-item d-flex justify-content-between align-items-center">\\n                        Alocar Valores no Sistema<br />\\n                        <i class="fa fa-sign-out text-muted fa-lg"></i>\\n                    </li>\\n                    <li class="border-0 list-group-item d-flex justify-content-between align-items-center">\\n                        Retirar as Entradas das Fichas Quitadas<br />\\n                        <i class="fa fa-sign-out text-muted fa-lg"></i>\\n                    </li>\\n                    <li class="border-0 list-group-item d-flex justify-content-between align-items-center">\\n                        Separar e Conferir Despesas<br />\\n                        <i class="fa fa-sign-out text-muted fa-lg"></i>\\n                    </li>\\n                    <li class="border-0 list-group-item d-flex justify-content-between align-items-center">\\n                        Separar e Conferir Depositos<br />\\n                        <i class="fa fa-sign-out text-muted fa-lg"></i>\\n                    </li>\\n                    <li class="border-0 list-group-item d-flex justify-content-between align-items-center">\\n                        Registrar as Devolu\\xc3\\xa7\\xc3\\xb5es (Romaneio)<br />\\n                        <i class="fa fa-sign-out text-muted fa-lg"></i>\\n                    </li>\\n                    <li class="border-0 list-group-item d-flex justify-content-between align-items-center">\\n                        Contabilizar nas Fichas Devolu\\xc3\\xa7\\xc3\\xb5es<br />\\n                        <i class="fa fa-sign-out text-muted fa-lg"></i>\\n                    </li>\\n                    <li class="border-0 list-group-item d-flex justify-content-between align-items-center">\\n                      Ajustar Relatorio de Quita\\xc3\\xa7\\xc3\\xa3o\\n                        <i class="fa fa-sign-out text-muted fa-lg"></i>\\n                  </li>\\n                </ul>\\n            </div>\\n        </div>\\n        <div class="row">\\n            <div class="col-md-6 border p-1 my-2">\\n                <h4 class="">Impress\\xc3\\xb5es da Venda</h4>\\n                <ul class="list-group">\\n                    <li class="border-0 list-group-item d-flex justify-content-between align-items-center">\\n                        Carradas e Mercadoria<br />\\n                        <i class="fa fa-sign-out text-muted fa-lg"></i>\\n                    </li>\\n                    <li class="border-0 list-group-item d-flex justify-content-between align-items-center">\\n                        Adiantamento de Dinheiro e Vales do Chefe<br />\\n                        <i class="fa fa-sign-out text-muted fa-lg"></i>\\n                    </li>\\n                    <li class="border-0 list-group-item d-flex justify-content-between align-items-center">\\n                        Funcionarios e Equipe de Vendas<br />\\n                        <i class="fa fa-sign-out text-muted fa-lg"></i>\\n                    </li>\\n                    <li class="border-0 list-group-item d-flex justify-content-between align-items-center">\\n                        Venda \\xc3\\xa0 Vista<br />\\n                        <i class="fa fa-sign-out text-muted fa-lg"></i>\\n                    </li>\\n                    <li class="border-0 list-group-item d-flex justify-content-between align-items-center">\\n                        Despesa da Venda e Despesa Local<br />\\n                        <i class="fa fa-sign-out text-muted fa-lg"></i>\\n                    </li>\\n                    <li class="border-0 list-group-item d-flex justify-content-between align-items-center">\\n                        Presta\\xc3\\xa7\\xc3\\xa3o de Contas da Venda<br />\\n                        <i class="fa fa-sign-out text-muted fa-lg"></i>\\n                    </li>\\n                    <li class="border-0 list-group-item d-flex justify-content-between align-items-center">\\n                        Rela\\xc3\\xa7\\xc3\\xa3o Individual (Vendadores)<br />\\n                        <i class="fa fa-sign-out text-muted fa-lg"></i>\\n                    </li>\\n                    <li class="border-0 list-group-item d-flex justify-content-between align-items-center">\\n                        Relatorio de Investimentos<br />\\n                        <i class="fa fa-sign-out text-muted fa-lg"></i>\\n                    </li>\\n                    <li class="border-0 list-group-item d-flex justify-content-between align-items-center">\\n                        Lista de Cheques<br />\\n                        <i class="fa fa-sign-out text-muted fa-lg"></i>\\n                    </li>\\n                    <li class="border-0 list-group-item d-flex justify-content-between align-items-center">\\n                        Lista de Transportes<br />\\n                        <i class="fa fa-sign-out text-muted fa-lg"></i>\\n                    </li>\\n                </ul>\\n            </div>\\n            <div class="col-md-6 border p-1 my-2">\\n                <h4 class="">Impress\\xc3\\xb5es da Cobran\\xc3\\xa7a</h4>\\n                <ul class="list-group">\\n                    <li class="border-0 list-group-item d-flex justify-content-between align-items-center">\\n                        Devolu\\xc3\\xa7\\xc3\\xb5es da Cobran\\xc3\\xa7a<br />\\n                        <i class="fa fa-sign-out text-muted fa-lg"></i>\\n                    </li>\\n                    <li class="border-0 list-group-item d-flex justify-content-between align-items-center">\\n                        Aloca\\xc3\\xa7\\xc3\\xa3o de Valores (Vendedores)<br />\\n                        <i class="fa fa-sign-out text-muted fa-lg"></i>\\n                    </li>\\n                    <li class="border-0 list-group-item d-flex justify-content-between align-items-center">\\n                        Relatorio de An\\xc3\\xa1lise<br />\\n                        <i class="fa fa-sign-out text-muted fa-lg"></i>\\n                    </li>\\n                    <li class="border-0 list-group-item d-flex justify-content-between align-items-center">\\n                        Lista Recebimentos<br />\\n                        <i class="fa fa-sign-out text-muted fa-lg"></i>\\n                    </li>\\n                    <li class="border-0 list-group-item d-flex justify-content-between align-items-center">\\n                        Lista Depositos<br />\\n                        <i class="fa fa-sign-out text-muted fa-lg"></i>\\n                    </li>\\n                    <li class="border-0 list-group-item d-flex justify-content-between align-items-center">\\n                        Lista Despesas<br />\\n                        <i class="fa fa-sign-out text-muted fa-lg"></i>\\n                    </li>\\n                    <li class="border-0 list-group-item d-flex justify-content-between align-items-center">\\n                        Lista Vales de Caderno<br />\\n                        <i class="fa fa-sign-out text-muted fa-lg"></i>\\n                    </li>\\n                    <li class="border-0 list-group-item d-flex justify-content-between align-items-center">\\n                        Presta\\xc3\\xa7\\xc3\\xa3o da Cobran\\xc3\\xa7a<br />\\n                        <i class="fa fa-sign-out text-muted fa-lg"></i>\\n                    </li>\\n                    <li class="border-0 list-group-item d-flex justify-content-between align-items-center">\\n                        Rela\\xc3\\xa7\\xc3\\xa3o Individual Vendedores<br />\\n                        <i class="fa fa-sign-out text-muted fa-lg"></i>\\n                    </li>\\n                    <li class="border-0 list-group-item d-flex justify-content-between align-items-center">\\n                        Relatorio de Quita\\xc3\\xa7\\xc3\\xa3o<br />\\n                        <i class="fa fa-sign-out text-muted fa-lg"></i>\\n                    </li>\\n                </ul>\\n            </div>\\n        </div>\\n        <div class="row">\\n            <div class="col-md-6 border p-1 my-2">\\n                <h4 class="">Organiza\\xc3\\xa7\\xc3\\xa3o Extra</h4>\\n                <ul class="list-group">\\n                    <li class="border-0 list-group-item d-flex justify-content-between align-items-center">\\n                        Separar Fichas de Repasse<br />\\n                        <i class="fa fa-sign-out text-muted fa-lg"></i>\\n                    </li>\\n                    <li class="border-0 list-group-item d-flex justify-content-between align-items-center">\\n                        Cadastro de Vendedores, Chefes e Cobradores<br />\\n                        <i class="fa fa-sign-out text-muted fa-lg"></i>\\n                    </li>\\n                    <li class="border-0 list-group-item d-flex justify-content-between align-items-center">\\n                        Recolhimentos de Devolu\\xc3\\xa7\\xc3\\xb5es<br />\\n                        <i class="fa fa-sign-out text-muted fa-lg"></i>\\n                    </li>\\n                    <li class="border-0 list-group-item d-flex justify-content-between align-items-center" >\\n                      Cadastro de Despesas Desvinculadas\\n                        <i class="fa fa-sign-out text-muted fa-lg"></i>\\n                  </li>\\n                </ul>\\n            </div>\\n            <div class="col-md-6 border p-1 my-2">\\n                <h4 class="">Impress\\xc3\\xb5es da Cobran\\xc3\\xa7a</h4>\\n                <ul class="list-group">\\n                    <li class="border-0 list-group-item d-flex justify-content-between align-items-center">\\n                        Verificar Relatorio Investimento<br />\\n                        <i class="fa fa-sign-out text-muted fa-lg"></i>\\n                    </li>\\n                    <li class="border-0 list-group-item d-flex justify-content-between align-items-center">\\n                        Mapear Despesas Recorrentes<br />\\n                        <i class="fa fa-sign-out text-muted fa-lg"></i>\\n                    </li>\\n                    <li class="border-0 list-group-item d-flex justify-content-between align-items-center">\\n                        Classificar Vendedores Bons ou N\\xc3\\xa3o<br />\\n                        <i class="fa fa-sign-out text-muted fa-lg"></i>\\n                    </li>\\n                    <li class="border-0 list-group-item d-flex justify-content-between align-items-center">\\n                        Classificar Cobradores Bons ou N\\xc3\\xa3o<br />\\n                        <i class="fa fa-sign-out text-muted fa-lg"></i>\\n                    </li>\\n                </ul>\\n            </div>\\n        </div>\\n    </div>\\n</div>\\n\', escape=False)'
p105
sI133
S"response.write('\\n      ', escape=False)"
p106
sI134
S"response.write(response.toolbar() if response.show_toolbar else '')"
p107
sI135
S"response.write('\\n    </div>\\n    ', escape=False)"
p108
sI136
S'response.write(\' <!-- this is default footer -->\\n    <footer id="noprint" class="footer container-fluid ">\\n      <div class="row">\\n        <div class="col-md-12">\\n          <div class="copyright pull-left">\', escape=False)'
p109
sI137
S"response.write(T('Copyright'))"
p110
sI138
S"response.write(' &#169; ', escape=False)"
p111
sI139
S'response.write(request.now.year)'
p112
sI140
S'response.write(\'</div>\\n          <div id="poweredBy" class="pull-right">\\n              Suporte <a href="https://api.whatsapp.com/send?phone=5588981126816">(88)98112-6816</a>\\n            </div>\\n        </div>\\n      </div>\\n    </footer>\\n <footer class="footer container-fluid d-none d-print-block">\\n      <div class="row">\\n        <div class="col-md-12">\\n          <div class="copyright pull-left">Suporte - (88)98112-6816</div>\\n          <div id="poweredBy" class="pull-right">\\n             \', escape=False)'
p113
sI141
S'if auth.user:'
p114
sI122
S'            pass'
p115
sI123
S"        response.write('\\n              ', escape=False)"
p116
sI124
S'        pass'
p117
sI125
S"    response.write('\\n            </div>\\n          </li>\\n        </ul>\\n        ', escape=False)"
p118
sI126
S'    pass'
p119
sI127
S"response.write('\\n      </div>\\n    </nav>\\n\\n    <!-- Masthead ===================================== -->\\n    ', escape=False)"
p120
ssg85
S'()'
p121
sg87
S'<module>'
p122
sasS'pyver'
p123
S'Python 2.7.12: /usr/local/bin/uwsgi (prefix: /usr)'
p124
sS'session'
p125
g59
(S's\xf0\t\x00\x00<div><table><tr><td style="font-weight:bold;vertical-align:top;">auth</td><td style="vertical-align:top;">:</td><td><div><table><tr><td style="font-weight:bold;vertical-align:top;">expiration</td><td style="vertical-align:top;">:</td><td><div>2592000</div></td></tr><tr><td style="font-weight:bold;vertical-align:top;">hmac_key</td><td style="vertical-align:top;">:</td><td><div>7d67ae42-9594-4166-9405-c2fef293e476</div></td></tr><tr><td style="font-weight:bold;vertical-align:top;">last_visit</td><td style="vertical-align:top;">:</td><td><div>datetime.datetime(2021, 7, 5, 5, 52, 35, 876989)</div></td></tr><tr><td style="font-weight:bold;vertical-align:top;">remember_me</td><td style="vertical-align:top;">:</td><td><div>True</div></td></tr><tr><td style="font-weight:bold;vertical-align:top;">user</td><td style="vertical-align:top;">:</td><td><div><table><tr><td style="font-weight:bold;vertical-align:top;">email</td><td style="vertical-align:top;">:</td><td><div>betin@gmail.com</div></td></tr><tr><td style="font-weight:bold;vertical-align:top;">first_name</td><td style="vertical-align:top;">:</td><td><div>Rogoberto</div></td></tr><tr><td style="font-weight:bold;vertical-align:top;">id</td><td style="vertical-align:top;">:</td><td><div>1L</div></td></tr><tr><td style="font-weight:bold;vertical-align:top;">last_name</td><td style="vertical-align:top;">:</td><td><div>Ribeiro</div></td></tr><tr><td style="font-weight:bold;vertical-align:top;">registration_id</td><td style="vertical-align:top;">:</td><td><div></div></td></tr><tr><td style="font-weight:bold;vertical-align:top;">registration_key</td><td style="vertical-align:top;">:</td><td><div></div></td></tr><tr><td style="font-weight:bold;vertical-align:top;">reset_password_key</td><td style="vertical-align:top;">:</td><td><div></div></td></tr></table></div></td></tr><tr><td style="font-weight:bold;vertical-align:top;">user_groups</td><td style="vertical-align:top;">:</td><td><div><table><tr><td style="font-weight:bold;vertical-align:top;">1</td><td style="vertical-align:top;">:</td><td><div>user_1</div></td></tr><tr><td style="font-weight:bold;vertical-align:top;">2</td><td style="vertical-align:top;">:</td><td><div>admin</div></td></tr><tr><td style="font-weight:bold;vertical-align:top;">3</td><td style="vertical-align:top;">:</td><td><div>wiki_editor</div></td></tr></table></div></td></tr></table></div></td></tr><tr><td style="font-weight:bold;vertical-align:top;">flash</td><td style="vertical-align:top;">:</td><td><div>None</div></td></tr></table></div>'
tRp126
sS'etype'
p127
S"<type 'exceptions.NameError'>"
p128
sS'date'
p129
S'Sat Jul 10 04:33:43 2021'
p130
sS'response'
p131
g59
(S's\xc5 \x00\x00<div><table><tr><td style="font-weight:bold;vertical-align:top;">body</td><td style="vertical-align:top;">:</td><td><div>&lt;cStringIO.StringO object at 0x7f6f408fa420&gt;</div></td></tr><tr><td style="font-weight:bold;vertical-align:top;">cookies</td><td style="vertical-align:top;">:</td><td><div><table><tr><td style="font-weight:bold;vertical-align:top;">session_id_aluminum</td><td style="vertical-align:top;">:</td><td><div>191.212.144.51-24616db9-0b73-4e6c-9979-71492a58f15d<table><tr><td style="font-weight:bold;vertical-align:top;">comment</td><td style="vertical-align:top;">:</td><td><div></div></td></tr><tr><td style="font-weight:bold;vertical-align:top;">domain</td><td style="vertical-align:top;">:</td><td><div></div></td></tr><tr><td style="font-weight:bold;vertical-align:top;">expires</td><td style="vertical-align:top;">:</td><td><div></div></td></tr><tr><td style="font-weight:bold;vertical-align:top;">httponly</td><td style="vertical-align:top;">:</td><td><div></div></td></tr><tr><td style="font-weight:bold;vertical-align:top;">max-age</td><td style="vertical-align:top;">:</td><td><div></div></td></tr><tr><td style="font-weight:bold;vertical-align:top;">path</td><td style="vertical-align:top;">:</td><td><div>/</div></td></tr><tr><td style="font-weight:bold;vertical-align:top;">secure</td><td style="vertical-align:top;">:</td><td><div></div></td></tr><tr><td style="font-weight:bold;vertical-align:top;">version</td><td style="vertical-align:top;">:</td><td><div></div></td></tr></table></div></td></tr></table></div></td></tr><tr><td style="font-weight:bold;vertical-align:top;">delimiters</td><td style="vertical-align:top;">:</td><td><div><table><tr><td><div>{{</div></td></tr><tr><td><div>}}</div></td></tr></table></div></td></tr><tr><td style="font-weight:bold;vertical-align:top;">files</td><td style="vertical-align:top;">:</td><td><div><table><tr><td><div>/aluminum/static/js/jquery.js</div></td></tr><tr><td><div>/aluminum/static/css/calendar.css</div></td></tr><tr><td><div>/aluminum/static/js/calendar.js</div></td></tr><tr><td><div>/aluminum/static/js/web2py.js</div></td></tr></table></div></td></tr><tr><td style="font-weight:bold;vertical-align:top;">flash</td><td style="vertical-align:top;">:</td><td><div></div></td></tr><tr><td style="font-weight:bold;vertical-align:top;">form_label_separator</td><td style="vertical-align:top;">:</td><td><div></div></td></tr><tr><td style="font-weight:bold;vertical-align:top;">formstyle</td><td style="vertical-align:top;">:</td><td><div>bootstrap4_inline</div></td></tr><tr><td style="font-weight:bold;vertical-align:top;">generic_patterns</td><td style="vertical-align:top;">:</td><td><div><table></table></div></td></tr><tr><td style="font-weight:bold;vertical-align:top;">google_analytics_id</td><td style="vertical-align:top;">:</td><td><div>None</div></td></tr><tr><td style="font-weight:bold;vertical-align:top;">headers</td><td style="vertical-align:top;">:</td><td><div><table><tr><td style="font-weight:bold;vertical-align:top;">X-Powered-By</td><td style="vertical-align:top;">:</td><td><div>web2py</div></td></tr></table></div></td></tr><tr><td style="font-weight:bold;vertical-align:top;">menu</td><td style="vertical-align:top;">:</td><td><div><table><tr><td><div><table><tr><td><div>Principal</div></td></tr><tr><td><div>False</div></td></tr><tr><td><div>/aluminum</div></td></tr><tr><td><div><table></table></div></td></tr></table></div></td></tr><tr><td><div><table><tr><td><div>Empresa</div></td></tr><tr><td><div>False</div></td></tr><tr><td><div>/aluminum/acs_principal</div></td></tr><tr><td><div><table></table></div></td></tr></table></div></td></tr><tr><td><div><table><tr><td><div>Projetos</div></td></tr><tr><td><div>False</div></td></tr><tr><td><div>/aluminum/acs_principal/lista_projetos</div></td></tr><tr><td><div><table></table></div></td></tr></table></div></td></tr><tr><td><div><table><tr><td><div>Cobran\xc3\xa7as</div></td></tr><tr><td><div>False</div></td></tr><tr><td><div>/aluminum/acs_principal/lista_cobrancas</div></td></tr><tr><td><div><table></table></div></td></tr></table></div></td></tr><tr><td><div><table><tr><td><div>Usuarios</div></td></tr><tr><td><div>False</div></td></tr><tr><td><div>/aluminum/acs_principal/lista_logins</div></td></tr><tr><td><div><table></table></div></td></tr></table></div></td></tr></table></div></td></tr><tr><td style="font-weight:bold;vertical-align:top;">meta</td><td style="vertical-align:top;">:</td><td><div><table><tr><td style="font-weight:bold;vertical-align:top;">author</td><td style="vertical-align:top;">:</td><td><div>Your Name &lt;you@example.com&gt;</div></td></tr><tr><td style="font-weight:bold;vertical-align:top;">description</td><td style="vertical-align:top;">:</td><td><div>Controle suas venda e cobrancas.</div></td></tr><tr><td style="font-weight:bold;vertical-align:top;">generator</td><td style="vertical-align:top;">:</td><td><div>Web2py Web Framework</div></td></tr><tr><td style="font-weight:bold;vertical-align:top;">keywords</td><td style="vertical-align:top;">:</td><td><div><table><tr><td><div>web2py</div></td></tr><tr><td><div>python</div></td></tr><tr><td><div>framework</div></td></tr></table></div></td></tr></table></div></td></tr><tr><td style="font-weight:bold;vertical-align:top;">models_to_run</td><td style="vertical-align:top;">:</td><td><div><table><tr><td><div>^\\w+\\.py$</div></td></tr><tr><td><div>^acs_relatorio/\\w+\\.py$</div></td></tr><tr><td><div>^acs_relatorio/mapeamanto_administrativo/\\w+\\.py$</div></td></tr></table></div></td></tr><tr><td style="font-weight:bold;vertical-align:top;">postprocessing</td><td style="vertical-align:top;">:</td><td><div><table></table></div></td></tr><tr><td style="font-weight:bold;vertical-align:top;">session_client</td><td style="vertical-align:top;">:</td><td><div>191.212.144.51</div></td></tr><tr><td style="font-weight:bold;vertical-align:top;">session_cookie_compression_level</td><td style="vertical-align:top;">:</td><td><div>None</div></td></tr><tr><td style="font-weight:bold;vertical-align:top;">session_cookie_expires</td><td style="vertical-align:top;">:</td><td><div>2592000</div></td></tr><tr><td style="font-weight:bold;vertical-align:top;">session_data_name</td><td style="vertical-align:top;">:</td><td><div>session_data_aluminum</div></td></tr><tr><td style="font-weight:bold;vertical-align:top;">session_file</td><td style="vertical-align:top;">:</td><td><div>&lt;open file &#x27;/home/rogoberto/web2py/applications/aluminum/sessions/002/01b/191.212.144.51-24616db9-0b73-4e6c-9979-71492a58f15d&#x27;, mode &#x27;rb+&#x27; at 0x7f6f40d7c930&gt;</div></td></tr><tr><td style="font-weight:bold;vertical-align:top;">session_filename</td><td style="vertical-align:top;">:</td><td><div>/home/rogoberto/web2py/applications/aluminum/sessions/191.212.144.51-24616db9-0b73-4e6c-9979-71492a58f15d</div></td></tr><tr><td style="font-weight:bold;vertical-align:top;">session_hash</td><td style="vertical-align:top;">:</td><td><div>05a6eb4d23ad2c887033a3a5afc9b2b9</div></td></tr><tr><td style="font-weight:bold;vertical-align:top;">session_id</td><td style="vertical-align:top;">:</td><td><div>191.212.144.51-24616db9-0b73-4e6c-9979-71492a58f15d</div></td></tr><tr><td style="font-weight:bold;vertical-align:top;">session_id_name</td><td style="vertical-align:top;">:</td><td><div>session_id_aluminum</div></td></tr><tr><td style="font-weight:bold;vertical-align:top;">session_locked</td><td style="vertical-align:top;">:</td><td><div>True</div></td></tr><tr><td style="font-weight:bold;vertical-align:top;">session_masterapp</td><td style="vertical-align:top;">:</td><td><div>aluminum</div></td></tr><tr><td style="font-weight:bold;vertical-align:top;">session_new</td><td style="vertical-align:top;">:</td><td><div>False</div></td></tr><tr><td style="font-weight:bold;vertical-align:top;">session_storage_type</td><td style="vertical-align:top;">:</td><td><div>file</div></td></tr><tr><td style="font-weight:bold;vertical-align:top;">show_toolbar</td><td style="vertical-align:top;">:</td><td><div>False</div></td></tr><tr><td style="font-weight:bold;vertical-align:top;">status</td><td style="vertical-align:top;">:</td><td><div>200</div></td></tr><tr><td style="font-weight:bold;vertical-align:top;">view</td><td style="vertical-align:top;">:</td><td><div>acs_relatorio/mapeamanto_administrativo.html</div></td></tr></table></div>'
tRp132
sS'locals'
p133
(dp134
S'PY2'
p135
S'True'
p136
sS'OBJECT'
p137
S"<class 'gluon.html.OBJECT'>"
p138
sS'SQLDB'
p139
S"<class 'pydal.base.DAL'>"
p140
sg125
S"<Storage {'_formkey[item_carrada/2456]': ['ca524...461]': ['43e0a9d1-75e1-48ee-82d6-e13ec1ea7747']}>"
p141
sS'LINK'
p142
S"<class 'gluon.html.LINK'>"
p143
sS'BR'
p144
S"<class 'gluon.html.BR'>"
p145
sS'local_import'
p146
S'<function <lambda>>'
p147
sS'OPTGROUP'
p148
S"<class 'gluon.html.OPTGROUP'>"
p149
sS'__package__'
p150
S'None'
p151
sS'PRE'
p152
S"<class 'gluon.html.PRE'>"
p153
sS'IS_INT_IN_RANGE'
p154
S"<class 'gluon.validators.IS_INT_IN_RANGE'>"
p155
sS'to_bytes'
p156
S'<function to_bytes>'
p157
sS'IS_LOWER'
p158
S"<class 'gluon.validators.IS_LOWER'>"
p159
sS'IS_STRONG'
p160
S"<class 'gluon.validators.IS_STRONG'>"
p161
sS'cache'
p162
S'<gluon.cache.Cache object>'
p163
sS'IS_IN_DB'
p164
S"<class 'gluon.validators.IS_IN_DB'>"
p165
sS'TAG'
p166
S'<gluon.html.__TAG__ object>'
p167
sS'SQLField'
p168
S"<class 'pydal.objects.Field'>"
p169
sS'mail'
p170
S'<gluon.tools.Mail object>'
p171
sS'BODY'
p172
S"<class 'gluon.html.BODY'>"
p173
sS'IS_DATE_IN_RANGE'
p174
S"<class 'gluon.validators.IS_DATE_IN_RANGE'>"
p175
sS'IFRAME'
p176
S"<class 'gluon.html.IFRAME'>"
p177
sS'URL'
p178
S'<function URL>'
p179
sS'__file__'
p180
S"'/home/rogoberto/web2py/applications/aluminum/views/acs_relatorio/mapeamanto_administrativo.html'"
p181
sS'db'
p182
S'<DAL uri="sqlite://storage.sqlite">'
p183
sS'auth'
p184
S'<gluon.tools.Auth object>'
p185
sS'P'
S"<class 'gluon.html.P'>"
p186
sS'TFOOT'
p187
S"<class 'gluon.html.TFOOT'>"
p188
sS'iteritems'
p189
S'<function <lambda>>'
p190
sS'XHTML'
p191
S"<class 'gluon.html.XHTML'>"
p192
sS'datetime'
p193
S"<module 'datetime' (built-in)>"
p194
sS'ON'
p195
g136
sS'OL'
p196
S"<class 'gluon.html.OL'>"
p197
sS'TEXTAREA'
p198
S"<class 'gluon.html.TEXTAREA'>"
p199
sS'MENU'
p200
S"<class 'gluon.html.MENU'>"
p201
sS'IS_IMAGE'
p202
S"<class 'gluon.validators.IS_IMAGE'>"
p203
sS'EM'
p204
S"<class 'gluon.html.EM'>"
p205
sS'CODE'
p206
S"<class 'gluon.html.CODE'>"
p207
sS'HTTP'
p208
S"<class 'gluon.http.HTTP'>"
p209
sS'HR'
p210
S"<class 'gluon.html.HR'>"
p211
sS'IS_DATETIME'
p212
S"<class 'gluon.validators.IS_DATETIME'>"
p213
sS'reduce'
p214
S'<built-in function reduce>'
p215
sS'STYLE'
p216
S"<class 'gluon.html.STYLE'>"
p217
sS'LABEL'
p218
S"<class 'gluon.html.LABEL'>"
p219
sS'CLEANUP'
p220
S"<class 'gluon.validators.CLEANUP'>"
p221
sS'SELECT'
p222
S"<class 'gluon.html.SELECT'>"
p223
sS'CENTER'
p224
S"<class 'gluon.html.CENTER'>"
p225
sS'Auth'
p226
S"<class 'gluon.tools.Auth'>"
p227
sS'urlopen'
p228
S'<function urlopen>'
p229
sS'HTML'
p230
S"<class 'gluon.html.HTML'>"
p231
sS'SQLFORM'
p232
S"<class 'gluon.sqlhtml.SQLFORM'>"
p233
sS'_item'
p234
S"(<lazyT 'Usuarios'>, False, '/aluminum/acs_principal/lista_logins', [])"
p235
sS'LOAD'
p236
S'<function LOAD>'
p237
sS'redirect'
p238
S'<function redirect>'
p239
sS'FIELDSET'
p240
S"<class 'gluon.html.FIELDSET'>"
p241
sS'IS_EQUAL_TO'
p242
S"<class 'gluon.validators.IS_EQUAL_TO'>"
p243
sS'embed64'
p244
S'<function embed64>'
p245
sS'IS_LIST_OF'
p246
S"<class 'gluon.validators.IS_LIST_OF'>"
p247
sS'INPUT'
p248
S"<class 'gluon.html.INPUT'>"
p249
sS'EMBED'
p250
S"<class 'gluon.html.EMBED'>"
p251
sS'configuration'
p252
S"{'host': {'names': 'localhost:*, 127.0.0.1:*, *:...': 'sqlite://storage.sqlite', 'pool_size': '10'}}"
p253
sS'H2'
p254
S"<class 'gluon.html.H2'>"
p255
sS'H3'
p256
S"<class 'gluon.html.H3'>"
p257
sS'AppConfig'
p258
S'<function AppConfig>'
p259
sS'H1'
p260
S"<class 'gluon.html.H1'>"
p261
sS'H6'
p262
S"<class 'gluon.html.H6'>"
p263
sS'H4'
p264
S"<class 'gluon.html.H4'>"
p265
sS'H5'
p266
S"<class 'gluon.html.H5'>"
p267
sS'UL'
p268
S"<class 'gluon.html.UL'>"
p269
sS'IS_UPPER'
p270
S"<class 'gluon.validators.IS_UPPER'>"
p271
sS'xmlescape'
p272
S'<function xmlescape>'
p273
sS'IS_TIME'
p274
S"<class 'gluon.validators.IS_TIME'>"
p275
sS'OPTION'
p276
S"<class 'gluon.html.OPTION'>"
p277
sS'TITLE'
p278
S"<class 'gluon.html.TITLE'>"
p279
sS'CRYPT'
p280
S"<class 'gluon.validators.CRYPT'>"
p281
sS'IS_EMPTY_OR'
p282
S"<class 'gluon.validators.IS_EMPTY_OR'>"
p283
sS'MARKMIN'
p284
S"<class 'gluon.html.MARKMIN'>"
p285
sS'__name__'
p286
S"'__restricted__'"
p287
sS'STRONG'
p288
S"<class 'gluon.html.STRONG'>"
p289
sS'COL'
p290
S"<class 'gluon.html.COL'>"
p291
sS'__builtins__'
p292
S"{'ArithmeticError': <type 'exceptions.ArithmeticError'>, 'AssertionError': <type 'exceptions.AssertionError'>, 'AttributeError': <type 'exceptions.AttributeError'>, 'BaseException': <type 'exceptions.BaseException'>, 'BufferError': <type 'exceptions.BufferError'>, 'BytesWarning': <type 'exceptions.BytesWarning'>, 'DeprecationWarning': <type 'exceptions.DeprecationWarning'>, 'EOFError': <type 'exceptions.EOFError'>, 'Ellipsis': Ellipsis, 'EnvironmentError': <type 'exceptions.EnvironmentError'>, ...}"
p293
sS'SCRIPT'
p294
S"<class 'gluon.html.SCRIPT'>"
p295
sS'TABLE'
p296
S"<class 'gluon.html.TABLE'>"
p297
sS'IS_IPV4'
p298
S"<class 'gluon.validators.IS_IPV4'>"
p299
sS'IS_LENGTH'
p300
S"<class 'gluon.validators.IS_LENGTH'>"
p301
sS'IS_IPV6'
p302
S"<class 'gluon.validators.IS_IPV6'>"
p303
sS'XML'
p304
S"<class 'gluon.html.XML'>"
p305
sS'B'
S"<class 'gluon.html.B'>"
p306
sS'IMG'
p307
S"<class 'gluon.html.IMG'>"
p308
sS'SQLTABLE'
p309
S"<class 'gluon.sqlhtml.SQLTABLE'>"
p310
sS'IS_MATCH'
p311
S"<class 'gluon.validators.IS_MATCH'>"
p312
sS'IS_ALPHANUMERIC'
p313
S"<class 'gluon.validators.IS_ALPHANUMERIC'>"
p314
sS'SPAN'
p315
S"<class 'gluon.html.SPAN'>"
p316
sS'IS_JSON'
p317
S"<class 'gluon.validators.IS_JSON'>"
p318
sS'IS_IPADDRESS'
p319
S"<class 'gluon.validators.IS_IPADDRESS'>"
p320
sS'IS_SLUG'
p321
S"<class 'gluon.validators.IS_SLUG'>"
p322
sS'BEAUTIFY'
p323
S"<class 'gluon.html.BEAUTIFY'>"
p324
sS'META'
p325
S"<class 'gluon.html.META'>"
p326
sS'BUTTON'
p327
S"<class 'gluon.html.BUTTON'>"
p328
sS'IS_DATE'
p329
S"<class 'gluon.validators.IS_DATE'>"
p330
sS'IS_EMAIL'
p331
S"<class 'gluon.validators.IS_EMAIL'>"
p332
sS'IS_NOT_EMPTY'
p333
S"<class 'gluon.validators.IS_NOT_EMPTY'>"
p334
sS'xrange'
p335
S"<type 'xrange'>"
p336
sS'TBODY'
p337
S"<class 'gluon.html.TBODY'>"
p338
sS'CAT'
p339
S"<class 'gluon.html.CAT'>"
p340
sS'Field'
p341
S"<class 'pydal.objects.Field'>"
p342
sS'IS_LIST_OF_EMAILS'
p343
S"<class 'gluon.validators.IS_LIST_OF_EMAILS'>"
p344
sg58
S"<Storage {'_vars': None, 'function': 'mapeamanto...web2py/applications/aluminum/', 'method': 'GET'}>"
p345
sS'DIV'
p346
S"<class 'gluon.html.DIV'>"
p347
sS'LEGEND'
p348
S"<class 'gluon.html.LEGEND'>"
p349
sS'to_native'
p350
S'<function to_native>'
p351
sS'COLGROUP'
p352
S"<class 'gluon.html.COLGROUP'>"
p353
sS'DAL'
p354
S"<class 'pydal.base.DAL'>"
p355
sS'ASSIGNJS'
p356
S'<function ASSIGNJS>'
p357
sS'TR'
p358
S"<class 'gluon.html.TR'>"
p359
sS'LI'
p360
S"<class 'gluon.html.LI'>"
p361
sS'TH'
p362
S"<class 'gluon.html.TH'>"
p363
sS'TD'
p364
S"<class 'gluon.html.TD'>"
p365
sS'IS_URL'
p366
S"<class 'gluon.validators.IS_URL'>"
p367
sS'A'
S"<class 'gluon.html.A'>"
p368
sS'HEAD'
p369
S"<class 'gluon.html.HEAD'>"
p370
sS'IS_DATETIME_IN_RANGE'
p371
S"<class 'gluon.validators.IS_DATETIME_IN_RANGE'>"
p372
sS'FORM'
p373
S"<class 'gluon.html.FORM'>"
p374
sS'I'
S"<class 'gluon.html.I'>"
p375
sS'Request'
p376
S'<class urllib2.Request>'
p377
sS'IS_NOT_IN_DB'
p378
S"<class 'gluon.validators.IS_NOT_IN_DB'>"
p379
sg131
S"<Storage {'body': <cStringIO.StringO object at 0... 'acs_relatorio/mapeamanto_administrativo.html'}>"
p380
sS'THEAD'
p381
S"<class 'gluon.html.THEAD'>"
p382
sS'ANY_OF'
p383
S"<class 'gluon.validators.ANY_OF'>"
p384
sS'IS_NULL_OR'
p385
S"<class 'gluon.validators.IS_EMPTY_OR'>"
p386
sS'IS_FLOAT_IN_RANGE'
p387
S"<class 'gluon.validators.IS_FLOAT_IN_RANGE'>"
p388
sS'IS_EXPR'
p389
S"<class 'gluon.validators.IS_EXPR'>"
p390
sS'T'
S'<gluon.languages.translator object>'
p391
sS'IS_IN_SET'
p392
S"<class 'gluon.validators.IS_IN_SET'>"
p393
sS'IS_UPLOAD_FILENAME'
p394
S"<class 'gluon.validators.IS_UPLOAD_FILENAME'>"
p395
sS'TT'
p396
S"<class 'gluon.html.TT'>"
p397
sS'IS_DECIMAL_IN_RANGE'
p398
S"<class 'gluon.validators.IS_DECIMAL_IN_RANGE'>"
p399
sssS'traceback'
p400
S'Traceback (most recent call last):\n  File "/home/rogoberto/web2py/gluon/restricted.py", line 219, in restricted\n    exec(ccode, environment)\n  File "/home/rogoberto/web2py/applications/aluminum/views/acs_relatorio/mapeamanto_administrativo.html", line 131, in <module>\n    Quant, Custos e Pre\xc3\xa7os da Mercadoria<br />\nNameError: name \'empresa\' is not defined\n'
p401
s.