(dp1
S'output'
p2
S"<type 'exceptions.AttributeError'> 'NoneType' object has no attribute 'id'"
p3
sS'layer'
p4
S'/home/rogoberto/web2py/applications/aluminum/views/projeto/investimento.html'
p5
sS'code'
p6
S'response.write(\'<!DOCTYPE html>\\n<!--[if (gt IE 9)|!(IE)]><!--> <html class="no-js" lang="\', escape=False)\nresponse.write(T.accepted_language or \'en\')\nresponse.write(\'"> <!--<![endif]-->\\n  <head>\\n    <meta charset="utf-8">\\n    <!-- www.phpied.com/conditional-comments-block-downloads/ -->\\n    <!-- Always force latest IE rendering engine\\n         (even in intranet) & Chrome Frame\\n         Remove this if you use the .htaccess -->\\n    <meta http-equiv="X-UA-Compatible" content="IE=edge\', escape=False)\nresponse.write(not request.is_local and \',chrome=1\' or \'\')\nresponse.write(\'">\\n    <!--  Mobile Viewport Fix\\n          j.mp/mobileviewport & davidbcalhoun.com/2010/viewport-metatag\\n          device-width: Occupy full width of the screen in its current orientation\\n          initial-scale = 1.0 retains dimensions instead of zooming out if page height > device height\\n          user-scalable = yes allows the user to zoom in -->\\n    <meta name="viewport" content="width=device-width, initial-scale=1.0">\\n       <title>Aluminum System</title>\\n    <!-- http://dev.w3.org/html5/markup/meta.name.html -->\\n    <meta name="application-name" content="sistema credi\\xc3\\xa1rio panela">\\n    <!-- Speaking of Google, don\\\'t forget to set your site up:\\n         http://google.com/webmasters -->\\n    <meta name="google-site-verification" content="peneleiro Juazeiro, panela credi\\xc3\\xa1rio, sistema panela">\\n    <!-- include stylesheets -->\\n    <link rel="stylesheet" href="https://cdnjs.cloudflare.com/ajax/libs/font-awesome/4.7.0/css/font-awesome.min.css"/>\\n    <link rel="stylesheet" href="\', escape=False)\nresponse.write(URL(\'static\',\'css/bootstrap.min.css\'))\nresponse.write(\'"/>\\n    <link rel="stylesheet" href="\', escape=False)\nresponse.write(URL(\'static\',\'css/web2py-bootstrap4.css\'))\nresponse.write(\'"/>\\n    <link rel="shortcut icon" href="\', escape=False)\nresponse.write(URL(\'static\',\'images/ico.ico\'))\nresponse.write(\'" type="image/x-icon">\\n    <link rel="apple-touch-icon" href="\', escape=False)\nresponse.write(URL(\'static\',\'images/ico.png\'))\nresponse.write(\'">\\n    <!-- All JavaScript at the bottom, except for Modernizr which enables\\n         HTML5 elements & feature detects -->\\n    <script src="\', escape=False)\nresponse.write(URL(\'static\',\'js/modernizr-2.8.3.min.js\'))\nresponse.write(\'"></script>\\n    <!-- Favicons -->\\n    \', escape=False)\nresponse.write(\'<script type="text/javascript"><!--\\n    // These variables are used by the web2py_ajax_init function in web2py_ajax.js (which is loaded below).\\n    \', escape=False)\nresponse.write(ASSIGNJS(\nw2p_ajax_confirm_message = T(\'Are you sure you want to delete this object?\'),\nw2p_ajax_disable_with_message = T(\'Working...\'),\nw2p_ajax_date_format = T(\'%Y-%m-%d\'),\nw2p_ajax_datetime_format = T(\'%Y-%m-%d %H:%M:%S\'),\najax_error_500 = T.M(\'An error occured, please [[reload %s]] the page\') % URL(args=request.args, vars=request.get_vars)\n))\nresponse.write(\'\\n    //--></script>\\n\', escape=False)\nresponse.files.insert(0,URL(\'static\',\'js/jquery.js\'))\nresponse.files.insert(1,URL(\'static\',\'css/calendar.css\'))\nresponse.files.insert(2,URL(\'static\',\'js/calendar.js\'))\nresponse.files.insert(3,URL(\'static\',\'js/web2py.js\'))\nresponse.include_meta()\nresponse.include_files()\nresponse.write(\'\\n\', escape=False)\nresponse.write(\' <!-- this includes jquery.js, calendar.js/.css and web2py.js -->\\n    \', escape=False)\nresponse.write(\'\\n  </head>\\n  <body>\\n    <div class="w2p_flash alert alert-dismissable">\', escape=False)\nresponse.write(response.flash or \'\')\nresponse.write(\'</div>\\n    <!-- Navbar ======================================= -->\\n    <nav class="navbar navbar-light navbar-expand-md bg-faded justify-content-center">\\n        <a class="navbar-brand" href="https://rogoberto.pythonanywhere.com/aluminum/#acesso">Aluminum</a>\\n       <button class="navbar-toggler" type="button" data-toggle="collapse" data-target="#navbarNavDropdown" aria-controls="navbarNavDropdown" aria-expanded="false" aria-label="Toggle navigation">\\n         <span class="navbar-toggler-icon"></span>\\n       </button>\\n       <div class="navbar-collapse collapse w-100" id="navbarNavDropdown">\\n         <ul class="navbar-nav w-100 justify-content-center">\\n          \', escape=False)\nfor _item in response.menu or []:\n    response.write(\'\\n          \', escape=False)\n    if len(_item)<4 or not _item[3]:\n        response.write(\'\\n          <li class="nav-item \', escape=False)\n        if _item[1]:\n            response.write(\'active\', escape=False)\n            pass\n        response.write(\'">\\n            <a class="nav-link" href="\', escape=False)\n        response.write(_item[2])\n        response.write(\'">\', escape=False)\n        response.write(_item[0])\n        response.write(\'</a>\\n          </li>\\n          \', escape=False)\n    else:\n        response.write(\'\\n          <li class="nav-item dropdown">\\n            <a class="nav-link dropdown-toggle" href="\', escape=False)\n        response.write(_item[2])\n        response.write(\'" data-toggle="dropdown" aria-haspopup="true" aria-expanded="false">\', escape=False)\n        response.write(_item[0])\n        response.write(\'</a>\\n            <div class="dropdown-menu">\\n              \', escape=False)\n        for _subitem in _item[3]:\n            response.write(\'\\n              <a class="dropdown-item" href="\', escape=False)\n            response.write(_subitem[2])\n            response.write(\'">\', escape=False)\n            response.write(_subitem[0])\n            response.write(\'</a>\\n              \', escape=False)\n            pass\n        response.write(\'\\n            </div>\\n          </li>\\n          \', escape=False)\n        pass\n    response.write(\'\\n          \', escape=False)\n    pass\nresponse.write(\'\\n        </ul>\\n\\n        \', escape=False)\nif \'auth\' in globals():\n    response.write(\'\\n        <ul class="nav navbar-nav ml-auto w-100 justify-content-end">\\n          <li class="nav-item dropdown">\\n            <a class="nav-link dropdown-toggle" href="#" data-toggle="dropdown" aria-haspopup="true" aria-expanded="false">\\n              \', escape=False)\n    if auth.user:\n        response.write(auth.user.first_name)\n    else:\n        response.write(\'LOGIN\', escape=False)\n        pass\n    response.write(\'\\n            </a>\\n            <div class="dropdown-menu dropdown-menu-right">\\n              \', escape=False)\n    if auth.user:\n        response.write(\'\\n              <a class="dropdown-item" href="\', escape=False)\n        response.write(URL(\'default\',\'user/profile\'))\n        response.write(\'">\', escape=False)\n        response.write(T(\'Profile\'))\n        response.write(\'</a>\\n              \', escape=False)\n        if \'change_password\' not in auth.settings.actions_disabled:\n            response.write(\'\\n              <a class="dropdown-item" href="\', escape=False)\n            response.write(URL(\'default\',\'user/change_password\'))\n            response.write(\'">\', escape=False)\n            response.write(T(\'Change Password\'))\n            response.write(\'</a>\\n              \', escape=False)\n            pass\n        response.write(\'\\n              <a class="dropdown-item" href="\', escape=False)\n        response.write(URL(\'default\',\'user/logout\'))\n        response.write(\'">\', escape=False)\n        response.write(T(\'Logout\'))\n        response.write(\'</a>\\n              \', escape=False)\n    else:\n        response.write(\'\\n              <a class="dropdown-item" href="\', escape=False)\n        response.write(URL(\'default\',\'user/login\'))\n        response.write(\'">\', escape=False)\n        response.write(T(\'Login\'))\n        response.write(\'</a>\\n              \', escape=False)\n        if \'register\' not in auth.settings.actions_disabled:\n            response.write(\'\\n              <a class="dropdown-item" href="\', escape=False)\n            response.write(URL(\'default\',\'user/register\'))\n            response.write(\'">\', escape=False)\n            response.write(T(\'Sign up\'))\n            response.write(\'</a>\\n              \', escape=False)\n            pass\n        response.write(\'\\n              \', escape=False)\n        if \'retrieve_password\' not in auth.settings.actions_disabled:\n            response.write(\'\\n              <a class="dropdown-item" href="\', escape=False)\n            response.write(URL(\'default\',\'user/retrieve_password\'))\n            response.write(\'">\', escape=False)\n            response.write(T(\'Lost Password\'))\n            response.write(\'</a>\\n              \', escape=False)\n            pass\n        response.write(\'\\n              \', escape=False)\n        pass\n    response.write(\'\\n            </div>\\n          </li>\\n        </ul>\\n        \', escape=False)\n    pass\nresponse.write(\'\\n      </div>\\n    </nav>\\n\\n    <!-- Masthead ===================================== -->\\n    \', escape=False)\nresponse.write(\'\\n    \', escape=False)\nresponse.write(\'\\n    <!-- Main ========================================= -->\\n    <!-- Begin page content -->\\n    <div class="container-fluid main-container">\\n      \', escape=False)\nresponse.write(\'\\n\\n<div class="py-1" >\\n    <div class="container">\\n        <div class="row">\\n            <div class="col-md-6">\\n                <a class="btn btn-outline-light" href="\', escape=False)\nresponse.write(URL(\'projeto\',\'acesso_projeto\', args=projeto.id))\nresponse.write(\'">\\n                <i class="fa text-danger fa-arrow-left  fa-2x"></i>\\n                </a>\\n            </div>\\n        </div>\\n    </div>\\n</div>\\n\', escape=False)\ninvestimento=0\nresponse.write(\'\\n<div class="py-2" >\\n    <div class="container">\\n      <div class="row">\\n        <div class="col-md-6">\\n          <ul class="list-group">\\n            <h5><span><b>-Investimento Inicial do Projeto</b></span></h5>\\n\', escape=False)\nif projeto.total_custo_mercadoria>0:\n    response.write(\'\\n    \', escape=False)\n    investimento+=projeto.total_custo_mercadoria\n    response.write(\'\\n\', escape=False)\n    pass\nresponse.write(\'\\n              <li class="list-group-item d-flex justify-content-between">\\n                <div>\\n                    <h6 class="my-0">\\n                        <b>Custo da Mercadoria</b>\\n                    </h6>\\n                    <small class="text-muted" contenteditable="true">\\n                        \', escape=False)\nresponse.write("{:,}".format(round(projeto.total_pecas_mercadoria,1)).replace(".0",""))\nresponse.write(\' Pe\\xc3\\xa7as\\n                    </small>\\n                </div>\\n                <span class="text-muted">R$ \', escape=False)\nresponse.write("{:,}".format(round(projeto.total_custo_mercadoria,1)).replace(",","."))\nresponse.write(\'0</span>\\n            </li>\\n\', escape=False)\nif projeto.vale_saida>0:\n    response.write(\'\\n    \', escape=False)\n    investimento+=projeto.vale_saida\n    response.write(\'\\n\', escape=False)\n    pass\nresponse.write(\'\\n              <li class="list-group-item d-flex justify-content-between">\\n                <div>\\n                    <h6 class="my-0">\\n                        <i class="fa text-primary fa-arrow-right"></i>\\n                        <b>Vale Chefe Equipe</b>\\n                    </h6>\\n                </div>\\n                <span class="text-muted">R$ \', escape=False)\nresponse.write("{:,}".format(round(projeto.vale_saida,1)).replace(",","."))\nresponse.write(\'0</span>\\n            </li>\\n\', escape=False)\nif projeto.total_vale_funcionario>0:\n    response.write(\'\\n    \', escape=False)\n    investimento+=projeto.total_vale_funcionario\n    response.write(\'\\n\', escape=False)\n    pass\nresponse.write(\'\\n              <li class="list-group-item d-flex justify-content-between">\\n                <div>\\n                    <h6 class="my-0">\\n                        <i class="fa text-primary fa-arrow-right"></i>\\n                        <b>Vale Funcionarios</b>\\n                    </h6>\\n                    <small class="text-muted">\\n                        \', escape=False)\nresponse.write("{:,}".format(round(projeto.quant_funcionario,1)).replace(".0",""))\nresponse.write(\' Funcionarios\\n                    </small>\\n                </div>\\n                <span class="text-muted">R$ \', escape=False)\nresponse.write("{:,}".format(round(projeto.total_vale_funcionario,1)).replace(",","."))\nresponse.write(\'0</span>\\n            </li>\\n\', escape=False)\nif projeto.total_vales_vendedor>0:\n    response.write(\'\\n    \', escape=False)\n    investimento+=projeto.total_vales_vendedor\n    response.write(\'\\n\', escape=False)\n    pass\nresponse.write(\'\\n              <li class="list-group-item d-flex justify-content-between">\\n                <div>\\n                    <h6 class="my-0">\\n                        <i class="fa text-primary fa-arrow-right"></i>\\n                        <b>Vale Vendedores</b>\\n                    </h6>\\n                    <small class="text-muted">\\n                        \', escape=False)\nresponse.write("{:,}".format(round(projeto.quant_vendedores,1)).replace(".0",""))\nresponse.write(\' Vendedores\\n                    </small>\\n                </div>\\n                <span class="text-muted">\\n                    R$ \', escape=False)\nresponse.write("{:,}".format(round(projeto.total_vales_vendedor,1)).replace(",","."))\nresponse.write(\'0\\n                </span>\\n            </li>\\n            <li class="list-group-item d-flex justify-content-between bg-light">\\n                <div>\\n                    <h6 class="my-0">\\n                        <b>Total Investimento Inicial</b>\\n                    </h6>\\n                </div>\\n                <span class="text-muted">\\n                    R$ \', escape=False)\nresponse.write("{:,}".format(round(investimento,1)).replace(",","."))\nresponse.write(\'0\\n                </span>\\n            </li>\\n            <br>\\n            <h5> <span><b>-Despesas Local e Venda</b></span></h5>\\n\', escape=False)\ntotal_despesa_local=0\nresponse.write(\'\\n\', escape=False)\nif projeto.total_despesa_local>0:\n    response.write(\'\\n    \', escape=False)\n    total_despesa_local+=projeto.total_despesa_local\n    response.write(\'\\n\', escape=False)\n    pass\nresponse.write(\'\\n              <li class="list-group-item d-flex justify-content-between">\\n                <div>\\n                    <h6 class="my-0">Despesa Local</h6>\\n                </div>\\n                <span class="text-muted">\\n                    R$ \', escape=False)\nresponse.write("{:,}".format(round(projeto.total_despesa_local,1)).replace(",","."))\nresponse.write(\'0\\n                </span>\\n            </li>\\n\', escape=False)\nif projeto.adiantamento>0:\n    response.write(\'\\n    \', escape=False)\n    total_despesa_local+=projeto.adiantamento\n    response.write(\'\\n            \\n\', escape=False)\n    pass\nresponse.write(\'\\n              <li class="list-group-item d-flex justify-content-between">\\n                <div>\\n                    <h6 class="my-0">Adiantamento (Venda)&nbsp;</h6>\\n                </div>\\n                <span class="text-muted">\\n                    R$ \', escape=False)\nresponse.write("{:,}".format(round(projeto.adiantamento,1)).replace(",","."))\nresponse.write(\'0\\n                </span>\\n            </li>\\n\', escape=False)\ninvestimento+=total_despesa_local\nresponse.write(\'\\n            <li class="list-group-item d-flex justify-content-between bg-light">\\n                <span><b>Total Despesas</b></span>\\n                <b>R$ \', escape=False)\nresponse.write("{:,}".format(round(total_despesa_local,1)).replace(",","."))\nresponse.write(\'0</b>\\n            </li>\\n            <br>\\n            <h5 > <span><b>-Complemento Investimento Inicial</b></span></h5>\\n\', escape=False)\ncomplemento=0\nresponse.write(\'\\n\', escape=False)\nif projeto.total_saldo_chefe>0:\n    response.write(\'\\n    \', escape=False)\n    complemento+=projeto.total_saldo_chefe\n    response.write(\'\\n\', escape=False)\n    pass\nresponse.write(\'\\n              <li class="list-group-item d-flex justify-content-between">\\n                <div>\\n                    <h6 class="my-0">Saldo Chefe</h6>\\n                </div>\\n                <span class="text-muted">\\n                    R$ \', escape=False)\nresponse.write("{:,}".format(round(projeto.total_saldo_chefe,1)).replace(",","."))\nresponse.write(\'0\\n                </span>\\n            </li>\\n\', escape=False)\nif projeto.total_saldo_funcionario>0:\n    response.write(\'\\n    \', escape=False)\n    complemento+=projeto.total_saldo_funcionario\n    response.write(\'\\n\', escape=False)\n    pass\nresponse.write(\'\\n              <li class="list-group-item d-flex justify-content-between">\\n                <div>\\n                    <h6 class="my-0">Saldo Funcionarios</h6>\\n                </div>\\n                <span class="text-muted">\\n                    R$ \', escape=False)\nresponse.write("{:,}".format(round(projeto.total_saldo_funcionario,1)).replace(",","."))\nresponse.write(\'0\\n                </span>\\n            </li>\\n\', escape=False)\nif projeto.total_saldo_vendedor>0:\n    response.write(\'\\n\', escape=False)\n    complemento+=projeto.total_saldo_vendedor\n    response.write(\'\\n\', escape=False)\n    pass\nresponse.write(\'\\n              <li class="list-group-item d-flex justify-content-between">\\n                <div>\\n                    <h6 class="my-0">Saldo Vendedores</h6>\\n                </div>\\n                <span class="text-muted">\\n                    R$ \', escape=False)\nresponse.write("{:,}".format(round(projeto.total_saldo_vendedor,1)).replace(",","."))\nresponse.write(\'0\\n                </span>\\n            </li>\\n            <li class="list-group-item d-flex justify-content-between bg-light">\\n                <span><b>Total Saldo</b></span>\\n                <b>R$ \', escape=False)\nresponse.write("{:,}".format(round(complemento,1)).replace(",","."))\nresponse.write(\'0</b>\\n            </li>\\n            <br>\\n\', escape=False)\ninvestimento+=complemento\nresponse.write(\'\\n            <h5> <span><b>-Investimento Complementar</b></span></h5>\\n\', escape=False)\ninvestimento_complementar=0\nresponse.write(\'\\n\', escape=False)\nif projeto.total_vale_cobrador>0:\n    response.write(\'\\n\', escape=False)\n    investimento_complementar+=projeto.total_vale_cobrador\n    response.write(\'\\n\', escape=False)\n    pass\nresponse.write(\'\\n              <li class="list-group-item d-flex justify-content-between">\\n                <div>\\n                    <h6 class="my-0">Total Vales Cobrador</h6>\\n                </div>\\n                <span class="text-muted">R$ \', escape=False)\nresponse.write("{:,}".format(round(projeto.total_vale_cobrador,1)).replace(",","."))\nresponse.write(\'0</span>\\n            </li>\\n\', escape=False)\nif projeto.total_adiantamento_cobranca>0:\n    response.write(\'\\n\', escape=False)\n    investimento_complementar+=projeto.total_adiantamento_cobranca\n    response.write(\'\\n\', escape=False)\n    pass\nresponse.write(\'\\n              <li class="list-group-item d-flex justify-content-between">\\n                <div>\\n                    <h6 class="my-0">Total Adiantamento Cobran\\xc3\\xa7a</h6>\\n                </div>\\n                <span class="text-muted">R$ \', escape=False)\nresponse.write("{:,}".format(round(projeto.total_adiantamento_cobranca,1)).replace(",","."))\nresponse.write(\'0</span>\\n            </li>\\n\', escape=False)\nif projeto.total_gratificacao>0:\n    response.write(\'\\n\', escape=False)\n    investimento_complementar+=projeto.total_gratificacao\n    response.write(\'\\n\', escape=False)\n    pass\nresponse.write(\'\\n              <li class="list-group-item d-flex justify-content-between">\\n                <div>\\n                <h6 class="my-0">Gratifica\\xc3\\xa7\\xc3\\xb5es e Percas</h6>\\n                </div> <span class="text-muted">\\n                    R$ \', escape=False)\nresponse.write("{:,}".format(round(projeto.total_gratificacao,1)).replace(",","."))\nresponse.write(\'0\\n                </span>\\n            </li>\\n\', escape=False)\ninvestimento+=investimento_complementar\nresponse.write(\'\\n            <li class="list-group-item d-flex justify-content-between bg-light">\\n                <span><b>Total Investimento Complementar</b></span>\\n                <b>R$ \', escape=False)\nresponse.write("{:,}".format(round(investimento_complementar,1)).replace(",","."))\nresponse.write(\'0</b>\\n            </li>\\n            <br>\\n            <h5> <span><b>-Valores Abatido do Investimento</b></span></h5>\\n\', escape=False)\nabatimento=0\nresponse.write(\'\\n\', escape=False)\nif projeto.total_custo_retorno>0:\n    response.write(\'\\n\', escape=False)\n    abatimento+=projeto.total_custo_retorno\n    response.write(\'\\n\', escape=False)\n    pass\nresponse.write(\'\\n            <li class="list-group-item d-flex justify-content-between">\\n                <div>\\n                    <h6 class="my-0">Retorno da Mercadoria</h6>\\n                </div>\\n                <span class="text-muted">\\n                    R$ \', escape=False)\nresponse.write("{:,}".format(round(projeto.total_custo_retorno,1)).replace(",","."))\nresponse.write(\'0\\n                </span>\\n            </li>\\n\', escape=False)\nabatimento+=projeto.total_debito_chefe\nresponse.write(\'\\n            <li class="list-group-item d-flex justify-content-between">\\n                <div>\\n                    <h6 class="my-0">Debito do Chefe</h6>\\n                </div>\\n                <span class="text-muted">\\n                    R$ \', escape=False)\nresponse.write("{:,}".format(round(projeto.total_debito_chefe,1)).replace(",","."))\nresponse.write(\'0\\n                </span>\\n            </li>\\n\', escape=False)\nif projeto.total_debito_funcionario>=0:\n    response.write(\'\\n\', escape=False)\nelse:\n    response.write(\'\\n\', escape=False)\n    abatimento+=projeto.total_debito_funcionario*-1\n    response.write(\'\\n\', escape=False)\n    pass\nresponse.write(\'\\n            <li class="list-group-item d-flex justify-content-between">\\n                <div>\\n                    <h6 class="my-0">Debito dos Funcionarios</h6>\\n                </div>\\n                <span class="text-muted">\\n                    R$ \', escape=False)\nresponse.write("{:,}".format(round(projeto.total_debito_funcionario*-1,1)).replace(",","."))\nresponse.write(\'0\\n                </span>\\n            </li>\\n\', escape=False)\nif projeto.total_debito_vendedor>=0:\n    response.write(\'\\n\', escape=False)\nelse:\n    response.write(\'\\n\', escape=False)\n    abatimento+=projeto.total_debito_vendedor*-1\n    response.write(\'\\n\', escape=False)\n    pass\nresponse.write(\'\\n            <li class="list-group-item d-flex justify-content-between">\\n                <div>\\n                    <h6 class="my-0">Debito dos Vendedores</h6>\\n                </div>\\n                <span class="text-muted">\\n                    R$ \', escape=False)\nresponse.write("{:,}".format(round(projeto.total_debito_vendedor*-1,1)).replace(",","."))\nresponse.write(\'0\\n                </span>\\n            </li>\\n\', escape=False)\ninvestimento-=abatimento\nresponse.write(\'\\n            <li class="list-group-item d-flex justify-content-between bg-light">\\n                <span><b>Total Valor Abatido Investimento</b></span>\\n                <b>R$ \', escape=False)\nresponse.write("{:,}".format(round(abatimento,1)).replace(",","."))\nresponse.write(\'0</b>\\n            </li>\\n\\n            <br>\\n            <li class="list-group-item d-flex justify-content-between bg-light">\\n                <span><b>Investimento Total</b></span>\\n                <b>R$ \', escape=False)\nresponse.write("{:,}".format(round(investimento,1)).replace(",","."))\nresponse.write(\'0</b>\\n            </li>\\n        </ul>\\n\\n\\n        </div>\\n        <div class="col-md-6">\\n          <ul class="list-group">\\n            <h5><span><b>-Informa\\xc3\\xa7\\xc3\\xb5es Posteriores</b></span></h5>\\n\\n\\n            <li class="list-group-item d-flex justify-content-between">\\n            <div>\\n            <h6 class="my-0">\\n                <b>Valor Total da Venda</b>\\n            </h6>\\n                <small class="text-muted"></small>\\n            </div>\\n                <span class="text-muted">\\n                    R$ \', escape=False)\nresponse.write("{:,}".format(round(projeto.total_venda_prazo,1)).replace(",","."))\nresponse.write(\'0\\n                </span>\\n            </li>\\n\\n\\n            <li class="list-group-item d-flex justify-content-between">\\n                <div>\\n                    <h6 class="my-0">\\n                        <i class="fa text-primary fa-arrow-right"></i>\\n                        <b>Valor Cobrado</b>\\n                    </h6>\\n                    \', escape=False)\nif projeto.total_cobrado>0:\n    response.write(\'\\n                    \', escape=False)\n    percent=projeto.total_cobrado/projeto.total_venda_prazo*100\n    response.write(\'\\n                    <small class="text-muted">\\n                        \', escape=False)\n    response.write("{:,}".format(round(percent,1)).replace(",","."))\n    response.write(\'%\\n                    </small>\\n                    \', escape=False)\n    pass\nresponse.write(\'\\n                </div>\\n                    <span class="text-muted">\\n                        R$ \', escape=False)\nresponse.write("{:,}".format(round(projeto.total_cobrado,1)).replace(",","."))\nresponse.write(\'0\\n                    </span>\\n            </li>\\n\\n\\n<li class="list-group-item d-flex justify-content-between">\\n<div>\\n<h6 class="my-0">\\n    <i class="fa text-primary fa-arrow-right"></i>\\n    <b>Despesa da Cobran\\xc3\\xa7a</b>\\n</h6>\\n    \', escape=False)\nif projeto.total_despesa_cobranca>0:\n    response.write(\'\\n    \', escape=False)\n    percent=projeto.total_despesa_cobranca/projeto.total_cobrado*100\n    response.write(\'\\n    <small class="text-muted">\\n        \', escape=False)\n    response.write("{:,}".format(round(percent,1)).replace(",","."))\n    response.write(\'%\\n    </small>\\n    \', escape=False)\n    pass\nresponse.write(\'\\n</div>\\n    <span class="text-muted">\\n        R$ \', escape=False)\nresponse.write("{:,}".format(round(projeto.total_despesa_cobranca,1)).replace(",","."))\nresponse.write(\'0\\n    </span>\\n</li>\\n\\n\\n\\n            <li class="list-group-item d-flex justify-content-between">\\n              <div>\\n                <h6 class="my-0"><i class="fa text-primary fa-arrow-right"></i>Vale Caderno Cobrador</h6>\\n              </div> <span class="text-muted">R$ \', escape=False)\nresponse.write("{:,}".format(round(projeto.total_vale_caderno_cobrador,1)).replace(",","."))\nresponse.write(\'0</span>\\n            </li>\\n            <li class="list-group-item d-flex justify-content-between bg-light">\\n              <div>\\n                <h6 class="my-0"><b>Total Depositos</b></h6> <small class="text-muted"></small>\\n              </div> <span class="text-muted">R$ \', escape=False)\nresponse.write("{:,}".format(round(projeto.total_deposito_cobranca,1)).replace(",","."))\nresponse.write(\'0</span>\\n            </li>\\n            <br>\\n            <h5> <span><b>-Saldo Investimento Parcial</b></span></h5>\\n\\n              \', escape=False)\nsaldo_investimento=projeto.total_deposito_cobranca-investimento\nresponse.write(\'\\n            <li class="list-group-item d-flex justify-content-between">\\n              <div>\\n                <h6 class="my-0">Total Depositos</h6>\\n              </div> <span class="text-muted">R$ \', escape=False)\nresponse.write("{:,}".format(round(projeto.total_deposito_cobranca,1)).replace(",","."))\nresponse.write(\'0</span>\\n            </li>\\n            <li class="list-group-item d-flex justify-content-between">\\n              <div>\\n                <h6 class="my-0">Investimento Total</h6>\\n              </div> <span class="text-muted">R$ \', escape=False)\nresponse.write("{:,}".format(round(investimento,1)).replace(",","."))\nresponse.write(\'0</span>\\n            </li>\\n            <li class="list-group-item d-flex justify-content-between bg-light"> <span><b>Saldo Investimento</b></span> <b>R$ \', escape=False)\nresponse.write("{:,}".format(round(saldo_investimento)).replace(",","."))\nresponse.write(\'0</b> </li><br>\\n            <h5> <span><b>-Saldo e Quita\\xc3\\xa7\\xc3\\xa3o</b></span></h5>\\n\\n              \', escape=False)\nsaldoquitacao=0\nresponse.write(\'\\n              \', escape=False)\nif projeto.total_saldo_cobradores>0:\n    response.write(\'\\n               \', escape=False)\n    saldoquitacao+=projeto.total_saldo_cobradores\n    response.write(\'\\n              \', escape=False)\n    pass\nresponse.write(\'\\n            <li class="list-group-item d-flex justify-content-between">\\n              <div>\\n                <h6 class="my-0">Saldo Cobradores</h6>\\n              </div> <span class="text-muted">R$ \', escape=False)\nresponse.write("{:,}".format(round(projeto.total_saldo_cobradores,1)).replace(",","."))\nresponse.write(\'0</span>\\n            </li>\\n              \', escape=False)\nif projeto.total_cobrado>((projeto.total_venda_prazo+2)/2):\n    response.write(\'\\n               \', escape=False)\n    projeto.total_saldo_quitacao_chefe=projeto.total_cobrado*projeto.comissao_cobranca/100\n    response.write(\'\\n              \', escape=False)\n    if projeto.total_saldo_quitacao_chefe>0:\n        response.write(\'\\n              \', escape=False)\n        projeto.total_saldo_quitacao_chefe=projeto.total_saldo_quitacao_chefe-(projeto.total_venda_prazo*projeto.comissao_praso/100)\n        response.write(\'\\n              \', escape=False)\n        pass\n    response.write(\'\\n              \', escape=False)\n    pass\nresponse.write(\'\\n              \', escape=False)\nif projeto.total_saldo_quitacao_chefe>0:\n    response.write(\'\\n               \', escape=False)\n    saldoquitacao+=projeto.total_saldo_quitacao_chefe\n    response.write(\'\\n              \', escape=False)\n    pass\nresponse.write(\'\\n            <li class="list-group-item d-flex justify-content-between">\\n              <div>\\n                <h6 class="my-0">Saldo Quita\\xc3\\xa7\\xc3\\xa3o Chefe</h6>\\n              </div> <span class="text-muted">R$ \', escape=False)\nresponse.write("{:,}".format(round(projeto.total_saldo_quitacao_chefe,1)).replace(",","."))\nresponse.write(\'0</span>\\n            </li>\\n              \', escape=False)\nif projeto.total_saldo_quitacao_vendedores>0:\n    response.write(\'\\n               \', escape=False)\n    saldoquitacao+=projeto.total_saldo_quitacao_vendedores\n    response.write(\'\\n              \', escape=False)\n    pass\nresponse.write(\'\\n            <li class="list-group-item d-flex justify-content-between">\\n              <div>\\n                <h6 class="my-0">Saldo Quita\\xc3\\xa7\\xc3\\xa3o Vendedores</h6>\\n              </div> <span class="text-muted">R$ \', escape=False)\nresponse.write("{:,}".format(round(projeto.total_saldo_quitacao_vendedores,1)).replace(",","."))\nresponse.write(\'0</span>\\n            </li>\\n            <li class="list-group-item d-flex justify-content-between bg-light"> <span><b>Total Saldos</b></span> <b>R$ \', escape=False)\nresponse.write("{:,}".format(round(saldoquitacao,1)).replace(",","."))\nresponse.write(\'0</b> </li>\\n            <br>\', escape=False)\nsaldo_investimento-=saldoquitacao\nresponse.write(\'\\n              <h5><span><b>-Debitos Descontado Investimento</b></span></h5>\\n               \', escape=False)\ndebito_quitacao=0\nresponse.write(\'\\n              \', escape=False)\nif not projeto.total_debito_cobradores>0:\n    response.write(\'\\n               \', escape=False)\n    debito_quitacao+=projeto.total_debito_cobradores*-1\n    response.write(\'\\n              \', escape=False)\n    pass\nresponse.write(\'\\n            <li class="list-group-item d-flex justify-content-between">\\n              <div>\\n                <h6 class="my-0">Debito Saldo Cobradores</h6>\\n              </div> <span class="text-muted">R$ \', escape=False)\nresponse.write("{:,}".format(round(projeto.total_debito_cobradores*-1,1)).replace(",","."))\nresponse.write(\'0</span>\\n            </li>\\n              \\n              \\n             \\n            <li class="list-group-item d-flex justify-content-between">\\n              <div>\\n                <h6 class="my-0">Debito Quita\\xc3\\xa7\\xc3\\xa3o Chefe</h6>\\n              </div> <span class="text-muted">R$ \', escape=False)\nresponse.write("{:,}".format(round(0,1)).replace(",","."))\nresponse.write(\'0</span>\\n            </li>\\n               \', escape=False)\nif not projeto.total_debito_quitacao_vendedores>0:\n    response.write(\'\\n              \', escape=False)\nelse:\n    response.write(\'\\n               \', escape=False)\n    debito_quitacao+=projeto.total_debito_quitacao_vendedores*-1\n    response.write(\'\\n               \', escape=False)\n    pass\nresponse.write(\'\\n            <li class="list-group-item d-flex justify-content-between">\\n              <div>\\n                <h6 class="my-0">Debito Quita\\xc3\\xa7\\xc3\\xa3o Vendedores</h6>\\n              </div> <span class="text-muted">R$ \', escape=False)\nresponse.write("{:,}".format(round(projeto.total_debito_quitacao_vendedores*-1,1)).replace(",","."))\nresponse.write(\'0</span>\\n            </li>\\n\\n            <li class="list-group-item d-flex justify-content-between bg-light"> <span><b>Total Debito Descontado</b></span> <b>R$ \', escape=False)\nresponse.write("{:,}".format(round(debito_quitacao,1)).replace(",","."))\nresponse.write(\'0</b> </li>\\n            <br>\\n\', escape=False)\nsaldo_investimento+=debito_quitacao\nresponse.write(\'\\n              <h5><span><b>-Resultado Final</b></span></h5>\\n            <li class="list-group-item d-flex justify-content-between bg-light"> <span><b>Saldo Final do Projeto</b></span> <b>R$ \', escape=False)\nresponse.write("{:,}".format(round(saldo_investimento,1)).replace(",","."))\nresponse.write(\'0</b> </li>\\n          </ul>\\n        </div>\\n      </div>\\n    </div>\\n  </div>\\n\', escape=False)\nresponse.write(\'\\n      \', escape=False)\nresponse.write(response.toolbar() if response.show_toolbar else \'\')\nresponse.write(\'\\n    </div>\\n<br><br><br>\\n    \', escape=False)\nresponse.write(\' <!-- this is default footer -->\\n    <footer class="footer container-fluid">\\n      <div class="row">\\n        <div class="col-md-12">\\n          <div class="copyright pull-left">\', escape=False)\nresponse.write(T(\'Copyright\'))\nresponse.write(\' &#169; \', escape=False)\nresponse.write(request.now.year)\nresponse.write(\'</div>\\n          <div id="poweredBy" class="pull-right">\\n            Suporte\\n            <a href="https://api.whatsapp.com/send?phone=5588981126816">(88)98112-6816</a>\\n          </div>\\n        </div>\\n      </div>\\n    </footer>\\n    \', escape=False)\nresponse.write(\'\\n    <!-- The javascript =============================== -->\\n    <script src="\', escape=False)\nresponse.write(URL(\'static\',\'js/bootstrap.bundle.min.js\'))\nresponse.write(\'"></script>\\n    <script src="\', escape=False)\nresponse.write(URL(\'static\',\'js/web2py-bootstrap4.js\'))\nresponse.write(\'"></script>\\n    \', escape=False)\nresponse.write(\'\\n    \', escape=False)\nif response.google_analytics_id:\n    response.write(\'\\n    <!-- Analytics ==================================== -->\\n    <script src="\', escape=False)\n    response.write(URL(\'static\',\'js/analytics.min.js\'))\n    response.write(\'"></script>\\n    <script type="text/javascript">\\n      analytics.initialize({\\n      \\\'Google Analytics\\\':{trackingId:\\\'\', escape=False)\n    response.write(response.google_analytics_id)\n    response.write("\'}\\n      });\\n    </script>\\n    ", escape=False)\n    pass\nresponse.write(\'\\n  </body>\\n</html>\\n\', escape=False)'
p7
sS'snapshot'
p8
(dp9
S'exception'
p10
(dp11
S'__getslice__'
p12
S"<method-wrapper '__getslice__' of exceptions.AttributeError object>"
p13
sS'__str__'
p14
S"<method-wrapper '__str__' of exceptions.AttributeError object>"
p15
sS'__reduce__'
p16
S'<built-in method __reduce__ of exceptions.AttributeError object>'
p17
sS'__dict__'
p18
S'{}'
p19
sS'message'
p20
S'"\'NoneType\' object has no attribute \'id\'"'
p21
sS'__sizeof__'
p22
S'<built-in method __sizeof__ of exceptions.AttributeError object>'
p23
sS'__init__'
p24
S"<method-wrapper '__init__' of exceptions.AttributeError object>"
p25
sS'__setattr__'
p26
S"<method-wrapper '__setattr__' of exceptions.AttributeError object>"
p27
sS'__reduce_ex__'
p28
S'<built-in method __reduce_ex__ of exceptions.AttributeError object>'
p29
sS'__new__'
p30
S'<built-in method __new__ of type object>'
p31
sS'__format__'
p32
S'<built-in method __format__ of exceptions.AttributeError object>'
p33
sS'__class__'
p34
S"<type 'exceptions.AttributeError'>"
p35
sS'__doc__'
p36
S"'Attribute not found.'"
p37
sS'__getitem__'
p38
S"<method-wrapper '__getitem__' of exceptions.AttributeError object>"
p39
sS'__setstate__'
p40
S'<built-in method __setstate__ of exceptions.AttributeError object>'
p41
sS'__getattribute__'
p42
S"<method-wrapper '__getattribute__' of exceptions.AttributeError object>"
p43
sS'args'
p44
S'("\'NoneType\' object has no attribute \'id\'",)'
p45
sS'__subclasshook__'
p46
S'<built-in method __subclasshook__ of type object>'
p47
sS'__unicode__'
p48
S'<built-in method __unicode__ of exceptions.AttributeError object>'
p49
sS'__delattr__'
p50
S"<method-wrapper '__delattr__' of exceptions.AttributeError object>"
p51
sS'__repr__'
p52
S"<method-wrapper '__repr__' of exceptions.AttributeError object>"
p53
sS'__hash__'
p54
S"<method-wrapper '__hash__' of exceptions.AttributeError object>"
p55
ssS'evalue'
p56
S"'NoneType' object has no attribute 'id'"
p57
sS'request'
p58
cgluon.html
XML_unpickle
p59
(S's-Y\x00\x00<div><table><tr><td style="font-weight:bold;vertical-align:top;">ajax</td><td style="vertical-align:top;">:</td><td><div>False</div></td></tr><tr><td style="font-weight:bold;vertical-align:top;">application</td><td style="vertical-align:top;">:</td><td><div>aluminum</div></td></tr><tr><td style="font-weight:bold;vertical-align:top;">args</td><td style="vertical-align:top;">:</td><td><div><table><tr><td><div>14</div></td></tr></table></div></td></tr><tr><td style="font-weight:bold;vertical-align:top;">cid</td><td style="vertical-align:top;">:</td><td><div>None</div></td></tr><tr><td style="font-weight:bold;vertical-align:top;">client</td><td style="vertical-align:top;">:</td><td><div>191.212.144.153</div></td></tr><tr><td style="font-weight:bold;vertical-align:top;">controller</td><td style="vertical-align:top;">:</td><td><div>projeto</div></td></tr><tr><td style="font-weight:bold;vertical-align:top;">cookies</td><td style="vertical-align:top;">:</td><td><div><table><tr><td style="font-weight:bold;vertical-align:top;">session_id_admin</td><td style="vertical-align:top;">:</td><td><div>191.212.144.153-8d197517-8c9c-4c8d-bd72-e98d4160dff7<table><tr><td style="font-weight:bold;vertical-align:top;">comment</td><td style="vertical-align:top;">:</td><td><div></div></td></tr><tr><td style="font-weight:bold;vertical-align:top;">domain</td><td style="vertical-align:top;">:</td><td><div></div></td></tr><tr><td style="font-weight:bold;vertical-align:top;">expires</td><td style="vertical-align:top;">:</td><td><div></div></td></tr><tr><td style="font-weight:bold;vertical-align:top;">httponly</td><td style="vertical-align:top;">:</td><td><div></div></td></tr><tr><td style="font-weight:bold;vertical-align:top;">max-age</td><td style="vertical-align:top;">:</td><td><div></div></td></tr><tr><td style="font-weight:bold;vertical-align:top;">path</td><td style="vertical-align:top;">:</td><td><div></div></td></tr><tr><td style="font-weight:bold;vertical-align:top;">secure</td><td style="vertical-align:top;">:</td><td><div></div></td></tr><tr><td style="font-weight:bold;vertical-align:top;">version</td><td style="vertical-align:top;">:</td><td><div></div></td></tr></table></div></td></tr><tr><td style="font-weight:bold;vertical-align:top;">session_id_aluminum</td><td style="vertical-align:top;">:</td><td><div>191.212.144.153-ed76eee9-d2dd-4e58-bc0f-53ec2a8c986e<table><tr><td style="font-weight:bold;vertical-align:top;">comment</td><td style="vertical-align:top;">:</td><td><div></div></td></tr><tr><td style="font-weight:bold;vertical-align:top;">domain</td><td style="vertical-align:top;">:</td><td><div></div></td></tr><tr><td style="font-weight:bold;vertical-align:top;">expires</td><td style="vertical-align:top;">:</td><td><div></div></td></tr><tr><td style="font-weight:bold;vertical-align:top;">httponly</td><td style="vertical-align:top;">:</td><td><div></div></td></tr><tr><td style="font-weight:bold;vertical-align:top;">max-age</td><td style="vertical-align:top;">:</td><td><div></div></td></tr><tr><td style="font-weight:bold;vertical-align:top;">path</td><td style="vertical-align:top;">:</td><td><div></div></td></tr><tr><td style="font-weight:bold;vertical-align:top;">secure</td><td style="vertical-align:top;">:</td><td><div></div></td></tr><tr><td style="font-weight:bold;vertical-align:top;">version</td><td style="vertical-align:top;">:</td><td><div></div></td></tr></table></div></td></tr></table></div></td></tr><tr><td style="font-weight:bold;vertical-align:top;">env</td><td style="vertical-align:top;">:</td><td><div><table><tr><td style="font-weight:bold;vertical-align:top;">CONTENT_LENGTH</td><td style="vertical-align:top;">:</td><td><div></div></td></tr><tr><td style="font-weight:bold;vertical-align:top;">CONTENT_TYPE</td><td style="vertical-align:top;">:</td><td><div></div></td></tr><tr><td style="font-weight:bold;vertical-align:top;">DOCUMENT_ROOT</td><td style="vertical-align:top;">:</td><td><div>/usr/local/openresty/nginx/html</div></td></tr><tr><td style="font-weight:bold;vertical-align:top;">HTTPS</td><td style="vertical-align:top;">:</td><td><div>on</div></td></tr><tr><td style="font-weight:bold;vertical-align:top;">HTTP_ACCEPT</td><td style="vertical-align:top;">:</td><td><div>text/html,application/xhtml+xml,application/xml;q=0.9,image/webp,image/apng,*/*;q=0.8,application/signed-exchange;v=b3;q=0.9</div></td></tr><tr><td style="font-weight:bold;vertical-align:top;">HTTP_ACCEPT_ENCODING</td><td style="vertical-align:top;">:</td><td><div>gzip, deflate, br</div></td></tr><tr><td style="font-weight:bold;vertical-align:top;">HTTP_ACCEPT_LANGUAGE</td><td style="vertical-align:top;">:</td><td><div>pt-BR,pt;q=0.9,en-US;q=0.8,en;q=0.7</div></td></tr><tr><td style="font-weight:bold;vertical-align:top;">HTTP_CONNECTION</td><td style="vertical-align:top;">:</td><td><div>close</div></td></tr><tr><td style="font-weight:bold;vertical-align:top;">HTTP_COOKIE</td><td style="vertical-align:top;">:</td><td><div>_ga=GA1.2.284465024.1588256692; _gid=GA1.2.1932632951.1590145528; session_id_aluminum=191.212.144.153-ed76eee9-d2dd-4e58-bc0f-53ec2a8c986e; session_id_admin=191.212.144.153-8d197517-8c9c-4c8d-bd72-e98d4160dff7</div></td></tr><tr><td style="font-weight:bold;vertical-align:top;">HTTP_HOST</td><td style="vertical-align:top;">:</td><td><div>rogoberto.pythonanywhere.com</div></td></tr><tr><td style="font-weight:bold;vertical-align:top;">HTTP_SAVE_DATA</td><td style="vertical-align:top;">:</td><td><div>on</div></td></tr><tr><td style="font-weight:bold;vertical-align:top;">HTTP_SEC_FETCH_DEST</td><td style="vertical-align:top;">:</td><td><div>document</div></td></tr><tr><td style="font-weight:bold;vertical-align:top;">HTTP_SEC_FETCH_MODE</td><td style="vertical-align:top;">:</td><td><div>navigate</div></td></tr><tr><td style="font-weight:bold;vertical-align:top;">HTTP_SEC_FETCH_SITE</td><td style="vertical-align:top;">:</td><td><div>none</div></td></tr><tr><td style="font-weight:bold;vertical-align:top;">HTTP_SEC_FETCH_USER</td><td style="vertical-align:top;">:</td><td><div>?1</div></td></tr><tr><td style="font-weight:bold;vertical-align:top;">HTTP_UPGRADE_INSECURE_REQUESTS</td><td style="vertical-align:top;">:</td><td><div>1</div></td></tr><tr><td style="font-weight:bold;vertical-align:top;">HTTP_USER_AGENT</td><td style="vertical-align:top;">:</td><td><div>Mozilla/5.0 (Linux; Android 9; ASUS_X01BDA) AppleWebKit/537.36 (KHTML, like Gecko) Chrome/81.0.4044.138 Mobile Safari/537.36</div></td></tr><tr><td style="font-weight:bold;vertical-align:top;">HTTP_X_FORWARDED_FOR</td><td style="vertical-align:top;">:</td><td><div>191.212.144.153</div></td></tr><tr><td style="font-weight:bold;vertical-align:top;">HTTP_X_REAL_IP</td><td style="vertical-align:top;">:</td><td><div>191.212.144.153</div></td></tr><tr><td style="font-weight:bold;vertical-align:top;">PATH_INFO</td><td style="vertical-align:top;">:</td><td><div>/aluminum/projeto/investimento/14</div></td></tr><tr><td style="font-weight:bold;vertical-align:top;">QUERY_STRING</td><td style="vertical-align:top;">:</td><td><div></div></td></tr><tr><td style="font-weight:bold;vertical-align:top;">REMOTE_ADDR</td><td style="vertical-align:top;">:</td><td><div>10.0.0.121</div></td></tr><tr><td style="font-weight:bold;vertical-align:top;">REMOTE_PORT</td><td style="vertical-align:top;">:</td><td><div>50178</div></td></tr><tr><td style="font-weight:bold;vertical-align:top;">REQUEST_METHOD</td><td style="vertical-align:top;">:</td><td><div>GET</div></td></tr><tr><td style="font-weight:bold;vertical-align:top;">REQUEST_URI</td><td style="vertical-align:top;">:</td><td><div>/aluminum/projeto/investimento/14</div></td></tr><tr><td style="font-weight:bold;vertical-align:top;">SCRIPT_NAME</td><td style="vertical-align:top;">:</td><td><div></div></td></tr><tr><td style="font-weight:bold;vertical-align:top;">SERVER_NAME</td><td style="vertical-align:top;">:</td><td><div>rogoberto.pythonanywhere.com</div></td></tr><tr><td style="font-weight:bold;vertical-align:top;">SERVER_PORT</td><td style="vertical-align:top;">:</td><td><div>443</div></td></tr><tr><td style="font-weight:bold;vertical-align:top;">SERVER_PROTOCOL</td><td style="vertical-align:top;">:</td><td><div>HTTP/1.1</div></td></tr><tr><td style="font-weight:bold;vertical-align:top;">app_folders</td><td style="vertical-align:top;">:</td><td><div>set([&#x27;/home/rogoberto/web2py/applications/welcome/&#x27;, &#x27;/home/rogoberto/web2py/applications/admin/&#x27;, &#x27;/home/rogoberto/web2py/applications/aluminum/&#x27;])</div></td></tr><tr><td style="font-weight:bold;vertical-align:top;">applications_parent</td><td style="vertical-align:top;">:</td><td><div>/home/rogoberto/web2py</div></td></tr><tr><td style="font-weight:bold;vertical-align:top;">content_length</td><td style="vertical-align:top;">:</td><td><div></div></td></tr><tr><td style="font-weight:bold;vertical-align:top;">content_type</td><td style="vertical-align:top;">:</td><td><div></div></td></tr><tr><td style="font-weight:bold;vertical-align:top;">db_sessions</td><td style="vertical-align:top;">:</td><td><div>set([])</div></td></tr><tr><td style="font-weight:bold;vertical-align:top;">debugging</td><td style="vertical-align:top;">:</td><td><div>True</div></td></tr><tr><td style="font-weight:bold;vertical-align:top;">document_root</td><td style="vertical-align:top;">:</td><td><div>/usr/local/openresty/nginx/html</div></td></tr><tr><td style="font-weight:bold;vertical-align:top;">gluon_parent</td><td style="vertical-align:top;">:</td><td><div>/home/rogoberto/web2py</div></td></tr><tr><td style="font-weight:bold;vertical-align:top;">http_accept</td><td style="vertical-align:top;">:</td><td><div>text/html,application/xhtml+xml,application/xml;q=0.9,image/webp,image/apng,*/*;q=0.8,application/signed-exchange;v=b3;q=0.9</div></td></tr><tr><td style="font-weight:bold;vertical-align:top;">http_accept_encoding</td><td style="vertical-align:top;">:</td><td><div>gzip, deflate, br</div></td></tr><tr><td style="font-weight:bold;vertical-align:top;">http_accept_language</td><td style="vertical-align:top;">:</td><td><div>pt-BR,pt;q=0.9,en-US;q=0.8,en;q=0.7</div></td></tr><tr><td style="font-weight:bold;vertical-align:top;">http_connection</td><td style="vertical-align:top;">:</td><td><div>close</div></td></tr><tr><td style="font-weight:bold;vertical-align:top;">http_cookie</td><td style="vertical-align:top;">:</td><td><div>_ga=GA1.2.284465024.1588256692; _gid=GA1.2.1932632951.1590145528; session_id_aluminum=191.212.144.153-ed76eee9-d2dd-4e58-bc0f-53ec2a8c986e; session_id_admin=191.212.144.153-8d197517-8c9c-4c8d-bd72-e98d4160dff7</div></td></tr><tr><td style="font-weight:bold;vertical-align:top;">http_host</td><td style="vertical-align:top;">:</td><td><div>rogoberto.pythonanywhere.com</div></td></tr><tr><td style="font-weight:bold;vertical-align:top;">http_save_data</td><td style="vertical-align:top;">:</td><td><div>on</div></td></tr><tr><td style="font-weight:bold;vertical-align:top;">http_sec_fetch_dest</td><td style="vertical-align:top;">:</td><td><div>document</div></td></tr><tr><td style="font-weight:bold;vertical-align:top;">http_sec_fetch_mode</td><td style="vertical-align:top;">:</td><td><div>navigate</div></td></tr><tr><td style="font-weight:bold;vertical-align:top;">http_sec_fetch_site</td><td style="vertical-align:top;">:</td><td><div>none</div></td></tr><tr><td style="font-weight:bold;vertical-align:top;">http_sec_fetch_user</td><td style="vertical-align:top;">:</td><td><div>?1</div></td></tr><tr><td style="font-weight:bold;vertical-align:top;">http_upgrade_insecure_requests</td><td style="vertical-align:top;">:</td><td><div>1</div></td></tr><tr><td style="font-weight:bold;vertical-align:top;">http_user_agent</td><td style="vertical-align:top;">:</td><td><div>Mozilla/5.0 (Linux; Android 9; ASUS_X01BDA) AppleWebKit/537.36 (KHTML, like Gecko) Chrome/81.0.4044.138 Mobile Safari/537.36</div></td></tr><tr><td style="font-weight:bold;vertical-align:top;">http_x_forwarded_for</td><td style="vertical-align:top;">:</td><td><div>191.212.144.153</div></td></tr><tr><td style="font-weight:bold;vertical-align:top;">http_x_real_ip</td><td style="vertical-align:top;">:</td><td><div>191.212.144.153</div></td></tr><tr><td style="font-weight:bold;vertical-align:top;">https</td><td style="vertical-align:top;">:</td><td><div>on</div></td></tr><tr><td style="font-weight:bold;vertical-align:top;">is_jython</td><td style="vertical-align:top;">:</td><td><div>False</div></td></tr><tr><td style="font-weight:bold;vertical-align:top;">is_py2</td><td style="vertical-align:top;">:</td><td><div>True</div></td></tr><tr><td style="font-weight:bold;vertical-align:top;">is_pypy</td><td style="vertical-align:top;">:</td><td><div>False</div></td></tr><tr><td style="font-weight:bold;vertical-align:top;">is_source</td><td style="vertical-align:top;">:</td><td><div>True</div></td></tr><tr><td style="font-weight:bold;vertical-align:top;">local_hosts</td><td style="vertical-align:top;">:</td><td><div><table><tr><td><div>35.173.69.207</div></td></tr><tr><td><div>::ffff:127.0.0.1</div></td></tr><tr><td><div>::1</div></td></tr><tr><td><div>rogoberto.pythonanywhere.com</div></td></tr><tr><td><div>blue-liveweb22</div></td></tr><tr><td><div>127.0.0.1</div></td></tr><tr><td><div>localhost</div></td></tr></table></div></td></tr><tr><td style="font-weight:bold;vertical-align:top;">path_info</td><td style="vertical-align:top;">:</td><td><div>/aluminum/projeto/investimento/14</div></td></tr><tr><td style="font-weight:bold;vertical-align:top;">query_string</td><td style="vertical-align:top;">:</td><td><div></div></td></tr><tr><td style="font-weight:bold;vertical-align:top;">remote_addr</td><td style="vertical-align:top;">:</td><td><div>10.0.0.121</div></td></tr><tr><td style="font-weight:bold;vertical-align:top;">remote_port</td><td style="vertical-align:top;">:</td><td><div>50178</div></td></tr><tr><td style="font-weight:bold;vertical-align:top;">request_method</td><td style="vertical-align:top;">:</td><td><div>GET</div></td></tr><tr><td style="font-weight:bold;vertical-align:top;">request_uri</td><td style="vertical-align:top;">:</td><td><div>/aluminum/projeto/investimento/14</div></td></tr><tr><td style="font-weight:bold;vertical-align:top;">script_name</td><td style="vertical-align:top;">:</td><td><div></div></td></tr><tr><td style="font-weight:bold;vertical-align:top;">server_name</td><td style="vertical-align:top;">:</td><td><div>rogoberto.pythonanywhere.com</div></td></tr><tr><td style="font-weight:bold;vertical-align:top;">server_port</td><td style="vertical-align:top;">:</td><td><div>443</div></td></tr><tr><td style="font-weight:bold;vertical-align:top;">server_protocol</td><td style="vertical-align:top;">:</td><td><div>HTTP/1.1</div></td></tr><tr><td style="font-weight:bold;vertical-align:top;">uwsgi.node</td><td style="vertical-align:top;">:</td><td><div>blue-liveweb22</div></td></tr><tr><td style="font-weight:bold;vertical-align:top;">uwsgi.version</td><td style="vertical-align:top;">:</td><td><div>2.0.17.1</div></td></tr><tr><td style="font-weight:bold;vertical-align:top;">uwsgi_node</td><td style="vertical-align:top;">:</td><td><div>blue-liveweb22</div></td></tr><tr><td style="font-weight:bold;vertical-align:top;">uwsgi_version</td><td style="vertical-align:top;">:</td><td><div>2.0.17.1</div></td></tr><tr><td style="font-weight:bold;vertical-align:top;">web2py_path</td><td style="vertical-align:top;">:</td><td><div>/home/rogoberto/web2py</div></td></tr><tr><td style="font-weight:bold;vertical-align:top;">web2py_version</td><td style="vertical-align:top;">:</td><td><div>2.17.1-stable+timestamp.2018.08.06.01.02.56</div></td></tr><tr><td style="font-weight:bold;vertical-align:top;">wsgi.errors</td><td style="vertical-align:top;">:</td><td><div>&lt;uwsgi_file__bin_user_wsgi_wrapper.ErrorLogFile object at 0x7fe638af9d10&gt;</div></td></tr><tr><td style="font-weight:bold;vertical-align:top;">wsgi.file_wrapper</td><td style="vertical-align:top;">:</td><td><div>&lt;built-in function uwsgi_sendfile&gt;</div></td></tr><tr><td style="font-weight:bold;vertical-align:top;">wsgi.input</td><td style="vertical-align:top;">:</td><td><div>&lt;uwsgi._Input object at 0x7fe639f09eb8&gt;</div></td></tr><tr><td style="font-weight:bold;vertical-align:top;">wsgi.multiprocess</td><td style="vertical-align:top;">:</td><td><div>False</div></td></tr><tr><td style="font-weight:bold;vertical-align:top;">wsgi.multithread</td><td style="vertical-align:top;">:</td><td><div>False</div></td></tr><tr><td style="font-weight:bold;vertical-align:top;">wsgi.run_once</td><td style="vertical-align:top;">:</td><td><div>False</div></td></tr><tr><td style="font-weight:bold;vertical-align:top;">wsgi.url_scheme</td><td style="vertical-align:top;">:</td><td><div>https</div></td></tr><tr><td style="font-weight:bold;vertical-align:top;">wsgi.version</td><td style="vertical-align:top;">:</td><td><div><table><tr><td><div>1</div></td></tr><tr><td><div>0</div></td></tr></table></div></td></tr><tr><td style="font-weight:bold;vertical-align:top;">wsgi_errors</td><td style="vertical-align:top;">:</td><td><div>&lt;uwsgi_file__bin_user_wsgi_wrapper.ErrorLogFile object at 0x7fe638af9d10&gt;</div></td></tr><tr><td style="font-weight:bold;vertical-align:top;">wsgi_file_wrapper</td><td style="vertical-align:top;">:</td><td><div>&lt;built-in function uwsgi_sendfile&gt;</div></td></tr><tr><td style="font-weight:bold;vertical-align:top;">wsgi_input</td><td style="vertical-align:top;">:</td><td><div>&lt;uwsgi._Input object at 0x7fe639f09eb8&gt;</div></td></tr><tr><td style="font-weight:bold;vertical-align:top;">wsgi_multiprocess</td><td style="vertical-align:top;">:</td><td><div>False</div></td></tr><tr><td style="font-weight:bold;vertical-align:top;">wsgi_multithread</td><td style="vertical-align:top;">:</td><td><div>False</div></td></tr><tr><td style="font-weight:bold;vertical-align:top;">wsgi_run_once</td><td style="vertical-align:top;">:</td><td><div>False</div></td></tr><tr><td style="font-weight:bold;vertical-align:top;">wsgi_url_scheme</td><td style="vertical-align:top;">:</td><td><div>https</div></td></tr><tr><td style="font-weight:bold;vertical-align:top;">wsgi_version</td><td style="vertical-align:top;">:</td><td><div><table><tr><td><div>1</div></td></tr><tr><td><div>0</div></td></tr></table></div></td></tr></table></div></td></tr><tr><td style="font-weight:bold;vertical-align:top;">extension</td><td style="vertical-align:top;">:</td><td><div>html</div></td></tr><tr><td style="font-weight:bold;vertical-align:top;">folder</td><td style="vertical-align:top;">:</td><td><div>/home/rogoberto/web2py/applications/aluminum/</div></td></tr><tr><td style="font-weight:bold;vertical-align:top;">function</td><td style="vertical-align:top;">:</td><td><div>investimento</div></td></tr><tr><td style="font-weight:bold;vertical-align:top;">global_settings</td><td style="vertical-align:top;">:</td><td><div><table><tr><td style="font-weight:bold;vertical-align:top;">app_folders</td><td style="vertical-align:top;">:</td><td><div>set([&#x27;/home/rogoberto/web2py/applications/welcome/&#x27;, &#x27;/home/rogoberto/web2py/applications/admin/&#x27;, &#x27;/home/rogoberto/web2py/applications/aluminum/&#x27;])</div></td></tr><tr><td style="font-weight:bold;vertical-align:top;">applications_parent</td><td style="vertical-align:top;">:</td><td><div>/home/rogoberto/web2py</div></td></tr><tr><td style="font-weight:bold;vertical-align:top;">db_sessions</td><td style="vertical-align:top;">:</td><td><div>set([])</div></td></tr><tr><td style="font-weight:bold;vertical-align:top;">debugging</td><td style="vertical-align:top;">:</td><td><div>True</div></td></tr><tr><td style="font-weight:bold;vertical-align:top;">gluon_parent</td><td style="vertical-align:top;">:</td><td><div>/home/rogoberto/web2py</div></td></tr><tr><td style="font-weight:bold;vertical-align:top;">is_jython</td><td style="vertical-align:top;">:</td><td><div>False</div></td></tr><tr><td style="font-weight:bold;vertical-align:top;">is_py2</td><td style="vertical-align:top;">:</td><td><div>True</div></td></tr><tr><td style="font-weight:bold;vertical-align:top;">is_pypy</td><td style="vertical-align:top;">:</td><td><div>False</div></td></tr><tr><td style="font-weight:bold;vertical-align:top;">is_source</td><td style="vertical-align:top;">:</td><td><div>True</div></td></tr><tr><td style="font-weight:bold;vertical-align:top;">local_hosts</td><td style="vertical-align:top;">:</td><td><div><table><tr><td><div>35.173.69.207</div></td></tr><tr><td><div>::ffff:127.0.0.1</div></td></tr><tr><td><div>::1</div></td></tr><tr><td><div>rogoberto.pythonanywhere.com</div></td></tr><tr><td><div>blue-liveweb22</div></td></tr><tr><td><div>127.0.0.1</div></td></tr><tr><td><div>localhost</div></td></tr></table></div></td></tr><tr><td style="font-weight:bold;vertical-align:top;">web2py_version</td><td style="vertical-align:top;">:</td><td><div>2.17.1-stable+timestamp.2018.08.06.01.02.56</div></td></tr></table></div></td></tr><tr><td style="font-weight:bold;vertical-align:top;">is_https</td><td style="vertical-align:top;">:</td><td><div>True</div></td></tr><tr><td style="font-weight:bold;vertical-align:top;">is_local</td><td style="vertical-align:top;">:</td><td><div>False</div></td></tr><tr><td style="font-weight:bold;vertical-align:top;">is_restful</td><td style="vertical-align:top;">:</td><td><div>False</div></td></tr><tr><td style="font-weight:bold;vertical-align:top;">is_scheduler</td><td style="vertical-align:top;">:</td><td><div>False</div></td></tr><tr><td style="font-weight:bold;vertical-align:top;">is_shell</td><td style="vertical-align:top;">:</td><td><div>False</div></td></tr><tr><td style="font-weight:bold;vertical-align:top;">method</td><td style="vertical-align:top;">:</td><td><div>GET</div></td></tr><tr><td style="font-weight:bold;vertical-align:top;">now</td><td style="vertical-align:top;">:</td><td><div>datetime.datetime(2020, 5, 23, 20, 31, 58, 906857)</div></td></tr><tr><td style="font-weight:bold;vertical-align:top;">raw_args</td><td style="vertical-align:top;">:</td><td><div>14</div></td></tr><tr><td style="font-weight:bold;vertical-align:top;">raw_extension</td><td style="vertical-align:top;">:</td><td><div>None</div></td></tr><tr><td style="font-weight:bold;vertical-align:top;">url</td><td style="vertical-align:top;">:</td><td><div>/aluminum/projeto/investimento/14</div></td></tr><tr><td style="font-weight:bold;vertical-align:top;">utcnow</td><td style="vertical-align:top;">:</td><td><div>datetime.datetime(2020, 5, 23, 20, 31, 58, 906880)</div></td></tr><tr><td style="font-weight:bold;vertical-align:top;">wsgi</td><td style="vertical-align:top;">:</td><td><div>&lt;gluon.main.LazyWSGI object at 0x7fe630babc10&gt;</div></td></tr></table></div>'
tRp60
sS'frames'
p61
(lp62
(dp63
S'file'
p64
S'/home/rogoberto/web2py/gluon/restricted.py'
p65
sS'dump'
p66
(dp67
S'environment'
p68
S"{'A': <class 'gluon.html.A'>, 'ANY_OF': <class 'gluon.validators.ANY_OF'>, 'ASSIGNJS': <function ASSIGNJS>, 'AppConfig': <function AppConfig>, 'Auth': <class 'gluon.tools.Auth'>, 'B': <class 'gluon.html.B'>, 'BEAUTIFY': <class 'gluon.html.BEAUTIFY'>, 'BODY': <class 'gluon.html.BODY'>, 'BR': <class 'gluon.html.BR'>, 'BUTTON': <class 'gluon.html.BUTTON'>, ...}"
p69
sS'ccode'
p70
S'<code object <module> at 0x7fe6380f30b0, file "/...luminum/views/projeto/investimento.html", line 1>'
p71
ssS'lnum'
p72
I219
sS'lines'
p73
(dp74
I214
S'    if environment is None:'
p75
sI215
S'        environment = {}'
p76
sI216
S"    environment['__file__'] = layer"
p77
sI217
S"    environment['__name__'] = '__restricted__'"
p78
sI218
S'    try:'
p79
sI219
S'        exec(ccode, environment)'
p80
sI220
S'    except HTTP:'
p81
sI221
S'        raise'
p82
sI222
S'    except RestrictedError:'
p83
sI223
S'        # do not encapsulate (obfuscate) the original RestrictedError'
p84
ssS'call'
p85
S'(ccode=<code object <module> at 0x7fe6380f30b0, file "/...luminum/views/projeto/investimento.html", line 1>, environment={\'A\': <class \'gluon.html.A\'>, \'ANY_OF\': <class \'gluon.validators.ANY_OF\'>, \'ASSIGNJS\': <function ASSIGNJS>, \'AppConfig\': <function AppConfig>, \'Auth\': <class \'gluon.tools.Auth\'>, \'B\': <class \'gluon.html.B\'>, \'BEAUTIFY\': <class \'gluon.html.BEAUTIFY\'>, \'BODY\': <class \'gluon.html.BODY\'>, \'BR\': <class \'gluon.html.BR\'>, \'BUTTON\': <class \'gluon.html.BUTTON\'>, ...}, layer=\'/home/rogoberto/web2py/applications/aluminum/views/projeto/investimento.html\', scode=r"response.write(\'<!DOCTYPE html>\\n<!--[if (gt IE ...nse.write(\'\\n  </body>\\n</html>\\n\', escape=False)")'
p86
sS'func'
p87
S'restricted'
p88
sa(dp89
g64
S'/home/rogoberto/web2py/applications/aluminum/views/projeto/investimento.html'
p90
sg66
(dp91
S'b'
S'undefined'
p92
sS'Complemento'
p93
g92
sS'h5'
p94
g92
sS'Investimento'
p95
g92
sS'Inicial'
p96
g92
sS'span'
p97
g92
ssg72
I121
sg73
(dp98
I128
S"    response.write('\\n', escape=False)"
p99
sI129
S'    pass'
p100
sI130
S'response.write(\'\\n              <li class="list-group-item d-flex justify-content-between">\\n                <div>\\n                    <h6 class="my-0">\\n                        <b>Custo da Mercadoria</b>\\n                    </h6>\\n                    <small class="text-muted" contenteditable="true">\\n                        \', escape=False)'
p101
sI131
S'response.write("{:,}".format(round(projeto.total_pecas_mercadoria,1)).replace(".0",""))'
p102
sI112
S'            pass'
p103
sI113
S"        response.write('\\n              ', escape=False)"
p104
sI114
S'        pass'
p105
sI115
S"    response.write('\\n            </div>\\n          </li>\\n        </ul>\\n        ', escape=False)"
p106
sI116
S'    pass'
p107
sI117
S"response.write('\\n      </div>\\n    </nav>\\n\\n    <!-- Masthead ===================================== -->\\n    ', escape=False)"
p108
sI118
S"response.write('\\n    ', escape=False)"
p109
sI119
S'response.write(\'\\n    <!-- Main ========================================= -->\\n    <!-- Begin page content -->\\n    <div class="container-fluid main-container">\\n      \', escape=False)'
p110
sI120
S'response.write(\'\\n\\n<div class="py-1" >\\n    <div class="container">\\n        <div class="row">\\n            <div class="col-md-6">\\n                <a class="btn btn-outline-light" href="\', escape=False)'
p111
sI121
S"response.write(URL('projeto','acesso_projeto', args=projeto.id))"
p112
sI122
S'response.write(\'">\\n                <i class="fa text-danger fa-arrow-left  fa-2x"></i>\\n                </a>\\n            </div>\\n        </div>\\n    </div>\\n</div>\\n\', escape=False)'
p113
sI123
S'investimento=0'
p114
sI124
S'response.write(\'\\n<div class="py-2" >\\n    <div class="container">\\n      <div class="row">\\n        <div class="col-md-6">\\n          <ul class="list-group">\\n            <h5><span><b>-Investimento Inicial do Projeto</b></span></h5>\\n\', escape=False)'
p115
sI125
S'if projeto.total_custo_mercadoria>0:'
p116
sI126
S"    response.write('\\n    ', escape=False)"
p117
sI127
S'    investimento+=projeto.total_custo_mercadoria'
p118
ssg85
S'()'
p119
sg87
S'<module>'
p120
sasS'pyver'
p121
S'Python 2.7.12: /usr/local/bin/uwsgi (prefix: /usr)'
p122
sS'session'
p123
g59
(S's\x0c\x0b\x00\x00<div><table><tr><td style="font-weight:bold;vertical-align:top;">auth</td><td style="vertical-align:top;">:</td><td><div><table><tr><td style="font-weight:bold;vertical-align:top;">expiration</td><td style="vertical-align:top;">:</td><td><div>3600</div></td></tr><tr><td style="font-weight:bold;vertical-align:top;">hmac_key</td><td style="vertical-align:top;">:</td><td><div>86112f9e-bf05-4f8c-92f9-da460585a364</div></td></tr><tr><td style="font-weight:bold;vertical-align:top;">last_visit</td><td style="vertical-align:top;">:</td><td><div>datetime.datetime(2020, 5, 23, 20, 31, 20, 3943)</div></td></tr><tr><td style="font-weight:bold;vertical-align:top;">remember_me</td><td style="vertical-align:top;">:</td><td><div>False</div></td></tr><tr><td style="font-weight:bold;vertical-align:top;">user</td><td style="vertical-align:top;">:</td><td><div><table><tr><td style="font-weight:bold;vertical-align:top;">email</td><td style="vertical-align:top;">:</td><td><div>betin@gmail.com</div></td></tr><tr><td style="font-weight:bold;vertical-align:top;">first_name</td><td style="vertical-align:top;">:</td><td><div>rogoberto</div></td></tr><tr><td style="font-weight:bold;vertical-align:top;">id</td><td style="vertical-align:top;">:</td><td><div>1L</div></td></tr><tr><td style="font-weight:bold;vertical-align:top;">last_name</td><td style="vertical-align:top;">:</td><td><div>ribeiro</div></td></tr><tr><td style="font-weight:bold;vertical-align:top;">registration_id</td><td style="vertical-align:top;">:</td><td><div></div></td></tr><tr><td style="font-weight:bold;vertical-align:top;">registration_key</td><td style="vertical-align:top;">:</td><td><div></div></td></tr><tr><td style="font-weight:bold;vertical-align:top;">reset_password_key</td><td style="vertical-align:top;">:</td><td><div></div></td></tr></table></div></td></tr><tr><td style="font-weight:bold;vertical-align:top;">user_groups</td><td style="vertical-align:top;">:</td><td><div><table><tr><td style="font-weight:bold;vertical-align:top;">1</td><td style="vertical-align:top;">:</td><td><div>user_1</div></td></tr><tr><td style="font-weight:bold;vertical-align:top;">2</td><td style="vertical-align:top;">:</td><td><div>admin</div></td></tr><tr><td style="font-weight:bold;vertical-align:top;">3</td><td style="vertical-align:top;">:</td><td><div>wiki_editor</div></td></tr></table></div></td></tr></table></div></td></tr><tr><td style="font-weight:bold;vertical-align:top;">flash</td><td style="vertical-align:top;">:</td><td><div>None</div></td></tr><tr><td style="font-weight:bold;vertical-align:top;">last_orderby</td><td style="vertical-align:top;">:</td><td><div>None</div></td></tr><tr><td style="font-weight:bold;vertical-align:top;">last_query</td><td style="vertical-align:top;">:</td><td><div>db.projeto.id&gt;0</div></td></tr></table></div>'
tRp124
sS'etype'
p125
S"<type 'exceptions.AttributeError'>"
p126
sS'date'
p127
S'Sat May 23 20:31:59 2020'
p128
sS'response'
p129
g59
(S's\xc0\x1d\x00\x00<div><table><tr><td style="font-weight:bold;vertical-align:top;">body</td><td style="vertical-align:top;">:</td><td><div>&lt;cStringIO.StringO object at 0x7fe630d16688&gt;</div></td></tr><tr><td style="font-weight:bold;vertical-align:top;">cookies</td><td style="vertical-align:top;">:</td><td><div><table><tr><td style="font-weight:bold;vertical-align:top;">session_id_aluminum</td><td style="vertical-align:top;">:</td><td><div>191.212.144.153-ed76eee9-d2dd-4e58-bc0f-53ec2a8c986e<table><tr><td style="font-weight:bold;vertical-align:top;">comment</td><td style="vertical-align:top;">:</td><td><div></div></td></tr><tr><td style="font-weight:bold;vertical-align:top;">domain</td><td style="vertical-align:top;">:</td><td><div></div></td></tr><tr><td style="font-weight:bold;vertical-align:top;">expires</td><td style="vertical-align:top;">:</td><td><div></div></td></tr><tr><td style="font-weight:bold;vertical-align:top;">httponly</td><td style="vertical-align:top;">:</td><td><div></div></td></tr><tr><td style="font-weight:bold;vertical-align:top;">max-age</td><td style="vertical-align:top;">:</td><td><div></div></td></tr><tr><td style="font-weight:bold;vertical-align:top;">path</td><td style="vertical-align:top;">:</td><td><div>/</div></td></tr><tr><td style="font-weight:bold;vertical-align:top;">secure</td><td style="vertical-align:top;">:</td><td><div></div></td></tr><tr><td style="font-weight:bold;vertical-align:top;">version</td><td style="vertical-align:top;">:</td><td><div></div></td></tr></table></div></td></tr></table></div></td></tr><tr><td style="font-weight:bold;vertical-align:top;">delimiters</td><td style="vertical-align:top;">:</td><td><div><table><tr><td><div>{{</div></td></tr><tr><td><div>}}</div></td></tr></table></div></td></tr><tr><td style="font-weight:bold;vertical-align:top;">files</td><td style="vertical-align:top;">:</td><td><div><table><tr><td><div>/aluminum/static/js/jquery.js</div></td></tr><tr><td><div>/aluminum/static/css/calendar.css</div></td></tr><tr><td><div>/aluminum/static/js/calendar.js</div></td></tr><tr><td><div>/aluminum/static/js/web2py.js</div></td></tr></table></div></td></tr><tr><td style="font-weight:bold;vertical-align:top;">flash</td><td style="vertical-align:top;">:</td><td><div></div></td></tr><tr><td style="font-weight:bold;vertical-align:top;">form_label_separator</td><td style="vertical-align:top;">:</td><td><div></div></td></tr><tr><td style="font-weight:bold;vertical-align:top;">formstyle</td><td style="vertical-align:top;">:</td><td><div>bootstrap4_inline</div></td></tr><tr><td style="font-weight:bold;vertical-align:top;">generic_patterns</td><td style="vertical-align:top;">:</td><td><div><table></table></div></td></tr><tr><td style="font-weight:bold;vertical-align:top;">google_analytics_id</td><td style="vertical-align:top;">:</td><td><div>None</div></td></tr><tr><td style="font-weight:bold;vertical-align:top;">headers</td><td style="vertical-align:top;">:</td><td><div><table><tr><td style="font-weight:bold;vertical-align:top;">X-Powered-By</td><td style="vertical-align:top;">:</td><td><div>web2py</div></td></tr></table></div></td></tr><tr><td style="font-weight:bold;vertical-align:top;">menu</td><td style="vertical-align:top;">:</td><td><div><table><tr><td><div><table><tr><td><div>Principal</div></td></tr><tr><td><div>False</div></td></tr><tr><td><div>/aluminum/default/index</div></td></tr><tr><td><div><table></table></div></td></tr></table></div></td></tr><tr><td><div><table><tr><td><div>BD</div></td></tr><tr><td><div>False</div></td></tr><tr><td><div>/aluminum/appadmin/index</div></td></tr></table></div></td></tr></table></div></td></tr><tr><td style="font-weight:bold;vertical-align:top;">meta</td><td style="vertical-align:top;">:</td><td><div><table><tr><td style="font-weight:bold;vertical-align:top;">author</td><td style="vertical-align:top;">:</td><td><div>Your Name &lt;you@example.com&gt;</div></td></tr><tr><td style="font-weight:bold;vertical-align:top;">description</td><td style="vertical-align:top;">:</td><td><div>a cool new app</div></td></tr><tr><td style="font-weight:bold;vertical-align:top;">generator</td><td style="vertical-align:top;">:</td><td><div>Web2py Web Framework</div></td></tr><tr><td style="font-weight:bold;vertical-align:top;">keywords</td><td style="vertical-align:top;">:</td><td><div><table><tr><td><div>web2py</div></td></tr><tr><td><div>python</div></td></tr><tr><td><div>framework</div></td></tr></table></div></td></tr></table></div></td></tr><tr><td style="font-weight:bold;vertical-align:top;">models_to_run</td><td style="vertical-align:top;">:</td><td><div><table><tr><td><div>^\\w+\\.py$</div></td></tr><tr><td><div>^projeto/\\w+\\.py$</div></td></tr><tr><td><div>^projeto/investimento/\\w+\\.py$</div></td></tr></table></div></td></tr><tr><td style="font-weight:bold;vertical-align:top;">postprocessing</td><td style="vertical-align:top;">:</td><td><div><table></table></div></td></tr><tr><td style="font-weight:bold;vertical-align:top;">session_client</td><td style="vertical-align:top;">:</td><td><div>191.212.144.153</div></td></tr><tr><td style="font-weight:bold;vertical-align:top;">session_cookie_compression_level</td><td style="vertical-align:top;">:</td><td><div>None</div></td></tr><tr><td style="font-weight:bold;vertical-align:top;">session_cookie_expires</td><td style="vertical-align:top;">:</td><td><div>None</div></td></tr><tr><td style="font-weight:bold;vertical-align:top;">session_data_name</td><td style="vertical-align:top;">:</td><td><div>session_data_aluminum</div></td></tr><tr><td style="font-weight:bold;vertical-align:top;">session_file</td><td style="vertical-align:top;">:</td><td><div>&lt;open file &#x27;/home/rogoberto/web2py/applications/aluminum/sessions/0b2/058/191.212.144.153-ed76eee9-d2dd-4e58-bc0f-53ec2a8c986e&#x27;, mode &#x27;rb+&#x27; at 0x7fe631cf9c90&gt;</div></td></tr><tr><td style="font-weight:bold;vertical-align:top;">session_filename</td><td style="vertical-align:top;">:</td><td><div>/home/rogoberto/web2py/applications/aluminum/sessions/191.212.144.153-ed76eee9-d2dd-4e58-bc0f-53ec2a8c986e</div></td></tr><tr><td style="font-weight:bold;vertical-align:top;">session_hash</td><td style="vertical-align:top;">:</td><td><div>62404d4b0c1a7905151f37e86578effd</div></td></tr><tr><td style="font-weight:bold;vertical-align:top;">session_id</td><td style="vertical-align:top;">:</td><td><div>191.212.144.153-ed76eee9-d2dd-4e58-bc0f-53ec2a8c986e</div></td></tr><tr><td style="font-weight:bold;vertical-align:top;">session_id_name</td><td style="vertical-align:top;">:</td><td><div>session_id_aluminum</div></td></tr><tr><td style="font-weight:bold;vertical-align:top;">session_locked</td><td style="vertical-align:top;">:</td><td><div>True</div></td></tr><tr><td style="font-weight:bold;vertical-align:top;">session_masterapp</td><td style="vertical-align:top;">:</td><td><div>aluminum</div></td></tr><tr><td style="font-weight:bold;vertical-align:top;">session_new</td><td style="vertical-align:top;">:</td><td><div>False</div></td></tr><tr><td style="font-weight:bold;vertical-align:top;">session_storage_type</td><td style="vertical-align:top;">:</td><td><div>file</div></td></tr><tr><td style="font-weight:bold;vertical-align:top;">show_toolbar</td><td style="vertical-align:top;">:</td><td><div>False</div></td></tr><tr><td style="font-weight:bold;vertical-align:top;">status</td><td style="vertical-align:top;">:</td><td><div>200</div></td></tr><tr><td style="font-weight:bold;vertical-align:top;">view</td><td style="vertical-align:top;">:</td><td><div>projeto/investimento.html</div></td></tr></table></div>'
tRp130
sS'locals'
p131
(dp132
S'PY2'
p133
S'True'
p134
sS'OBJECT'
p135
S"<class 'gluon.html.OBJECT'>"
p136
sS'SQLDB'
p137
S"<class 'pydal.base.DAL'>"
p138
sg123
S"<Storage {'last_orderby': None, 'last_query': 'd...-ecc0-4d5c-a553-23d898bcacb7'], '_secure': True}>"
p139
sS'LINK'
p140
S"<class 'gluon.html.LINK'>"
p141
sS'BR'
p142
S"<class 'gluon.html.BR'>"
p143
sS'local_import'
p144
S'<function <lambda>>'
p145
sS'OPTGROUP'
p146
S"<class 'gluon.html.OPTGROUP'>"
p147
sS'__package__'
p148
S'None'
p149
sS'PRE'
p150
S"<class 'gluon.html.PRE'>"
p151
sS'IS_INT_IN_RANGE'
p152
S"<class 'gluon.validators.IS_INT_IN_RANGE'>"
p153
sS'to_bytes'
p154
S'<function to_bytes>'
p155
sS'IS_LOWER'
p156
S"<class 'gluon.validators.IS_LOWER'>"
p157
sS'IS_STRONG'
p158
S"<class 'gluon.validators.IS_STRONG'>"
p159
sS'cache'
p160
S'<gluon.cache.Cache object>'
p161
sS'IS_IN_DB'
p162
S"<class 'gluon.validators.IS_IN_DB'>"
p163
sS'TAG'
p164
S'<gluon.html.__TAG__ object>'
p165
sS'SQLField'
p166
S"<class 'pydal.objects.Field'>"
p167
sS'mail'
p168
S'<gluon.tools.Mail object>'
p169
sS'BODY'
p170
S"<class 'gluon.html.BODY'>"
p171
sS'IS_DATE_IN_RANGE'
p172
S"<class 'gluon.validators.IS_DATE_IN_RANGE'>"
p173
sS'IFRAME'
p174
S"<class 'gluon.html.IFRAME'>"
p175
sS'URL'
p176
S'<function URL>'
p177
sS'__file__'
p178
S"'/home/rogoberto/web2py/applications/aluminum/views/projeto/investimento.html'"
p179
sS'db'
p180
S'<DAL uri="sqlite://storage.sqlite">'
p181
sS'auth'
p182
S'<gluon.tools.Auth object>'
p183
sS'P'
S"<class 'gluon.html.P'>"
p184
sS'TFOOT'
p185
S"<class 'gluon.html.TFOOT'>"
p186
sS'iteritems'
p187
S'<function <lambda>>'
p188
sS'XHTML'
p189
S"<class 'gluon.html.XHTML'>"
p190
sS'ON'
p191
g134
sS'OL'
p192
S"<class 'gluon.html.OL'>"
p193
sS'TEXTAREA'
p194
S"<class 'gluon.html.TEXTAREA'>"
p195
sS'MENU'
p196
S"<class 'gluon.html.MENU'>"
p197
sS'IS_IMAGE'
p198
S"<class 'gluon.validators.IS_IMAGE'>"
p199
sS'EM'
p200
S"<class 'gluon.html.EM'>"
p201
sS'CODE'
p202
S"<class 'gluon.html.CODE'>"
p203
sS'HTTP'
p204
S"<class 'gluon.http.HTTP'>"
p205
sS'HR'
p206
S"<class 'gluon.html.HR'>"
p207
sS'IS_DATETIME'
p208
S"<class 'gluon.validators.IS_DATETIME'>"
p209
sS'reduce'
p210
S'<built-in function reduce>'
p211
sS'STYLE'
p212
S"<class 'gluon.html.STYLE'>"
p213
sS'LABEL'
p214
S"<class 'gluon.html.LABEL'>"
p215
sS'CLEANUP'
p216
S"<class 'gluon.validators.CLEANUP'>"
p217
sS'BUTTON'
p218
S"<class 'gluon.html.BUTTON'>"
p219
sS'SELECT'
p220
S"<class 'gluon.html.SELECT'>"
p221
sS'CENTER'
p222
S"<class 'gluon.html.CENTER'>"
p223
sS'Auth'
p224
S"<class 'gluon.tools.Auth'>"
p225
sS'__builtins__'
p226
S"{'ArithmeticError': <type 'exceptions.ArithmeticError'>, 'AssertionError': <type 'exceptions.AssertionError'>, 'AttributeError': <type 'exceptions.AttributeError'>, 'BaseException': <type 'exceptions.BaseException'>, 'BufferError': <type 'exceptions.BufferError'>, 'BytesWarning': <type 'exceptions.BytesWarning'>, 'DeprecationWarning': <type 'exceptions.DeprecationWarning'>, 'EOFError': <type 'exceptions.EOFError'>, 'Ellipsis': Ellipsis, 'EnvironmentError': <type 'exceptions.EnvironmentError'>, ...}"
p227
sS'HTML'
p228
S"<class 'gluon.html.HTML'>"
p229
sS'SQLFORM'
p230
S"<class 'gluon.sqlhtml.SQLFORM'>"
p231
sS'_item'
p232
S"(<lazyT 'BD'>, False, '/aluminum/appadmin/index')"
p233
sS'LOAD'
p234
S'<function LOAD>'
p235
sS'redirect'
p236
S'<function redirect>'
p237
sS'FIELDSET'
p238
S"<class 'gluon.html.FIELDSET'>"
p239
sS'IS_EQUAL_TO'
p240
S"<class 'gluon.validators.IS_EQUAL_TO'>"
p241
sS'embed64'
p242
S'<function embed64>'
p243
sS'IS_LIST_OF'
p244
S"<class 'gluon.validators.IS_LIST_OF'>"
p245
sS'INPUT'
p246
S"<class 'gluon.html.INPUT'>"
p247
sS'EMBED'
p248
S"<class 'gluon.html.EMBED'>"
p249
sS'configuration'
p250
S"{'host': {'names': 'localhost:*, 127.0.0.1:*, *:...': 'sqlite://storage.sqlite', 'pool_size': '10'}}"
p251
sS'H2'
p252
S"<class 'gluon.html.H2'>"
p253
sS'H3'
p254
S"<class 'gluon.html.H3'>"
p255
sS'projeto'
p256
S'None'
p257
sS'H1'
p258
S"<class 'gluon.html.H1'>"
p259
sS'H6'
p260
S"<class 'gluon.html.H6'>"
p261
sS'H4'
p262
S"<class 'gluon.html.H4'>"
p263
sS'H5'
p264
S"<class 'gluon.html.H5'>"
p265
sS'UL'
p266
S"<class 'gluon.html.UL'>"
p267
sS'IS_UPPER'
p268
S"<class 'gluon.validators.IS_UPPER'>"
p269
sS'xmlescape'
p270
S'<function xmlescape>'
p271
sS'IS_TIME'
p272
S"<class 'gluon.validators.IS_TIME'>"
p273
sS'OPTION'
p274
S"<class 'gluon.html.OPTION'>"
p275
sS'TITLE'
p276
S"<class 'gluon.html.TITLE'>"
p277
sS'CRYPT'
p278
S"<class 'gluon.validators.CRYPT'>"
p279
sS'IS_EMPTY_OR'
p280
S"<class 'gluon.validators.IS_EMPTY_OR'>"
p281
sS'MARKMIN'
p282
S"<class 'gluon.html.MARKMIN'>"
p283
sS'__name__'
p284
S"'__restricted__'"
p285
sS'STRONG'
p286
S"<class 'gluon.html.STRONG'>"
p287
sS'COL'
p288
S"<class 'gluon.html.COL'>"
p289
sS'SCRIPT'
p290
S"<class 'gluon.html.SCRIPT'>"
p291
sS'TABLE'
p292
S"<class 'gluon.html.TABLE'>"
p293
sS'IS_IPV4'
p294
S"<class 'gluon.validators.IS_IPV4'>"
p295
sS'IS_LENGTH'
p296
S"<class 'gluon.validators.IS_LENGTH'>"
p297
sS'IS_IPV6'
p298
S"<class 'gluon.validators.IS_IPV6'>"
p299
sS'XML'
p300
S"<class 'gluon.html.XML'>"
p301
sS'B'
S"<class 'gluon.html.B'>"
p302
sS'IMG'
p303
S"<class 'gluon.html.IMG'>"
p304
sS'SQLTABLE'
p305
S"<class 'gluon.sqlhtml.SQLTABLE'>"
p306
sS'IS_MATCH'
p307
S"<class 'gluon.validators.IS_MATCH'>"
p308
sS'IS_ALPHANUMERIC'
p309
S"<class 'gluon.validators.IS_ALPHANUMERIC'>"
p310
sS'SPAN'
p311
S"<class 'gluon.html.SPAN'>"
p312
sS'IS_JSON'
p313
S"<class 'gluon.validators.IS_JSON'>"
p314
sS'IS_IPADDRESS'
p315
S"<class 'gluon.validators.IS_IPADDRESS'>"
p316
sS'IS_SLUG'
p317
S"<class 'gluon.validators.IS_SLUG'>"
p318
sS'BEAUTIFY'
p319
S"<class 'gluon.html.BEAUTIFY'>"
p320
sS'META'
p321
S"<class 'gluon.html.META'>"
p322
sS'AppConfig'
p323
S'<function AppConfig>'
p324
sS'IS_DATE'
p325
S"<class 'gluon.validators.IS_DATE'>"
p326
sS'IS_EMAIL'
p327
S"<class 'gluon.validators.IS_EMAIL'>"
p328
sS'IS_NOT_EMPTY'
p329
S"<class 'gluon.validators.IS_NOT_EMPTY'>"
p330
sS'xrange'
p331
S"<type 'xrange'>"
p332
sS'TBODY'
p333
S"<class 'gluon.html.TBODY'>"
p334
sS'CAT'
p335
S"<class 'gluon.html.CAT'>"
p336
sS'Field'
p337
S"<class 'pydal.objects.Field'>"
p338
sS'IS_LIST_OF_EMAILS'
p339
S"<class 'gluon.validators.IS_LIST_OF_EMAILS'>"
p340
sg58
S"<Storage {'function': 'investimento', 'cookies':..., 'is_https': True, 'client': '191.212.144.153'}>"
p341
sS'DIV'
p342
S"<class 'gluon.html.DIV'>"
p343
sS'LEGEND'
p344
S"<class 'gluon.html.LEGEND'>"
p345
sS'to_native'
p346
S'<function to_native>'
p347
sS'COLGROUP'
p348
S"<class 'gluon.html.COLGROUP'>"
p349
sS'DAL'
p350
S"<class 'pydal.base.DAL'>"
p351
sS'ASSIGNJS'
p352
S'<function ASSIGNJS>'
p353
sS'TR'
p354
S"<class 'gluon.html.TR'>"
p355
sS'LI'
p356
S"<class 'gluon.html.LI'>"
p357
sS'TH'
p358
S"<class 'gluon.html.TH'>"
p359
sS'TD'
p360
S"<class 'gluon.html.TD'>"
p361
sS'IS_URL'
p362
S"<class 'gluon.validators.IS_URL'>"
p363
sS'A'
S"<class 'gluon.html.A'>"
p364
sS'HEAD'
p365
S"<class 'gluon.html.HEAD'>"
p366
sS'IS_DATETIME_IN_RANGE'
p367
S"<class 'gluon.validators.IS_DATETIME_IN_RANGE'>"
p368
sS'FORM'
p369
S"<class 'gluon.html.FORM'>"
p370
sS'I'
S"<class 'gluon.html.I'>"
p371
sS'IS_NOT_IN_DB'
p372
S"<class 'gluon.validators.IS_NOT_IN_DB'>"
p373
sg129
S"<Storage {'body': <cStringIO.StringO object at 0...6317e6140>, 'view': 'projeto/investimento.html'}>"
p374
sS'THEAD'
p375
S"<class 'gluon.html.THEAD'>"
p376
sS'ANY_OF'
p377
S"<class 'gluon.validators.ANY_OF'>"
p378
sS'IS_NULL_OR'
p379
S"<class 'gluon.validators.IS_EMPTY_OR'>"
p380
sS'IS_FLOAT_IN_RANGE'
p381
S"<class 'gluon.validators.IS_FLOAT_IN_RANGE'>"
p382
sS'IS_EXPR'
p383
S"<class 'gluon.validators.IS_EXPR'>"
p384
sS'T'
S'<gluon.languages.translator object>'
p385
sS'IS_IN_SET'
p386
S"<class 'gluon.validators.IS_IN_SET'>"
p387
sS'IS_UPLOAD_FILENAME'
p388
S"<class 'gluon.validators.IS_UPLOAD_FILENAME'>"
p389
sS'TT'
p390
S"<class 'gluon.html.TT'>"
p391
sS'IS_DECIMAL_IN_RANGE'
p392
S"<class 'gluon.validators.IS_DECIMAL_IN_RANGE'>"
p393
sssS'traceback'
p394
S'Traceback (most recent call last):\n  File "/home/rogoberto/web2py/gluon/restricted.py", line 219, in restricted\n    exec(ccode, environment)\n  File "/home/rogoberto/web2py/applications/aluminum/views/projeto/investimento.html", line 121, in <module>\n    <h5 > <span><b>-Complemento Investimento Inicial</b></span></h5>\nAttributeError: \'NoneType\' object has no attribute \'id\'\n'
p395
s.