(dp1
S'output'
p2
S"<type 'exceptions.AttributeError'> 'int' object has no attribute 'days'"
p3
sS'layer'
p4
S'/home/rogoberto/web2py/applications/aluminum/views/acs_projeto/acesso_vendas_particao.html'
p5
sS'code'
p6
S'response.write(\'<!DOCTYPE html>\\n<!--[if (gt IE 9)|!(IE)]><!--> <html class="no-js" lang="\', escape=False)\nresponse.write(T.accepted_language or \'en\')\nresponse.write(\'"> <!--<![endif]-->\\n  <head>\\n    <meta charset="utf-8">\\n    <!-- www.phpied.com/conditional-comments-block-downloads/ -->\\n    <!-- Always force latest IE rendering engine\\n         (even in intranet) & Chrome Frame\\n         Remove this if you use the .htaccess -->\\n    <meta http-equiv="X-UA-Compatible" content="IE=edge\', escape=False)\nresponse.write(not request.is_local and \',chrome=1\' or \'\')\nresponse.write(\'">\\n    <!--  Mobile Viewport Fix\\n          j.mp/mobileviewport & davidbcalhoun.com/2010/viewport-metatag\\n          device-width: Occupy full width of the screen in its current orientation\\n          initial-scale = 1.0 retains dimensions instead of zooming out if page height > device height\\n          user-scalable = yes allows the user to zoom in -->\\n    <meta name="viewport" content="width=device-width, initial-scale=1.0">\\n       <title>Aluminum System</title>\\n      <meta name="author" content="Arsenal System">\\n      <meta name="description" content="cr\\xc3\\xa9diario de aluminio, controle seus custos, despesas vendas e cobran\\xc3\\xa7as">\\n      <meta name="keywords" content="Controle Cheque, pagamentos, Sistema">\\n    <!-- http://dev.w3.org/html5/markup/meta.name.html -->\\n    <meta name="application-name" content="sistema credi\\xc3\\xa1rio panela">\\n    <!-- Speaking of Google, don\\\'t forget to set your site up:\\n         http://google.com/webmasters -->\\n    <meta name="google-site-verification" content="peneleiro Juazeiro, panela credi\\xc3\\xa1rio, sistema panela">\\n    <!-- include stylesheets -->\\n    <link rel="stylesheet" href="https://cdnjs.cloudflare.com/ajax/libs/font-awesome/4.7.0/css/font-awesome.min.css"/>\\n    <link rel="stylesheet" href="\', escape=False)\nresponse.write(URL(\'static\',\'css/bootstrap.min.css\'))\nresponse.write(\'"/>\\n    <link rel="stylesheet" href="\', escape=False)\nresponse.write(URL(\'static\',\'css/web2py-bootstrap4.css\'))\nresponse.write(\'"/>\\n    <link rel="shortcut icon" href="\', escape=False)\nresponse.write(URL(\'static\',\'images/ico.ico\'))\nresponse.write(\'" type="image/x-icon">\\n    <link rel="apple-touch-icon" href="\', escape=False)\nresponse.write(URL(\'static\',\'images/ico.png\'))\nresponse.write(\'">\\n    <!-- All JavaScript at the bottom, except for Modernizr which enables\\n         HTML5 elements & feature detects -->\\n    <script src="\', escape=False)\nresponse.write(URL(\'static\',\'js/modernizr-2.8.3.min.js\'))\nresponse.write(\'"></script>\\n    <!-- Favicons -->\\n    \', escape=False)\nresponse.write(\'<script type="text/javascript"><!--\\n    // These variables are used by the web2py_ajax_init function in web2py_ajax.js (which is loaded below).\\n    \', escape=False)\nresponse.write(ASSIGNJS(\nw2p_ajax_confirm_message = T(\'Are you sure you want to delete this object?\'),\nw2p_ajax_disable_with_message = T(\'Working...\'),\nw2p_ajax_date_format = T(\'%Y-%m-%d\'),\nw2p_ajax_datetime_format = T(\'%Y-%m-%d %H:%M:%S\'),\najax_error_500 = T.M(\'An error occured, please [[reload %s]] the page\') % URL(args=request.args, vars=request.get_vars)\n))\nresponse.write(\'\\n    //--></script>\\n\', escape=False)\nresponse.files.insert(0,URL(\'static\',\'js/jquery.js\'))\nresponse.files.insert(1,URL(\'static\',\'css/calendar.css\'))\nresponse.files.insert(2,URL(\'static\',\'js/calendar.js\'))\nresponse.files.insert(3,URL(\'static\',\'js/web2py.js\'))\nresponse.include_meta()\nresponse.include_files()\nresponse.write(\'\\n\', escape=False)\nresponse.write(\' <!-- this includes jquery.js, calendar.js/.css and web2py.js -->\\n      \', escape=False)\nif auth.user:\n    response.write(\'\\n    \', escape=False)\n    if auth.user.first_name=="Rogoberto":\n        response.write(\'\\n   \\n    \', escape=False)\n    elif auth.user.first_name=="Meme":\n        response.write(\'\\n    <link rel="stylesheet" href="https://bootswatch.com/4/materia/bootstrap.css"> \\n    \', escape=False)\n        pass\n    response.write(\'\\n    \', escape=False)\n    pass\nresponse.write(\'\\n    \', escape=False)\nresponse.write(\'\\n  \\n  </head>\\n  <body>\\n      \\n        <style  type="text/css">\\n    @media print{\\n        .btn{\\n             display: none;\\n        }\\n        #noprint { display:none; } \\n      a:link{font:15px "verdana"; color:#8B4513; text-decoration:none;}\\n\\na:hover{font:20px "verdana"; color:black; text-decoration:underline;}\\n    }\\n      </style>\\n    <div class="w2p_flash alert alert-dismissable">\', escape=False)\nresponse.write(response.flash or \'\')\nresponse.write(\'</div>\\n    <!-- Navbar ======================================= -->\\n    <nav class="navbar navbar-light navbar-expand-md bg-faded justify-content-center">\\n        <a class="navbar-brand" href="https://rogoberto.pythonanywhere.com/aluminum/#acesso">Aluminum</a>\\n       <button class="navbar-toggler" type="button" data-toggle="collapse" data-target="#navbarNavDropdown" aria-controls="navbarNavDropdown" aria-expanded="false" aria-label="Toggle navigation">\\n         <span class="navbar-toggler-icon"></span>\\n       </button>\\n       <div class="navbar-collapse collapse w-100" id="navbarNavDropdown">\\n         <ul class="navbar-nav w-100 justify-content-center">\\n          \', escape=False)\nfor _item in response.menu or []:\n    response.write(\'\\n          \', escape=False)\n    if (not len(_item)>4) or not _item[3]:\n        response.write(\'\\n          <li class="nav-item \', escape=False)\n        if _item[1]:\n            response.write(\'active\', escape=False)\n            pass\n        response.write(\'">\\n            <a class="nav-link" href="\', escape=False)\n        response.write(_item[2])\n        response.write(\'">\', escape=False)\n        response.write(_item[0])\n        response.write(\'</a>\\n          </li>\\n          \', escape=False)\n    else:\n        response.write(\'\\n          <li class="nav-item dropdown">\\n            <a class="nav-link dropdown-toggle" href="\', escape=False)\n        response.write(_item[2])\n        response.write(\'" data-toggle="dropdown" aria-haspopup="true" aria-expanded="false">\', escape=False)\n        response.write(_item[0])\n        response.write(\'</a>\\n            <div class="dropdown-menu">\\n              \', escape=False)\n        for _subitem in _item[3]:\n            response.write(\'\\n              <a class="dropdown-item" href="\', escape=False)\n            response.write(_subitem[2])\n            response.write(\'">\', escape=False)\n            response.write(_subitem[0])\n            response.write(\'</a>\\n              \', escape=False)\n            pass\n        response.write(\'\\n            </div>\\n          </li>\\n          \', escape=False)\n        pass\n    response.write(\'\\n          \', escape=False)\n    pass\nresponse.write(\'\\n        </ul>\\n\\n        \', escape=False)\nif \'auth\' in globals():\n    response.write(\'\\n        <ul class="nav navbar-nav ml-auto w-100 justify-content-end">\\n          <li class="nav-item dropdown">\\n            <a class="nav-link dropdown-toggle" href="#" data-toggle="dropdown" aria-haspopup="true" aria-expanded="false">\\n              \', escape=False)\n    if auth.user:\n        response.write(auth.user.first_name)\n    else:\n        response.write(\'LOGIN\', escape=False)\n        pass\n    response.write(\'\\n            </a>\\n            <div class="dropdown-menu dropdown-menu-right">\\n              \', escape=False)\n    if auth.user:\n        response.write(\'\\n              <a class="dropdown-item" href="\', escape=False)\n        response.write(URL(\'default\',\'user/profile\'))\n        response.write(\'">\', escape=False)\n        response.write(T(\'Profile\'))\n        response.write(\'</a>\\n              \', escape=False)\n        if \'change_password\' not in auth.settings.actions_disabled:\n            response.write(\'\\n              <a class="dropdown-item" href="\', escape=False)\n            response.write(URL(\'default\',\'user/change_password\'))\n            response.write(\'">\', escape=False)\n            response.write(T(\'Change Password\'))\n            response.write(\'</a>\\n              \', escape=False)\n            pass\n        response.write(\'\\n              <a class="dropdown-item" href="\', escape=False)\n        response.write(URL(\'default\',\'user/logout\'))\n        response.write(\'">\', escape=False)\n        response.write(T(\'Logout\'))\n        response.write(\'</a>\\n              \', escape=False)\n    else:\n        response.write(\'\\n              <a class="dropdown-item" href="\', escape=False)\n        response.write(URL(\'default\',\'user/login\'))\n        response.write(\'">\', escape=False)\n        response.write(T(\'Login\'))\n        response.write(\'</a>\\n              \', escape=False)\n        if \'register\' not in auth.settings.actions_disabled:\n            response.write(\'\\n              <a class="dropdown-item" href="\', escape=False)\n            response.write(URL(\'default\',\'user/register\'))\n            response.write(\'">\', escape=False)\n            response.write(T(\'Sign up\'))\n            response.write(\'</a>\\n              \', escape=False)\n            pass\n        response.write(\'\\n              \', escape=False)\n        if \'retrieve_password\' not in auth.settings.actions_disabled:\n            response.write(\'\\n              <a class="dropdown-item" href="\', escape=False)\n            response.write(URL(\'default\',\'user/retrieve_password\'))\n            response.write(\'">\', escape=False)\n            response.write(T(\'Lost Password\'))\n            response.write(\'</a>\\n              \', escape=False)\n            pass\n        response.write(\'\\n              \', escape=False)\n        pass\n    response.write(\'\\n            </div>\\n          </li>\\n        </ul>\\n        \', escape=False)\n    pass\nresponse.write(\'\\n      </div>\\n    </nav>\\n\\n    <!-- Masthead ===================================== -->\\n    \', escape=False)\nresponse.write(\'\\n<header class="header container-fluid d-none d-print-block">\\n     <div class="row">\\n        <div class="col-md-12">\\n          <div class="copyright pull-left">Aluminum System</div>\\n          <div id="poweredBy" class="pull-right">\\n            Gest\\xc3\\xa3o de vendas e cobran\\xc3\\xa7as artefatos de aluminio\\n            \\n          </div>\\n        </div>\\n      </div>\\n</header>\\n    \', escape=False)\nresponse.write(\'\\n    <!-- Main ========================================= -->\\n    <!-- Begin page content -->\\n    <div class="container-fluid main-container py-5">\\n      \', escape=False)\nresponse.write(\'\\n\', escape=False)\nfrom datetime import date\nresponse.write(\'\\n\', escape=False)\nvenda=0\nresponse.write(\'\\n\', escape=False)\nfichas_venda=0\nresponse.write(\'\\n\', escape=False)\ncaderno=0\nresponse.write(\'\\n\', escape=False)\nentrada=0\nresponse.write(\'\\n\', escape=False)\nfichas_devolvidas=0\nresponse.write(\'\\n\', escape=False)\nvalor_devolvido=0\nresponse.write(\'\\n\', escape=False)\na=0\nresponse.write(\'\\n\', escape=False)\ntotaldespesa=0\nresponse.write(\'\\n\', escape=False)\ntvenda=0\nresponse.write(\'\\n\', escape=False)\ntfichas_venda=0\nresponse.write(\'\\n\', escape=False)\ntcaderno=0\nresponse.write(\'\\n\', escape=False)\ntentrada=0\nresponse.write(\'\\n\', escape=False)\ntfichas_devolvidas=0\nresponse.write(\'\\n\', escape=False)\ntvalor_devolvido=0\nresponse.write(\'\\n\\n\', escape=False)\nprimiradata=0\nultimadata=0\nresponse.write(\'\\n<div class="py-5">\\n    <div class="container">\\n      <div class="row">\\n        <div class="col-md-12">\\n          <h5 class="">Lista de Vendas da Rota ( \', escape=False)\nresponse.write(sub_venda.primeira_cidade)\nresponse.write(\' )</h5>\\n        </div>\\n      </div>\\n      <div class="row">\\n        <div class="col-md-12">\\n          <a class="btn btn-link" href="\', escape=False)\nresponse.write(URL(\'particoes\',args=sub_venda.projeto))\nresponse.write(\'" style="color:#3b5998"><i class="fa fa-fw fa-1x py-1 fa-arrow-left"></i> Voltar</a>\\n            <a class="btn btn-link" href="\', escape=False)\nresponse.write(URL(\'alterar_dados_rota\',args=sub_venda.id))\nresponse.write(\'" style="color:#3b5998"><i class="fa fa-fw fa-1x py-1 fa-arrow-left"></i> Alterar dados da Rota</a>\\n        </div>\\n      </div>\\n      <div class="row">\\n        <div class="col-md-12">\\n          <div class="table-responsive">\\n            <table class="table table-striped table-borderless">\\n              <thead>\\n                <tr>\\n                  <th scope="col" >#</th>\\n                  <th scope="col" >Data</th>\\n                  <th scope="col" class="text-center">Venda</th>\\n                  <th scope="col" class="text-center">Fichas</th>\\n                  <th scope="col" class="text-center">Caderno</th>\\n                  <th scope="col" class="text-center">Entrada</th>\\n                  <th scope="col" class="text-center">Despesa</th>\\n                  <th scope="col" class="text-center">Acumulado</th>\\n                </tr>\\n              </thead>\\n              <tbody>\\n                \', escape=False)\ndata=request.now\nresponse.write(\'\\n            \', escape=False)\nif len(rows)>0:\n    response.write(\'\\n                \', escape=False)\n    data=rows.first().data_venda\n    response.write(\'\\n\', escape=False)\n    ultimadata=rows.last().data_venda\n    response.write(\'\\n\', escape=False)\n    primiradata=rows.first().data_venda\n    response.write(\'\\n            \', escape=False)\n    pass\nresponse.write(\'\\n            \', escape=False)\nfor row in rows:\n    response.write(\'\\n            <tr>\\n                \', escape=False)\n    if row.data_venda==data:\n        response.write(\'\\n                    \', escape=False)\n        venda+=row.venda_praso-row.valor_devolvido\n        response.write(\'\\n                    \', escape=False)\n        fichas_venda+=row.quant_fichas-row.quant_fichas_devolvidas\n        response.write(\'\\n                    \', escape=False)\n        caderno+=row.vale_caderno\n        response.write(\'\\n                    \', escape=False)\n        entrada+=row.entradas_venda\n        response.write(\'\\n                    \', escape=False)\n        fichas_devolvidas+=row.quant_fichas_devolvidas\n        response.write(\'\\n                    \', escape=False)\n        valor_devolvido+=row.valor_devolvido\n        response.write(\'\\n                    \', escape=False)\n        data=row.data_venda\n        response.write(\'\\n                \', escape=False)\n    else:\n        response.write(\'\\n                    \', escape=False)\n        if venda!=0:\n            response.write(\'\\n                        \', escape=False)\n            a+=1\n            response.write(\'\\n                        <th>\', escape=False)\n            response.write(a)\n            response.write(\'</th>\\n                        <td>\', escape=False)\n            response.write(data.strftime(\'%d/%m/%Y\'))\n            response.write(\'</td>\\n                        <td >R$ \', escape=False)\n            response.write("{:,.2f}".format(round(venda,2)).replace(",","#").replace(".",",").replace("#","."))\n            response.write(\'</td>\\n                        <td >\', escape=False)\n            response.write(fichas_venda)\n            response.write(\'</td>\\n                        <td >R$ \', escape=False)\n            response.write("{:,.2f}".format(round(caderno,2)).replace(",","#").replace(".",",").replace("#","."))\n            response.write(\'</td>\\n                        <td>R$ \', escape=False)\n            response.write("{:,.2f}".format(round(entrada,2)).replace(",","#").replace(".",",").replace("#","."))\n            response.write(\'</td>\\n              \', escape=False)\n            totaldesp=0\n            response.write(\'  \\n              \', escape=False)\n            for row1 in rowsdesp:\n                response.write(\'\\n              \', escape=False)\n                if (a==1)and(row1.data_inicio==data):\n                    response.write(\'\\n              \', escape=False)\n                    totaldesp+=row1.valor\n                    response.write(\'\\n              \', escape=False)\n                elif (row1.data_inicio==data):\n                    response.write(\'\\n              \', escape=False)\n                    totaldesp+=row1.valor\n                    response.write(\'\\n              \', escape=False)\n                    pass\n                response.write(\'\\n              \', escape=False)\n                pass\n            response.write(\'\\n              <td class="text-danger"><a class="text-danger" href="\', escape=False)\n            response.write(URL(\'ver_despesa\',args=[projeto.id,data]))\n            response.write(\'">R$ \', escape=False)\n            response.write("{:,.2f}".format(round(totaldesp,2)).replace(",","#").replace(".",",").replace("#","."))\n            response.write(\'</a></td>\\n\', escape=False)\n            totaldespesa+=totaldesp\n            response.write(\'\\n              <th class="text-danger">R$ \', escape=False)\n            response.write("{:,.2f}".format(round(totaldespesa,2)).replace(",","#").replace(".",",").replace("#","."))\n            response.write(\'</th>\\n              <th>R$ \', escape=False)\n            response.write("{:,.2f}".format(round(tvenda,2)).replace(",","#").replace(".",",").replace("#","."))\n            response.write(\'</th>\\n                <th >\', escape=False)\n            response.write(tfichas_venda)\n            response.write(\'</th>\\n                    \', escape=False)\n            pass\n        response.write(\'\\n                    \', escape=False)\n        data=row.data_venda\n        response.write(\'\\n                    \', escape=False)\n        venda=row.venda_praso-row.valor_devolvido\n        response.write(\'\\n                    \', escape=False)\n        fichas_venda=row.quant_fichas-row.quant_fichas_devolvidas\n        response.write(\'\\n                    \', escape=False)\n        caderno=row.vale_caderno\n        response.write(\'\\n                    \', escape=False)\n        entrada=row.entradas_venda\n        response.write(\'\\n                    \', escape=False)\n        fichas_devolvidas=row.quant_fichas_devolvidas\n        response.write(\'\\n                    \', escape=False)\n        valor_devolvido=row.valor_devolvido\n        response.write(\'\\n                \', escape=False)\n        pass\n    response.write(\'\\n                \', escape=False)\n    tvenda+=row.venda_praso-row.valor_devolvido\n    response.write(\'\\n                \', escape=False)\n    tfichas_venda+=row.quant_fichas-row.quant_fichas_devolvidas\n    response.write(\'\\n                \', escape=False)\n    tcaderno+=row.vale_caderno\n    response.write(\'\\n                \', escape=False)\n    tentrada+=row.entradas_venda\n    response.write(\'\\n                \', escape=False)\n    tfichas_devolvidas+=row.quant_fichas_devolvidas\n    response.write(\'\\n                \', escape=False)\n    tvalor_devolvido+=row.valor_devolvido\n    response.write(\'\\n            </tr>\\n            \', escape=False)\n    pass\nresponse.write(\'\\n            \', escape=False)\nif  len(rows)>1:\n    response.write(\'\\n            <tr>\\n                \', escape=False)\n    a+=1\n    response.write(\'\\n                <th>\', escape=False)\n    response.write(a)\n    response.write(\'</th>\\n                        <td>\', escape=False)\n    response.write(data.strftime(\'%d/%m/%Y\'))\n    response.write(\'</td>\\n                <td>R$ \', escape=False)\n    response.write("{:,.2f}".format(round(venda,2)).replace(",","#").replace(".",",").replace("#","."))\n    response.write(\'</td>\\n                <td>\', escape=False)\n    response.write(fichas_venda)\n    response.write(\'</td>\\n                <td >R$ \', escape=False)\n    response.write("{:,.2f}".format(round(caderno,2)).replace(",","#").replace(".",",").replace("#","."))\n    response.write(\'</td>\\n                <td>R$ \', escape=False)\n    response.write("{:,.2f}".format(round(entrada,2)).replace(",","#").replace(".",",").replace("#","."))\n    response.write(\'</td>\\n               \', escape=False)\n    totaldesp=0\n    response.write(\'  \\n              \', escape=False)\n    for row1 in rowsdesp:\n        response.write(\'\\n              \', escape=False)\n        if row1.data_inicio==data:\n            response.write(\'\\n              \', escape=False)\n            totaldesp+=row1.valor\n            response.write(\'\\n              \', escape=False)\n            pass\n        response.write(\'\\n              \', escape=False)\n        pass\n    response.write(\'\\n              <td class="text-danger"><a class="text-danger" href="\', escape=False)\n    response.write(URL(\'ver_despesa\',args=[projeto.id,data]))\n    response.write(\'">R$ \', escape=False)\n    response.write("{:,.2f}".format(round(totaldesp,2)).replace(",","#").replace(".",",").replace("#","."))\n    response.write(\'</a></td>\\n\', escape=False)\n    totaldespesa+=totaldesp\n    response.write(\'\\n              <th  class="text-danger">R$ \', escape=False)\n    response.write("{:,.2f}".format(round(totaldespesa,2)).replace(",","#").replace(".",",").replace("#","."))\n    response.write(\'</th>\\n                <th >R$ \', escape=False)\n    response.write("{:,.2f}".format(round(tvenda,2)).replace(",","#").replace(".",",").replace("#","."))\n    response.write(\'</th>\\n                <th>\', escape=False)\n    response.write(tfichas_venda)\n    response.write(\'</th>\\n            </tr>\\n            \', escape=False)\n    pass\nresponse.write(\'\\n            <tr>\\n                <th>#</th>\\n                <th></th>\\n                <th>R$ \', escape=False)\nresponse.write("{:,.2f}".format(round(tvenda,2)).replace(",","#").replace(".",",").replace("#","."))\nresponse.write(\'</th>\\n                <th>\', escape=False)\nresponse.write(tfichas_venda)\nresponse.write(\'</th>\\n                <th>R$ \', escape=False)\nresponse.write("{:,.2f}".format(round(tcaderno,2)).replace(",","#").replace(".",",").replace("#","."))\nresponse.write(\'</th>\\n                <th>R$ \', escape=False)\nresponse.write("{:,.2f}".format(round(tentrada,2)).replace(",","#").replace(".",",").replace("#","."))\nresponse.write(\'</th>\\n                <th>R$ \', escape=False)\nresponse.write("{:,.2f}".format(round(totaldespesa,2)).replace(",","#").replace(".",",").replace("#","."))\nresponse.write(\'</th>\\n            </tr>\\n              </tbody>\\n            </table>\\n          </div>\\n        </div>\\n      </div>\\n    </div>\\n  </div>\\n\\n  \', escape=False)\nif auth.user.id==1:\n    response.write(\'\\nPrimeira data - \', escape=False)\n    response.write(primiradata)\n    response.write(\'<br>\\nUltima data - \', escape=False)\n    response.write(ultimadata)\n    response.write(\'\\n<hr>\\n\', escape=False)\n    diferenca=ultimadata-primiradata\n    response.write(\'\\n\', escape=False)\n    dias=diferenca.days\n    response.write(\'\\n<div class="py-3" >\\n    <div class="container">\\n      <div class="row text-center">\\n        <div class="mx-auto col-md-8">\\n          <h3 class="mb-3">Proje\\xc3\\xa7\\xc3\\xa3o de Venda</h3>\\n          <p class="lead">Rela\\xc3\\xa7\\xc3\\xa3o de Situa\\xc3\\xa7\\xc3\\xa3o da venda</p>\\n        </div>\\n      </div>\\n      <div class="row">\\n        <div class="col-md-4">\\n          <ul class="list-group">\\n            <li class="list-group-item d-flex justify-content-between">\\n              <div>\\n                <h6 class="my-0"><b>Mercadoria</b></h6> <small class="text-muted">Total</small>\\n              </div> <span class="text-muted">R$ \', escape=False)\n    response.write("{:,.2f}".format(round(projeto.total_preco_mercadoria,2)).replace(",","#").replace(".",",").replace("#","."))\n    response.write(\'</span>\\n            </li>\\n            \', escape=False)\n    if (projeto.total_venda_prazo!=0)and(dias!=0):\n        response.write(\'\\n            \', escape=False)\n        media_prazo=projeto.total_venda_prazo/dias\n    else:\n        media_prazo=0\n        pass\n    response.write(\'\\n            <li class="list-group-item d-flex justify-content-between">\\n              <div>\\n                <h6 class="my-0"><b>M\\xc3\\xa9dia Prazo</b></h6> <small class="text-muted">Por dia</small>\\n              </div> <span class="text-muted">R$ \', escape=False)\n    response.write("{:,.2f}".format(round(media_prazo,2)).replace(",","#").replace(".",",").replace("#","."))\n    response.write(\'</span>\\n            </li>\\n            \', escape=False)\n    if (projeto.total_venda_vista!=0)and(dias!=0):\n        response.write(\'\\n            \', escape=False)\n        media_vista=projeto.total_venda_vista/dias\n    else:\n        media_vista=0\n        pass\n    response.write(\'\\n            <li class="list-group-item d-flex justify-content-between">\\n              <div>\\n                  <h6 class="my-0"><b>M\\xc3\\xa9dia Vista</b></h6> <small class="text-muted">Por dia</small>\\n              </div> <span class="text-muted">R$ \', escape=False)\n    response.write("{:,.2f}".format(round(media_vista,2)).replace(",","#").replace(".",",").replace("#","."))\n    response.write(\'</span>\\n            </li>\\n            \', escape=False)\n    venda_ideal=projeto.total_preco_mercadoria*0.85\n    response.write(\'\\n            <li class="list-group-item d-flex justify-content-between bg-light">\\n              <div class="text-success">\\n                <h6 class="my-0"><b>Venda Ideal</b></h6> <small>Proje\\xc3\\xa7\\xc3\\xa3o 85%</small>\\n              </div> <span class="text-success">R$ \', escape=False)\n    response.write("{:,.2f}".format(round(venda_ideal,2)).replace(",","#").replace(".",",").replace("#","."))\n    response.write(\'</span>\\n            </li>\\n            \\n        \', escape=False)\n    datafinalprojetada=ultimadata\n    response.write(\'\\n        \', escape=False)\n    totalmediavenda=media_vista+media_prazo\n    response.write(\'\\n        \', escape=False)\n    if (totalmediavenda>0) and (venda_ideal>0):\n        response.write(\'\\n        \', escape=False)\n        projecao=(venda_ideal)/totalmediavenda\n        response.write(\'\\n        \', escape=False)\n    else:\n        response.write(\'\\n        \', escape=False)\n        projecao=0\n        response.write(\'\\n        \', escape=False)\n        pass\n    response.write(\'\\n        \', escape=False)\n    datafinalprojetada=date.fromordinal(primiradata.toordinal()+int(projecao))\n    response.write(\'\\n            \', escape=False)\n    estoque_ideal=projeto.total_preco_mercadoria*0.15\n    response.write(\'\\n            <li class="list-group-item d-flex justify-content-between">\\n              <div>\\n                <h6 class="my-0"><b>Estoque/Ideal</b></h6> <small class="text-muted">\', escape=False)\n    response.write(datafinalprojetada.strftime(\'%d/%m/%Y\'))\n    response.write(\'</small>\\n              </div> <span class="text-muted">R$ \', escape=False)\n    response.write("{:,.2f}".format(round(estoque_ideal,2)).replace(",","#").replace(".",",").replace("#","."))\n    response.write(\'</span>\\n            </li>\\n          </ul>\\n        </div>\\n        <div class="col-md-4">\\n          <ul class="list-group">\\n            \', escape=False)\n    if (projeto.total_despesa_venda>0)and(projeto.total_venda_prazo>0):\n        response.write(\'\\n            \', escape=False)\n        percentototal=projeto.total_despesa_venda/projeto.total_venda_prazo\n        response.write(\'\\n            \', escape=False)\n    else:\n        response.write(\'\\n            \', escape=False)\n        percentototal=0\n        response.write(\'\\n            \', escape=False)\n        pass\n    response.write(\'\\n            <li class="list-group-item d-flex justify-content-between">\\n              <div>\\n                  <h6 class="my-0"><b>Total Despesa</b></h6> <small class="text-muted">\', escape=False)\n    response.write("{:,.1f}".format(round(percentototal*100,1)))\n    response.write(\'%</small>\\n              </div> <span class="text-muted">R$ \', escape=False)\n    response.write("{:,.2f}".format(round(projeto.total_despesa_venda,2)).replace(",","#").replace(".",",").replace("#","."))\n    response.write(\'</span>\\n            </li>\\n            <li class="list-group-item d-flex justify-content-between">\\n              <div>\\n                \', escape=False)\n    despsemvenda=projeto.total_despesa_venda-totaldespesa\n    response.write(\'\\n            \', escape=False)\n    if (despsemvenda>0)and(projeto.total_venda_prazo>0):\n        response.write(\'\\n            \', escape=False)\n        percentototal=despsemvenda/projeto.total_venda_prazo*100\n        response.write(\'\\n            \', escape=False)\n    else:\n        response.write(\'\\n            \', escape=False)\n        percentototal=0\n        response.write(\'\\n            \', escape=False)\n        pass\n    response.write(\'\\n                <h6 class="my-0">Despesa Sem Venda</h6> <small class="text-muted">\', escape=False)\n    response.write("{:,.1f}".format(round(percentototal,1)))\n    response.write(\'%</small>\\n              </div> <span class="text-muted">R$ \', escape=False)\n    response.write("{:,.2f}".format(round(despsemvenda,2)).replace(",","#").replace(".",",").replace("#","."))\n    response.write(\'</span>\\n            </li>\\n            <li class="list-group-item d-flex justify-content-between">\\n              <div>\\n            \', escape=False)\n    if (totaldespesa>0)and(projeto.total_venda_prazo>0):\n        response.write(\'\\n            \', escape=False)\n        percentototal=totaldespesa/projeto.total_venda_prazo*100\n        response.write(\'\\n            \', escape=False)\n    else:\n        response.write(\'\\n            \', escape=False)\n        percentototal=0\n        response.write(\'\\n            \', escape=False)\n        pass\n    response.write(\'\\n                <h6 class="my-0"><b>Despesa Com Venda</b></h6> <small class="text-muted">\', escape=False)\n    response.write("{:,.1f}".format(round(percentototal,1)))\n    response.write(\'%</small>\\n              </div> <span class="text-muted">R$ \', escape=False)\n    response.write("{:,.2f}".format(round(totaldespesa,2)).replace(",","#").replace(".",",").replace("#","."))\n    response.write(\'</span>\\n            </li>\\n            <li class="list-group-item d-flex justify-content-between bg-light">\\n              \', escape=False)\n    if (dias>0)and(totaldespesa>0):\n        response.write(\'\\n              \', escape=False)\n        mediadia=totaldespesa/dias\n        response.write(\'\\n              \', escape=False)\n    else:\n        response.write(\'\\n               \', escape=False)\n        mediadia=0\n        response.write(\'\\n              \', escape=False)\n        pass\n    response.write(\'\\n              <div class="text-success">\\n                <h6 class="my-0"><b>M\\xc3\\xa9dia por dia</b></h6> <small>Despesa com venda</small>\\n              </div> <span class="text-success">R$ \', escape=False)\n    response.write("{:,.2f}".format(round(mediadia,2)).replace(",","#").replace(".",",").replace("#","."))\n    response.write(\'</span>\\n            </li>\\n            <li class="list-group-item d-flex justify-content-between"> <span>Total (USD)</span> <b>R$ \', escape=False)\n    response.write("{:,.2f}".format(round(mediadia,2)).replace(",","#").replace(".",",").replace("#","."))\n    response.write(\'</b> </li>\\n          </ul>\\n        </div>\\n        <div class="col-md-4">\\n          <ul class="list-group">\\n            <li class="list-group-item d-flex justify-content-between">\\n              <div>\\n                <h6 class="my-0"><b>Total de Vales</b></h6> <small class="text-muted">##</small>\\n              </div> <span class="text-muted">R$ \', escape=False)\n    response.write("{:,.2f}".format(round(projeto.total_vales_vendedor,2)).replace(",","#").replace(".",",").replace("#","."))\n    response.write(\'</span>\\n            </li>\\n            <li class="list-group-item d-flex justify-content-between">\\n              <div>\\n                <h6 class="my-0">Caderno</h6> <small class="text-muted">##</small>\\n              </div> <span class="text-muted">R$ \', escape=False)\n    response.write("{:,.2f}".format(round(projeto.total_caderno_vendedor,2)).replace(",","#").replace(".",",").replace("#","."))\n    response.write(\'</span>\\n            </li>\\n            <li class="list-group-item d-flex justify-content-between">\\n              <div>\\n                <h6 class="my-0"><b>Total de Vales</b></h6> <small class="text-muted">Brief description</small>\\n              </div> <span class="text-muted">R$ \', escape=False)\n    response.write("{:,.2f}".format(round(projeto.total_caderno_vendedor+projeto.total_vales_vendedor,2)).replace(",","#").replace(".",",").replace("#","."))\n    response.write(\'</span>\\n            </li>\\n            <li class="list-group-item d-flex justify-content-between bg-light">\\n              <div class="text-success">\\n                <h6 class="my-0"><b>Promo code</b></h6> <small>EXAMPLECODE</small>\\n              </div> <span class="text-success">-R$ \', escape=False)\n    response.write("{:,.2f}".format(round(0,2)).replace(",","#").replace(".",",").replace("#","."))\n    response.write(\'</span>\\n            </li>\\n            <li class="list-group-item d-flex justify-content-between"> <span>Total (USD)</span> <b>R$ \', escape=False)\n    response.write("{:,.2f}".format(round(0,2)).replace(",","#").replace(".",",").replace("#","."))\n    response.write(\'</b> </li>\\n          </ul>\\n        </div>\\n      </div>\\n    </div>\\n  </div>\\n\', escape=False)\n    pass\nresponse.write(\'\\n\', escape=False)\nresponse.write(\'\\n      \', escape=False)\nresponse.write(response.toolbar() if response.show_toolbar else \'\')\nresponse.write(\'\\n    </div>\\n    \', escape=False)\nresponse.write(\' <!-- this is default footer -->\\n    <footer id="noprint" class="footer container-fluid ">\\n      <div class="row">\\n        <div class="col-md-12">\\n          <div class="copyright pull-left">\', escape=False)\nresponse.write(T(\'Copyright\'))\nresponse.write(\' &#169; \', escape=False)\nresponse.write(request.now.year)\nresponse.write(\'</div>\\n          <div id="poweredBy" class="pull-right">\\n              Suporte <a href="https://api.whatsapp.com/send?phone=5588981126816">(88)98112-6816</a>\\n            </div>\\n        </div>\\n      </div>\\n    </footer>\\n <footer class="footer container-fluid d-none d-print-block">\\n      <div class="row">\\n        <div class="col-md-12">\\n          <div class="copyright pull-left">Suporte - (88)98112-6816</div>\\n          <div id="poweredBy" class="pull-right">\\n             \', escape=False)\nif auth.user:\n    response.write(auth.user.first_name)\n    response.write(\' \', escape=False)\n    response.write(auth.user.last_name)\nelse:\n    response.write(\'Aluminum System\', escape=False)\n    pass\nresponse.write(\'\\n          </div>\\n        </div>\\n      </div>\\n    </footer>\\n    \', escape=False)\nresponse.write(\'\\n    <!-- The javascript =============================== -->\\n    <script src="\', escape=False)\nresponse.write(URL(\'static\',\'js/bootstrap.bundle.min.js\'))\nresponse.write(\'"></script>\\n    <script src="\', escape=False)\nresponse.write(URL(\'static\',\'js/web2py-bootstrap4.js\'))\nresponse.write(\'"></script>\\n    \', escape=False)\nresponse.write(\'\\n    \', escape=False)\nif response.google_analytics_id:\n    response.write(\'\\n    <!-- Analytics ==================================== -->\\n    <script src="\', escape=False)\n    response.write(URL(\'static\',\'js/analytics.min.js\'))\n    response.write(\'"></script>\\n    <script type="text/javascript">\\n      analytics.initialize({\\n      \\\'Google Analytics\\\':{trackingId:\\\'\', escape=False)\n    response.write(response.google_analytics_id)\n    response.write("\'}\\n      });\\n    </script>\\n    ", escape=False)\n    pass\nresponse.write(\'\\n  </body>\\n</html>\\n\', escape=False)'
p7
sS'snapshot'
p8
(dp9
S'exception'
p10
(dp11
S'__getslice__'
p12
S"<method-wrapper '__getslice__' of exceptions.AttributeError object>"
p13
sS'__str__'
p14
S"<method-wrapper '__str__' of exceptions.AttributeError object>"
p15
sS'__reduce__'
p16
S'<built-in method __reduce__ of exceptions.AttributeError object>'
p17
sS'__dict__'
p18
S'{}'
p19
sS'message'
p20
S'"\'int\' object has no attribute \'days\'"'
p21
sS'__sizeof__'
p22
S'<built-in method __sizeof__ of exceptions.AttributeError object>'
p23
sS'__init__'
p24
S"<method-wrapper '__init__' of exceptions.AttributeError object>"
p25
sS'__setattr__'
p26
S"<method-wrapper '__setattr__' of exceptions.AttributeError object>"
p27
sS'__reduce_ex__'
p28
S'<built-in method __reduce_ex__ of exceptions.AttributeError object>'
p29
sS'__new__'
p30
S'<built-in method __new__ of type object>'
p31
sS'__format__'
p32
S'<built-in method __format__ of exceptions.AttributeError object>'
p33
sS'__class__'
p34
S"<type 'exceptions.AttributeError'>"
p35
sS'__doc__'
p36
S"'Attribute not found.'"
p37
sS'__getitem__'
p38
S"<method-wrapper '__getitem__' of exceptions.AttributeError object>"
p39
sS'__setstate__'
p40
S'<built-in method __setstate__ of exceptions.AttributeError object>'
p41
sS'__getattribute__'
p42
S"<method-wrapper '__getattribute__' of exceptions.AttributeError object>"
p43
sS'args'
p44
S'("\'int\' object has no attribute \'days\'",)'
p45
sS'__subclasshook__'
p46
S'<built-in method __subclasshook__ of type object>'
p47
sS'__unicode__'
p48
S'<built-in method __unicode__ of exceptions.AttributeError object>'
p49
sS'__delattr__'
p50
S"<method-wrapper '__delattr__' of exceptions.AttributeError object>"
p51
sS'__repr__'
p52
S"<method-wrapper '__repr__' of exceptions.AttributeError object>"
p53
sS'__hash__'
p54
S"<method-wrapper '__hash__' of exceptions.AttributeError object>"
p55
ssS'evalue'
p56
S"'int' object has no attribute 'days'"
p57
sS'request'
p58
cgluon.html
XML_unpickle
p59
(S'sCd\x00\x00<div><table><tr><td style="font-weight:bold;vertical-align:top;">ajax</td><td style="vertical-align:top;">:</td><td><div>False</div></td></tr><tr><td style="font-weight:bold;vertical-align:top;">application</td><td style="vertical-align:top;">:</td><td><div>aluminum</div></td></tr><tr><td style="font-weight:bold;vertical-align:top;">args</td><td style="vertical-align:top;">:</td><td><div><table><tr><td><div>191</div></td></tr></table></div></td></tr><tr><td style="font-weight:bold;vertical-align:top;">cid</td><td style="vertical-align:top;">:</td><td><div>None</div></td></tr><tr><td style="font-weight:bold;vertical-align:top;">client</td><td style="vertical-align:top;">:</td><td><div>191.212.144.51</div></td></tr><tr><td style="font-weight:bold;vertical-align:top;">controller</td><td style="vertical-align:top;">:</td><td><div>acs_projeto</div></td></tr><tr><td style="font-weight:bold;vertical-align:top;">cookies</td><td style="vertical-align:top;">:</td><td><div><table><tr><td style="font-weight:bold;vertical-align:top;">session_id_agrosystem</td><td style="vertical-align:top;">:</td><td><div>177.37.187.208-fff9fd97-fca3-403a-a8ac-ed290b131819<table><tr><td style="font-weight:bold;vertical-align:top;">comment</td><td style="vertical-align:top;">:</td><td><div></div></td></tr><tr><td style="font-weight:bold;vertical-align:top;">domain</td><td style="vertical-align:top;">:</td><td><div></div></td></tr><tr><td style="font-weight:bold;vertical-align:top;">expires</td><td style="vertical-align:top;">:</td><td><div></div></td></tr><tr><td style="font-weight:bold;vertical-align:top;">httponly</td><td style="vertical-align:top;">:</td><td><div></div></td></tr><tr><td style="font-weight:bold;vertical-align:top;">max-age</td><td style="vertical-align:top;">:</td><td><div></div></td></tr><tr><td style="font-weight:bold;vertical-align:top;">path</td><td style="vertical-align:top;">:</td><td><div></div></td></tr><tr><td style="font-weight:bold;vertical-align:top;">secure</td><td style="vertical-align:top;">:</td><td><div></div></td></tr><tr><td style="font-weight:bold;vertical-align:top;">version</td><td style="vertical-align:top;">:</td><td><div></div></td></tr></table></div></td></tr><tr><td style="font-weight:bold;vertical-align:top;">session_id_aluminum</td><td style="vertical-align:top;">:</td><td><div>191.212.144.51-c3efe009-b46a-4923-b953-92fa132f742c<table><tr><td style="font-weight:bold;vertical-align:top;">comment</td><td style="vertical-align:top;">:</td><td><div></div></td></tr><tr><td style="font-weight:bold;vertical-align:top;">domain</td><td style="vertical-align:top;">:</td><td><div></div></td></tr><tr><td style="font-weight:bold;vertical-align:top;">expires</td><td style="vertical-align:top;">:</td><td><div></div></td></tr><tr><td style="font-weight:bold;vertical-align:top;">httponly</td><td style="vertical-align:top;">:</td><td><div></div></td></tr><tr><td style="font-weight:bold;vertical-align:top;">max-age</td><td style="vertical-align:top;">:</td><td><div></div></td></tr><tr><td style="font-weight:bold;vertical-align:top;">path</td><td style="vertical-align:top;">:</td><td><div></div></td></tr><tr><td style="font-weight:bold;vertical-align:top;">secure</td><td style="vertical-align:top;">:</td><td><div></div></td></tr><tr><td style="font-weight:bold;vertical-align:top;">version</td><td style="vertical-align:top;">:</td><td><div></div></td></tr></table></div></td></tr><tr><td style="font-weight:bold;vertical-align:top;">session_id_welcome</td><td style="vertical-align:top;">:</td><td><div>191.212.144.51-cdd5ee2f-afd0-4c03-9139-999689c788a4<table><tr><td style="font-weight:bold;vertical-align:top;">comment</td><td style="vertical-align:top;">:</td><td><div></div></td></tr><tr><td style="font-weight:bold;vertical-align:top;">domain</td><td style="vertical-align:top;">:</td><td><div></div></td></tr><tr><td style="font-weight:bold;vertical-align:top;">expires</td><td style="vertical-align:top;">:</td><td><div></div></td></tr><tr><td style="font-weight:bold;vertical-align:top;">httponly</td><td style="vertical-align:top;">:</td><td><div></div></td></tr><tr><td style="font-weight:bold;vertical-align:top;">max-age</td><td style="vertical-align:top;">:</td><td><div></div></td></tr><tr><td style="font-weight:bold;vertical-align:top;">path</td><td style="vertical-align:top;">:</td><td><div></div></td></tr><tr><td style="font-weight:bold;vertical-align:top;">secure</td><td style="vertical-align:top;">:</td><td><div></div></td></tr><tr><td style="font-weight:bold;vertical-align:top;">version</td><td style="vertical-align:top;">:</td><td><div></div></td></tr></table></div></td></tr></table></div></td></tr><tr><td style="font-weight:bold;vertical-align:top;">env</td><td style="vertical-align:top;">:</td><td><div><table><tr><td style="font-weight:bold;vertical-align:top;">CONTENT_LENGTH</td><td style="vertical-align:top;">:</td><td><div></div></td></tr><tr><td style="font-weight:bold;vertical-align:top;">CONTENT_TYPE</td><td style="vertical-align:top;">:</td><td><div></div></td></tr><tr><td style="font-weight:bold;vertical-align:top;">DOCUMENT_ROOT</td><td style="vertical-align:top;">:</td><td><div>/usr/local/openresty/nginx/html</div></td></tr><tr><td style="font-weight:bold;vertical-align:top;">HTTPS</td><td style="vertical-align:top;">:</td><td><div>on</div></td></tr><tr><td style="font-weight:bold;vertical-align:top;">HTTP_ACCEPT</td><td style="vertical-align:top;">:</td><td><div>text/html,application/xhtml+xml,application/xml;q=0.9,image/avif,image/webp,image/apng,*/*;q=0.8,application/signed-exchange;v=b3;q=0.9</div></td></tr><tr><td style="font-weight:bold;vertical-align:top;">HTTP_ACCEPT_ENCODING</td><td style="vertical-align:top;">:</td><td><div>gzip, deflate, br</div></td></tr><tr><td style="font-weight:bold;vertical-align:top;">HTTP_ACCEPT_LANGUAGE</td><td style="vertical-align:top;">:</td><td><div>pt-BR,pt;q=0.9</div></td></tr><tr><td style="font-weight:bold;vertical-align:top;">HTTP_CONNECTION</td><td style="vertical-align:top;">:</td><td><div>close</div></td></tr><tr><td style="font-weight:bold;vertical-align:top;">HTTP_COOKIE</td><td style="vertical-align:top;">:</td><td><div>_ga=GA1.2.284465024.1588256692; session_id_agrosystem=177.37.187.208-fff9fd97-fca3-403a-a8ac-ed290b131819; _gid=GA1.2.74155675.1621856074; session_id_welcome=191.212.144.51-cdd5ee2f-afd0-4c03-9139-999689c788a4; _gat=1; session_id_aluminum=191.212.144.51-c3efe009-b46a-4923-b953-92fa132f742c</div></td></tr><tr><td style="font-weight:bold;vertical-align:top;">HTTP_HOST</td><td style="vertical-align:top;">:</td><td><div>rogoberto.pythonanywhere.com</div></td></tr><tr><td style="font-weight:bold;vertical-align:top;">HTTP_REFERER</td><td style="vertical-align:top;">:</td><td><div>https://rogoberto.pythonanywhere.com/aluminum/acs_projeto/particoes/117</div></td></tr><tr><td style="font-weight:bold;vertical-align:top;">HTTP_SAVE_DATA</td><td style="vertical-align:top;">:</td><td><div>on</div></td></tr><tr><td style="font-weight:bold;vertical-align:top;">HTTP_SEC_CH_UA</td><td style="vertical-align:top;">:</td><td><div>&quot; Not A;Brand&quot;;v=&quot;99&quot;, &quot;Chromium&quot;;v=&quot;90&quot;, &quot;Google Chrome&quot;;v=&quot;90&quot;</div></td></tr><tr><td style="font-weight:bold;vertical-align:top;">HTTP_SEC_CH_UA_MOBILE</td><td style="vertical-align:top;">:</td><td><div>?1</div></td></tr><tr><td style="font-weight:bold;vertical-align:top;">HTTP_SEC_FETCH_DEST</td><td style="vertical-align:top;">:</td><td><div>document</div></td></tr><tr><td style="font-weight:bold;vertical-align:top;">HTTP_SEC_FETCH_MODE</td><td style="vertical-align:top;">:</td><td><div>navigate</div></td></tr><tr><td style="font-weight:bold;vertical-align:top;">HTTP_SEC_FETCH_SITE</td><td style="vertical-align:top;">:</td><td><div>same-origin</div></td></tr><tr><td style="font-weight:bold;vertical-align:top;">HTTP_SEC_FETCH_USER</td><td style="vertical-align:top;">:</td><td><div>?1</div></td></tr><tr><td style="font-weight:bold;vertical-align:top;">HTTP_UPGRADE_INSECURE_REQUESTS</td><td style="vertical-align:top;">:</td><td><div>1</div></td></tr><tr><td style="font-weight:bold;vertical-align:top;">HTTP_USER_AGENT</td><td style="vertical-align:top;">:</td><td><div>Mozilla/5.0 (Linux; Android 9; ASUS_X01BDA) AppleWebKit/537.36 (KHTML, like Gecko) Chrome/90.0.4430.210 Mobile Safari/537.36</div></td></tr><tr><td style="font-weight:bold;vertical-align:top;">HTTP_X_FORWARDED_FOR</td><td style="vertical-align:top;">:</td><td><div>191.212.144.51</div></td></tr><tr><td style="font-weight:bold;vertical-align:top;">HTTP_X_REAL_IP</td><td style="vertical-align:top;">:</td><td><div>191.212.144.51</div></td></tr><tr><td style="font-weight:bold;vertical-align:top;">PATH_INFO</td><td style="vertical-align:top;">:</td><td><div>/aluminum/acs_projeto/acesso_vendas_particao/191</div></td></tr><tr><td style="font-weight:bold;vertical-align:top;">QUERY_STRING</td><td style="vertical-align:top;">:</td><td><div></div></td></tr><tr><td style="font-weight:bold;vertical-align:top;">REMOTE_ADDR</td><td style="vertical-align:top;">:</td><td><div>10.0.0.93</div></td></tr><tr><td style="font-weight:bold;vertical-align:top;">REMOTE_PORT</td><td style="vertical-align:top;">:</td><td><div>52350</div></td></tr><tr><td style="font-weight:bold;vertical-align:top;">REQUEST_METHOD</td><td style="vertical-align:top;">:</td><td><div>GET</div></td></tr><tr><td style="font-weight:bold;vertical-align:top;">REQUEST_URI</td><td style="vertical-align:top;">:</td><td><div>/aluminum/acs_projeto/acesso_vendas_particao/191</div></td></tr><tr><td style="font-weight:bold;vertical-align:top;">SCRIPT_NAME</td><td style="vertical-align:top;">:</td><td><div></div></td></tr><tr><td style="font-weight:bold;vertical-align:top;">SERVER_NAME</td><td style="vertical-align:top;">:</td><td><div>rogoberto.pythonanywhere.com</div></td></tr><tr><td style="font-weight:bold;vertical-align:top;">SERVER_PORT</td><td style="vertical-align:top;">:</td><td><div>443</div></td></tr><tr><td style="font-weight:bold;vertical-align:top;">SERVER_PROTOCOL</td><td style="vertical-align:top;">:</td><td><div>HTTP/1.1</div></td></tr><tr><td style="font-weight:bold;vertical-align:top;">app_folders</td><td style="vertical-align:top;">:</td><td><div>set([&#x27;/home/rogoberto/web2py/applications/welcome/&#x27;, &#x27;/home/rogoberto/web2py/applications/admin/&#x27;, &#x27;/home/rogoberto/web2py/applications/agrosystem/&#x27;, &#x27;/home/rogoberto/web2py/applications/prodigy/&#x27;, &#x27;/home/rogoberto/web2py/applications/aluminum/&#x27;])</div></td></tr><tr><td style="font-weight:bold;vertical-align:top;">applications_parent</td><td style="vertical-align:top;">:</td><td><div>/home/rogoberto/web2py</div></td></tr><tr><td style="font-weight:bold;vertical-align:top;">content_length</td><td style="vertical-align:top;">:</td><td><div></div></td></tr><tr><td style="font-weight:bold;vertical-align:top;">content_type</td><td style="vertical-align:top;">:</td><td><div></div></td></tr><tr><td style="font-weight:bold;vertical-align:top;">db_sessions</td><td style="vertical-align:top;">:</td><td><div>set([])</div></td></tr><tr><td style="font-weight:bold;vertical-align:top;">debugging</td><td style="vertical-align:top;">:</td><td><div>True</div></td></tr><tr><td style="font-weight:bold;vertical-align:top;">document_root</td><td style="vertical-align:top;">:</td><td><div>/usr/local/openresty/nginx/html</div></td></tr><tr><td style="font-weight:bold;vertical-align:top;">gluon_parent</td><td style="vertical-align:top;">:</td><td><div>/home/rogoberto/web2py</div></td></tr><tr><td style="font-weight:bold;vertical-align:top;">http_accept</td><td style="vertical-align:top;">:</td><td><div>text/html,application/xhtml+xml,application/xml;q=0.9,image/avif,image/webp,image/apng,*/*;q=0.8,application/signed-exchange;v=b3;q=0.9</div></td></tr><tr><td style="font-weight:bold;vertical-align:top;">http_accept_encoding</td><td style="vertical-align:top;">:</td><td><div>gzip, deflate, br</div></td></tr><tr><td style="font-weight:bold;vertical-align:top;">http_accept_language</td><td style="vertical-align:top;">:</td><td><div>pt-BR,pt;q=0.9</div></td></tr><tr><td style="font-weight:bold;vertical-align:top;">http_connection</td><td style="vertical-align:top;">:</td><td><div>close</div></td></tr><tr><td style="font-weight:bold;vertical-align:top;">http_cookie</td><td style="vertical-align:top;">:</td><td><div>_ga=GA1.2.284465024.1588256692; session_id_agrosystem=177.37.187.208-fff9fd97-fca3-403a-a8ac-ed290b131819; _gid=GA1.2.74155675.1621856074; session_id_welcome=191.212.144.51-cdd5ee2f-afd0-4c03-9139-999689c788a4; _gat=1; session_id_aluminum=191.212.144.51-c3efe009-b46a-4923-b953-92fa132f742c</div></td></tr><tr><td style="font-weight:bold;vertical-align:top;">http_host</td><td style="vertical-align:top;">:</td><td><div>rogoberto.pythonanywhere.com</div></td></tr><tr><td style="font-weight:bold;vertical-align:top;">http_referer</td><td style="vertical-align:top;">:</td><td><div>https://rogoberto.pythonanywhere.com/aluminum/acs_projeto/particoes/117</div></td></tr><tr><td style="font-weight:bold;vertical-align:top;">http_save_data</td><td style="vertical-align:top;">:</td><td><div>on</div></td></tr><tr><td style="font-weight:bold;vertical-align:top;">http_sec_ch_ua</td><td style="vertical-align:top;">:</td><td><div>&quot; Not A;Brand&quot;;v=&quot;99&quot;, &quot;Chromium&quot;;v=&quot;90&quot;, &quot;Google Chrome&quot;;v=&quot;90&quot;</div></td></tr><tr><td style="font-weight:bold;vertical-align:top;">http_sec_ch_ua_mobile</td><td style="vertical-align:top;">:</td><td><div>?1</div></td></tr><tr><td style="font-weight:bold;vertical-align:top;">http_sec_fetch_dest</td><td style="vertical-align:top;">:</td><td><div>document</div></td></tr><tr><td style="font-weight:bold;vertical-align:top;">http_sec_fetch_mode</td><td style="vertical-align:top;">:</td><td><div>navigate</div></td></tr><tr><td style="font-weight:bold;vertical-align:top;">http_sec_fetch_site</td><td style="vertical-align:top;">:</td><td><div>same-origin</div></td></tr><tr><td style="font-weight:bold;vertical-align:top;">http_sec_fetch_user</td><td style="vertical-align:top;">:</td><td><div>?1</div></td></tr><tr><td style="font-weight:bold;vertical-align:top;">http_upgrade_insecure_requests</td><td style="vertical-align:top;">:</td><td><div>1</div></td></tr><tr><td style="font-weight:bold;vertical-align:top;">http_user_agent</td><td style="vertical-align:top;">:</td><td><div>Mozilla/5.0 (Linux; Android 9; ASUS_X01BDA) AppleWebKit/537.36 (KHTML, like Gecko) Chrome/90.0.4430.210 Mobile Safari/537.36</div></td></tr><tr><td style="font-weight:bold;vertical-align:top;">http_x_forwarded_for</td><td style="vertical-align:top;">:</td><td><div>191.212.144.51</div></td></tr><tr><td style="font-weight:bold;vertical-align:top;">http_x_real_ip</td><td style="vertical-align:top;">:</td><td><div>191.212.144.51</div></td></tr><tr><td style="font-weight:bold;vertical-align:top;">https</td><td style="vertical-align:top;">:</td><td><div>on</div></td></tr><tr><td style="font-weight:bold;vertical-align:top;">is_jython</td><td style="vertical-align:top;">:</td><td><div>False</div></td></tr><tr><td style="font-weight:bold;vertical-align:top;">is_py2</td><td style="vertical-align:top;">:</td><td><div>True</div></td></tr><tr><td style="font-weight:bold;vertical-align:top;">is_pypy</td><td style="vertical-align:top;">:</td><td><div>False</div></td></tr><tr><td style="font-weight:bold;vertical-align:top;">is_source</td><td style="vertical-align:top;">:</td><td><div>True</div></td></tr><tr><td style="font-weight:bold;vertical-align:top;">local_hosts</td><td style="vertical-align:top;">:</td><td><div><table><tr><td><div>35.173.69.207</div></td></tr><tr><td><div>::ffff:127.0.0.1</div></td></tr><tr><td><div>::1</div></td></tr><tr><td><div>rogoberto.pythonanywhere.com</div></td></tr><tr><td><div>green-liveweb16</div></td></tr><tr><td><div>127.0.0.1</div></td></tr><tr><td><div>localhost</div></td></tr></table></div></td></tr><tr><td style="font-weight:bold;vertical-align:top;">path_info</td><td style="vertical-align:top;">:</td><td><div>/aluminum/acs_projeto/acesso_vendas_particao/191</div></td></tr><tr><td style="font-weight:bold;vertical-align:top;">query_string</td><td style="vertical-align:top;">:</td><td><div></div></td></tr><tr><td style="font-weight:bold;vertical-align:top;">remote_addr</td><td style="vertical-align:top;">:</td><td><div>10.0.0.93</div></td></tr><tr><td style="font-weight:bold;vertical-align:top;">remote_port</td><td style="vertical-align:top;">:</td><td><div>52350</div></td></tr><tr><td style="font-weight:bold;vertical-align:top;">request_method</td><td style="vertical-align:top;">:</td><td><div>GET</div></td></tr><tr><td style="font-weight:bold;vertical-align:top;">request_uri</td><td style="vertical-align:top;">:</td><td><div>/aluminum/acs_projeto/acesso_vendas_particao/191</div></td></tr><tr><td style="font-weight:bold;vertical-align:top;">script_name</td><td style="vertical-align:top;">:</td><td><div></div></td></tr><tr><td style="font-weight:bold;vertical-align:top;">server_name</td><td style="vertical-align:top;">:</td><td><div>rogoberto.pythonanywhere.com</div></td></tr><tr><td style="font-weight:bold;vertical-align:top;">server_port</td><td style="vertical-align:top;">:</td><td><div>443</div></td></tr><tr><td style="font-weight:bold;vertical-align:top;">server_protocol</td><td style="vertical-align:top;">:</td><td><div>HTTP/1.1</div></td></tr><tr><td style="font-weight:bold;vertical-align:top;">uwsgi.node</td><td style="vertical-align:top;">:</td><td><div>green-liveweb16</div></td></tr><tr><td style="font-weight:bold;vertical-align:top;">uwsgi.version</td><td style="vertical-align:top;">:</td><td><div>2.0.17.1</div></td></tr><tr><td style="font-weight:bold;vertical-align:top;">uwsgi_node</td><td style="vertical-align:top;">:</td><td><div>green-liveweb16</div></td></tr><tr><td style="font-weight:bold;vertical-align:top;">uwsgi_version</td><td style="vertical-align:top;">:</td><td><div>2.0.17.1</div></td></tr><tr><td style="font-weight:bold;vertical-align:top;">web2py_original_uri</td><td style="vertical-align:top;">:</td><td><div>/aluminum/acs_projeto/acesso_vendas_particao/191</div></td></tr><tr><td style="font-weight:bold;vertical-align:top;">web2py_path</td><td style="vertical-align:top;">:</td><td><div>/home/rogoberto/web2py</div></td></tr><tr><td style="font-weight:bold;vertical-align:top;">web2py_version</td><td style="vertical-align:top;">:</td><td><div>2.17.1-stable+timestamp.2018.08.06.01.02.56</div></td></tr><tr><td style="font-weight:bold;vertical-align:top;">wsgi.errors</td><td style="vertical-align:top;">:</td><td><div>&lt;uwsgi_file__bin_user_wsgi_wrapper.ErrorLogFile object at 0x7f6b8a208cd0&gt;</div></td></tr><tr><td style="font-weight:bold;vertical-align:top;">wsgi.file_wrapper</td><td style="vertical-align:top;">:</td><td><div>&lt;built-in function uwsgi_sendfile&gt;</div></td></tr><tr><td style="font-weight:bold;vertical-align:top;">wsgi.input</td><td style="vertical-align:top;">:</td><td><div>&lt;uwsgi._Input object at 0x7f6b80c78ed0&gt;</div></td></tr><tr><td style="font-weight:bold;vertical-align:top;">wsgi.multiprocess</td><td style="vertical-align:top;">:</td><td><div>True</div></td></tr><tr><td style="font-weight:bold;vertical-align:top;">wsgi.multithread</td><td style="vertical-align:top;">:</td><td><div>False</div></td></tr><tr><td style="font-weight:bold;vertical-align:top;">wsgi.run_once</td><td style="vertical-align:top;">:</td><td><div>False</div></td></tr><tr><td style="font-weight:bold;vertical-align:top;">wsgi.url_scheme</td><td style="vertical-align:top;">:</td><td><div>https</div></td></tr><tr><td style="font-weight:bold;vertical-align:top;">wsgi.version</td><td style="vertical-align:top;">:</td><td><div><table><tr><td><div>1</div></td></tr><tr><td><div>0</div></td></tr></table></div></td></tr><tr><td style="font-weight:bold;vertical-align:top;">wsgi_errors</td><td style="vertical-align:top;">:</td><td><div>&lt;uwsgi_file__bin_user_wsgi_wrapper.ErrorLogFile object at 0x7f6b8a208cd0&gt;</div></td></tr><tr><td style="font-weight:bold;vertical-align:top;">wsgi_file_wrapper</td><td style="vertical-align:top;">:</td><td><div>&lt;built-in function uwsgi_sendfile&gt;</div></td></tr><tr><td style="font-weight:bold;vertical-align:top;">wsgi_input</td><td style="vertical-align:top;">:</td><td><div>&lt;uwsgi._Input object at 0x7f6b80c78ed0&gt;</div></td></tr><tr><td style="font-weight:bold;vertical-align:top;">wsgi_multiprocess</td><td style="vertical-align:top;">:</td><td><div>True</div></td></tr><tr><td style="font-weight:bold;vertical-align:top;">wsgi_multithread</td><td style="vertical-align:top;">:</td><td><div>False</div></td></tr><tr><td style="font-weight:bold;vertical-align:top;">wsgi_run_once</td><td style="vertical-align:top;">:</td><td><div>False</div></td></tr><tr><td style="font-weight:bold;vertical-align:top;">wsgi_url_scheme</td><td style="vertical-align:top;">:</td><td><div>https</div></td></tr><tr><td style="font-weight:bold;vertical-align:top;">wsgi_version</td><td style="vertical-align:top;">:</td><td><div><table><tr><td><div>1</div></td></tr><tr><td><div>0</div></td></tr></table></div></td></tr></table></div></td></tr><tr><td style="font-weight:bold;vertical-align:top;">extension</td><td style="vertical-align:top;">:</td><td><div>html</div></td></tr><tr><td style="font-weight:bold;vertical-align:top;">folder</td><td style="vertical-align:top;">:</td><td><div>/home/rogoberto/web2py/applications/aluminum/</div></td></tr><tr><td style="font-weight:bold;vertical-align:top;">function</td><td style="vertical-align:top;">:</td><td><div>acesso_vendas_particao</div></td></tr><tr><td style="font-weight:bold;vertical-align:top;">global_settings</td><td style="vertical-align:top;">:</td><td><div><table><tr><td style="font-weight:bold;vertical-align:top;">app_folders</td><td style="vertical-align:top;">:</td><td><div>set([&#x27;/home/rogoberto/web2py/applications/welcome/&#x27;, &#x27;/home/rogoberto/web2py/applications/admin/&#x27;, &#x27;/home/rogoberto/web2py/applications/agrosystem/&#x27;, &#x27;/home/rogoberto/web2py/applications/prodigy/&#x27;, &#x27;/home/rogoberto/web2py/applications/aluminum/&#x27;])</div></td></tr><tr><td style="font-weight:bold;vertical-align:top;">applications_parent</td><td style="vertical-align:top;">:</td><td><div>/home/rogoberto/web2py</div></td></tr><tr><td style="font-weight:bold;vertical-align:top;">db_sessions</td><td style="vertical-align:top;">:</td><td><div>set([])</div></td></tr><tr><td style="font-weight:bold;vertical-align:top;">debugging</td><td style="vertical-align:top;">:</td><td><div>True</div></td></tr><tr><td style="font-weight:bold;vertical-align:top;">gluon_parent</td><td style="vertical-align:top;">:</td><td><div>/home/rogoberto/web2py</div></td></tr><tr><td style="font-weight:bold;vertical-align:top;">is_jython</td><td style="vertical-align:top;">:</td><td><div>False</div></td></tr><tr><td style="font-weight:bold;vertical-align:top;">is_py2</td><td style="vertical-align:top;">:</td><td><div>True</div></td></tr><tr><td style="font-weight:bold;vertical-align:top;">is_pypy</td><td style="vertical-align:top;">:</td><td><div>False</div></td></tr><tr><td style="font-weight:bold;vertical-align:top;">is_source</td><td style="vertical-align:top;">:</td><td><div>True</div></td></tr><tr><td style="font-weight:bold;vertical-align:top;">local_hosts</td><td style="vertical-align:top;">:</td><td><div><table><tr><td><div>35.173.69.207</div></td></tr><tr><td><div>::ffff:127.0.0.1</div></td></tr><tr><td><div>::1</div></td></tr><tr><td><div>rogoberto.pythonanywhere.com</div></td></tr><tr><td><div>green-liveweb16</div></td></tr><tr><td><div>127.0.0.1</div></td></tr><tr><td><div>localhost</div></td></tr></table></div></td></tr><tr><td style="font-weight:bold;vertical-align:top;">web2py_version</td><td style="vertical-align:top;">:</td><td><div>2.17.1-stable+timestamp.2018.08.06.01.02.56</div></td></tr></table></div></td></tr><tr><td style="font-weight:bold;vertical-align:top;">is_https</td><td style="vertical-align:top;">:</td><td><div>True</div></td></tr><tr><td style="font-weight:bold;vertical-align:top;">is_local</td><td style="vertical-align:top;">:</td><td><div>False</div></td></tr><tr><td style="font-weight:bold;vertical-align:top;">is_restful</td><td style="vertical-align:top;">:</td><td><div>False</div></td></tr><tr><td style="font-weight:bold;vertical-align:top;">is_scheduler</td><td style="vertical-align:top;">:</td><td><div>False</div></td></tr><tr><td style="font-weight:bold;vertical-align:top;">is_shell</td><td style="vertical-align:top;">:</td><td><div>False</div></td></tr><tr><td style="font-weight:bold;vertical-align:top;">method</td><td style="vertical-align:top;">:</td><td><div>GET</div></td></tr><tr><td style="font-weight:bold;vertical-align:top;">now</td><td style="vertical-align:top;">:</td><td><div>datetime.datetime(2021, 5, 25, 18, 2, 27, 786357)</div></td></tr><tr><td style="font-weight:bold;vertical-align:top;">url</td><td style="vertical-align:top;">:</td><td><div>/aluminum/acs_projeto/acesso_vendas_particao/191</div></td></tr><tr><td style="font-weight:bold;vertical-align:top;">utcnow</td><td style="vertical-align:top;">:</td><td><div>datetime.datetime(2021, 5, 25, 18, 2, 27, 786370)</div></td></tr><tr><td style="font-weight:bold;vertical-align:top;">wsgi</td><td style="vertical-align:top;">:</td><td><div>&lt;gluon.main.LazyWSGI object at 0x7f6b8081bc10&gt;</div></td></tr></table></div>'
tRp60
sS'frames'
p61
(lp62
(dp63
S'file'
p64
S'/home/rogoberto/web2py/gluon/restricted.py'
p65
sS'dump'
p66
(dp67
S'environment'
p68
S"{'A': <class 'gluon.html.A'>, 'ANY_OF': <class 'gluon.validators.ANY_OF'>, 'ASSIGNJS': <function ASSIGNJS>, 'AppConfig': <function AppConfig>, 'Auth': <class 'gluon.tools.Auth'>, 'B': <class 'gluon.html.B'>, 'BEAUTIFY': <class 'gluon.html.BEAUTIFY'>, 'BODY': <class 'gluon.html.BODY'>, 'BR': <class 'gluon.html.BR'>, 'BUTTON': <class 'gluon.html.BUTTON'>, ...}"
p69
sS'ccode'
p70
S'<code object <module> at 0x7f6b83223330, file "/...acs_projeto/acesso_vendas_particao.html", line 1>'
p71
ssS'lnum'
p72
I219
sS'lines'
p73
(dp74
I214
S'    if environment is None:'
p75
sI215
S'        environment = {}'
p76
sI216
S"    environment['__file__'] = layer"
p77
sI217
S"    environment['__name__'] = '__restricted__'"
p78
sI218
S'    try:'
p79
sI219
S'        exec(ccode, environment)'
p80
sI220
S'    except HTTP:'
p81
sI221
S'        raise'
p82
sI222
S'    except RestrictedError:'
p83
sI223
S'        # do not encapsulate (obfuscate) the original RestrictedError'
p84
ssS'call'
p85
S'(ccode=<code object <module> at 0x7f6b83223330, file "/...acs_projeto/acesso_vendas_particao.html", line 1>, environment={\'A\': <class \'gluon.html.A\'>, \'ANY_OF\': <class \'gluon.validators.ANY_OF\'>, \'ASSIGNJS\': <function ASSIGNJS>, \'AppConfig\': <function AppConfig>, \'Auth\': <class \'gluon.tools.Auth\'>, \'B\': <class \'gluon.html.B\'>, \'BEAUTIFY\': <class \'gluon.html.BEAUTIFY\'>, \'BODY\': <class \'gluon.html.BODY\'>, \'BR\': <class \'gluon.html.BR\'>, \'BUTTON\': <class \'gluon.html.BUTTON\'>, ...}, layer=\'/home/rogoberto/web2py/applications/aluminum/views/acs_projeto/acesso_vendas_particao.html\', scode=r"response.write(\'<!DOCTYPE html>\\n<!--[if (gt IE ...nse.write(\'\\n  </body>\\n</html>\\n\', escape=False)")'
p86
sS'func'
p87
S'restricted'
p88
sa(dp89
g64
S'/home/rogoberto/web2py/applications/aluminum/views/acs_projeto/acesso_vendas_particao.html'
p90
sg66
(dp91
sg72
I338
sg73
(dp92
I329
S"response.write('</th>\\n            </tr>\\n              </tbody>\\n            </table>\\n          </div>\\n        </div>\\n      </div>\\n    </div>\\n  </div>\\n\\n  ', escape=False)"
p93
sI330
S'if auth.user.id==1:'
p94
sI331
S"    response.write('\\nPrimeira data - ', escape=False)"
p95
sI332
S'    response.write(primiradata)'
p96
sI333
S"    response.write('<br>\\nUltima data - ', escape=False)"
p97
sI334
S'    response.write(ultimadata)'
p98
sI335
S"    response.write('\\n<hr>\\n', escape=False)"
p99
sI336
S'    diferenca=ultimadata-primiradata'
p100
sI337
S"    response.write('\\n', escape=False)"
p101
sI338
S'    dias=diferenca.days'
p102
sI339
S'    response.write(\'\\n<div class="py-3" >\\n    <div class="container">\\n      <div class="row text-center">\\n        <div class="mx-auto col-md-8">\\n          <h3 class="mb-3">Proje\\xc3\\xa7\\xc3\\xa3o de Venda</h3>\\n          <p class="lead">Rela\\xc3\\xa7\\xc3\\xa3o de Situa\\xc3\\xa7\\xc3\\xa3o da venda</p>\\n        </div>\\n      </div>\\n      <div class="row">\\n        <div class="col-md-4">\\n          <ul class="list-group">\\n            <li class="list-group-item d-flex justify-content-between">\\n              <div>\\n                <h6 class="my-0"><b>Mercadoria</b></h6> <small class="text-muted">Total</small>\\n              </div> <span class="text-muted">R$ \', escape=False)'
p103
sI340
S'    response.write("{:,.2f}".format(round(projeto.total_preco_mercadoria,2)).replace(",","#").replace(".",",").replace("#","."))'
p104
sI341
S"    response.write('</span>\\n            </li>\\n            ', escape=False)"
p105
sI342
S'    if (projeto.total_venda_prazo!=0)and(dias!=0):'
p106
sI343
S"        response.write('\\n            ', escape=False)"
p107
sI344
S'        media_prazo=projeto.total_venda_prazo/dias'
p108
sI345
S'    else:'
p109
sI346
S'        media_prazo=0'
p110
sI347
S'        pass'
p111
sI348
S'    response.write(\'\\n            <li class="list-group-item d-flex justify-content-between">\\n              <div>\\n                <h6 class="my-0"><b>M\\xc3\\xa9dia Prazo</b></h6> <small class="text-muted">Por dia</small>\\n              </div> <span class="text-muted">R$ \', escape=False)'
p112
ssg85
S'()'
p113
sg87
S'<module>'
p114
sasS'pyver'
p115
S'Python 2.7.12: /usr/local/bin/uwsgi (prefix: /usr)'
p116
sS'session'
p117
g59
(S's\xf0\t\x00\x00<div><table><tr><td style="font-weight:bold;vertical-align:top;">auth</td><td style="vertical-align:top;">:</td><td><div><table><tr><td style="font-weight:bold;vertical-align:top;">expiration</td><td style="vertical-align:top;">:</td><td><div>2592000</div></td></tr><tr><td style="font-weight:bold;vertical-align:top;">hmac_key</td><td style="vertical-align:top;">:</td><td><div>9691a01e-3baf-498e-a9f5-379c141af21d</div></td></tr><tr><td style="font-weight:bold;vertical-align:top;">last_visit</td><td style="vertical-align:top;">:</td><td><div>datetime.datetime(2021, 5, 25, 18, 2, 2, 491170)</div></td></tr><tr><td style="font-weight:bold;vertical-align:top;">remember_me</td><td style="vertical-align:top;">:</td><td><div>True</div></td></tr><tr><td style="font-weight:bold;vertical-align:top;">user</td><td style="vertical-align:top;">:</td><td><div><table><tr><td style="font-weight:bold;vertical-align:top;">email</td><td style="vertical-align:top;">:</td><td><div>betin@gmail.com</div></td></tr><tr><td style="font-weight:bold;vertical-align:top;">first_name</td><td style="vertical-align:top;">:</td><td><div>Rogoberto</div></td></tr><tr><td style="font-weight:bold;vertical-align:top;">id</td><td style="vertical-align:top;">:</td><td><div>1L</div></td></tr><tr><td style="font-weight:bold;vertical-align:top;">last_name</td><td style="vertical-align:top;">:</td><td><div>Ribeiro</div></td></tr><tr><td style="font-weight:bold;vertical-align:top;">registration_id</td><td style="vertical-align:top;">:</td><td><div></div></td></tr><tr><td style="font-weight:bold;vertical-align:top;">registration_key</td><td style="vertical-align:top;">:</td><td><div></div></td></tr><tr><td style="font-weight:bold;vertical-align:top;">reset_password_key</td><td style="vertical-align:top;">:</td><td><div></div></td></tr></table></div></td></tr><tr><td style="font-weight:bold;vertical-align:top;">user_groups</td><td style="vertical-align:top;">:</td><td><div><table><tr><td style="font-weight:bold;vertical-align:top;">1</td><td style="vertical-align:top;">:</td><td><div>user_1</div></td></tr><tr><td style="font-weight:bold;vertical-align:top;">2</td><td style="vertical-align:top;">:</td><td><div>admin</div></td></tr><tr><td style="font-weight:bold;vertical-align:top;">3</td><td style="vertical-align:top;">:</td><td><div>wiki_editor</div></td></tr></table></div></td></tr></table></div></td></tr><tr><td style="font-weight:bold;vertical-align:top;">flash</td><td style="vertical-align:top;">:</td><td><div>None</div></td></tr></table></div>'
tRp118
sS'etype'
p119
S"<type 'exceptions.AttributeError'>"
p120
sS'date'
p121
S'Tue May 25 18:02:28 2021'
p122
sS'response'
p123
g59
(S's\xf4\x1d\x00\x00<div><table><tr><td style="font-weight:bold;vertical-align:top;">body</td><td style="vertical-align:top;">:</td><td><div>&lt;cStringIO.StringO object at 0x7f6b80810b20&gt;</div></td></tr><tr><td style="font-weight:bold;vertical-align:top;">cookies</td><td style="vertical-align:top;">:</td><td><div><table><tr><td style="font-weight:bold;vertical-align:top;">session_id_aluminum</td><td style="vertical-align:top;">:</td><td><div>191.212.144.51-c3efe009-b46a-4923-b953-92fa132f742c<table><tr><td style="font-weight:bold;vertical-align:top;">comment</td><td style="vertical-align:top;">:</td><td><div></div></td></tr><tr><td style="font-weight:bold;vertical-align:top;">domain</td><td style="vertical-align:top;">:</td><td><div></div></td></tr><tr><td style="font-weight:bold;vertical-align:top;">expires</td><td style="vertical-align:top;">:</td><td><div></div></td></tr><tr><td style="font-weight:bold;vertical-align:top;">httponly</td><td style="vertical-align:top;">:</td><td><div></div></td></tr><tr><td style="font-weight:bold;vertical-align:top;">max-age</td><td style="vertical-align:top;">:</td><td><div></div></td></tr><tr><td style="font-weight:bold;vertical-align:top;">path</td><td style="vertical-align:top;">:</td><td><div>/</div></td></tr><tr><td style="font-weight:bold;vertical-align:top;">secure</td><td style="vertical-align:top;">:</td><td><div></div></td></tr><tr><td style="font-weight:bold;vertical-align:top;">version</td><td style="vertical-align:top;">:</td><td><div></div></td></tr></table></div></td></tr></table></div></td></tr><tr><td style="font-weight:bold;vertical-align:top;">delimiters</td><td style="vertical-align:top;">:</td><td><div><table><tr><td><div>{{</div></td></tr><tr><td><div>}}</div></td></tr></table></div></td></tr><tr><td style="font-weight:bold;vertical-align:top;">files</td><td style="vertical-align:top;">:</td><td><div><table><tr><td><div>/aluminum/static/js/jquery.js</div></td></tr><tr><td><div>/aluminum/static/css/calendar.css</div></td></tr><tr><td><div>/aluminum/static/js/calendar.js</div></td></tr><tr><td><div>/aluminum/static/js/web2py.js</div></td></tr></table></div></td></tr><tr><td style="font-weight:bold;vertical-align:top;">flash</td><td style="vertical-align:top;">:</td><td><div></div></td></tr><tr><td style="font-weight:bold;vertical-align:top;">form_label_separator</td><td style="vertical-align:top;">:</td><td><div></div></td></tr><tr><td style="font-weight:bold;vertical-align:top;">formstyle</td><td style="vertical-align:top;">:</td><td><div>bootstrap4_inline</div></td></tr><tr><td style="font-weight:bold;vertical-align:top;">generic_patterns</td><td style="vertical-align:top;">:</td><td><div><table></table></div></td></tr><tr><td style="font-weight:bold;vertical-align:top;">google_analytics_id</td><td style="vertical-align:top;">:</td><td><div>None</div></td></tr><tr><td style="font-weight:bold;vertical-align:top;">headers</td><td style="vertical-align:top;">:</td><td><div><table><tr><td style="font-weight:bold;vertical-align:top;">X-Powered-By</td><td style="vertical-align:top;">:</td><td><div>web2py</div></td></tr></table></div></td></tr><tr><td style="font-weight:bold;vertical-align:top;">menu</td><td style="vertical-align:top;">:</td><td><div><table><tr><td><div><table><tr><td><div>Principal</div></td></tr><tr><td><div>False</div></td></tr><tr><td><div>/aluminum</div></td></tr><tr><td><div><table></table></div></td></tr></table></div></td></tr><tr><td><div><table><tr><td><div>Principal</div></td></tr><tr><td><div>False</div></td></tr><tr><td><div>/aluminum</div></td></tr><tr><td><div><table></table></div></td></tr></table></div></td></tr></table></div></td></tr><tr><td style="font-weight:bold;vertical-align:top;">meta</td><td style="vertical-align:top;">:</td><td><div><table><tr><td style="font-weight:bold;vertical-align:top;">author</td><td style="vertical-align:top;">:</td><td><div>Your Name &lt;you@example.com&gt;</div></td></tr><tr><td style="font-weight:bold;vertical-align:top;">description</td><td style="vertical-align:top;">:</td><td><div>a cool new app</div></td></tr><tr><td style="font-weight:bold;vertical-align:top;">generator</td><td style="vertical-align:top;">:</td><td><div>Web2py Web Framework</div></td></tr><tr><td style="font-weight:bold;vertical-align:top;">keywords</td><td style="vertical-align:top;">:</td><td><div><table><tr><td><div>web2py</div></td></tr><tr><td><div>python</div></td></tr><tr><td><div>framework</div></td></tr></table></div></td></tr></table></div></td></tr><tr><td style="font-weight:bold;vertical-align:top;">models_to_run</td><td style="vertical-align:top;">:</td><td><div><table><tr><td><div>^\\w+\\.py$</div></td></tr><tr><td><div>^acs_projeto/\\w+\\.py$</div></td></tr><tr><td><div>^acs_projeto/acesso_vendas_particao/\\w+\\.py$</div></td></tr></table></div></td></tr><tr><td style="font-weight:bold;vertical-align:top;">postprocessing</td><td style="vertical-align:top;">:</td><td><div><table></table></div></td></tr><tr><td style="font-weight:bold;vertical-align:top;">session_client</td><td style="vertical-align:top;">:</td><td><div>191.212.144.51</div></td></tr><tr><td style="font-weight:bold;vertical-align:top;">session_cookie_compression_level</td><td style="vertical-align:top;">:</td><td><div>None</div></td></tr><tr><td style="font-weight:bold;vertical-align:top;">session_cookie_expires</td><td style="vertical-align:top;">:</td><td><div>2592000</div></td></tr><tr><td style="font-weight:bold;vertical-align:top;">session_data_name</td><td style="vertical-align:top;">:</td><td><div>session_data_aluminum</div></td></tr><tr><td style="font-weight:bold;vertical-align:top;">session_file</td><td style="vertical-align:top;">:</td><td><div>&lt;open file &#x27;/home/rogoberto/web2py/applications/aluminum/sessions/0fc/0bc/191.212.144.51-c3efe009-b46a-4923-b953-92fa132f742c&#x27;, mode &#x27;rb+&#x27; at 0x7f6b8086a1e0&gt;</div></td></tr><tr><td style="font-weight:bold;vertical-align:top;">session_filename</td><td style="vertical-align:top;">:</td><td><div>/home/rogoberto/web2py/applications/aluminum/sessions/191.212.144.51-c3efe009-b46a-4923-b953-92fa132f742c</div></td></tr><tr><td style="font-weight:bold;vertical-align:top;">session_hash</td><td style="vertical-align:top;">:</td><td><div>3ecc63ccd6343e4c10feb80fabf8f689</div></td></tr><tr><td style="font-weight:bold;vertical-align:top;">session_id</td><td style="vertical-align:top;">:</td><td><div>191.212.144.51-c3efe009-b46a-4923-b953-92fa132f742c</div></td></tr><tr><td style="font-weight:bold;vertical-align:top;">session_id_name</td><td style="vertical-align:top;">:</td><td><div>session_id_aluminum</div></td></tr><tr><td style="font-weight:bold;vertical-align:top;">session_locked</td><td style="vertical-align:top;">:</td><td><div>True</div></td></tr><tr><td style="font-weight:bold;vertical-align:top;">session_masterapp</td><td style="vertical-align:top;">:</td><td><div>aluminum</div></td></tr><tr><td style="font-weight:bold;vertical-align:top;">session_new</td><td style="vertical-align:top;">:</td><td><div>False</div></td></tr><tr><td style="font-weight:bold;vertical-align:top;">session_storage_type</td><td style="vertical-align:top;">:</td><td><div>file</div></td></tr><tr><td style="font-weight:bold;vertical-align:top;">show_toolbar</td><td style="vertical-align:top;">:</td><td><div>False</div></td></tr><tr><td style="font-weight:bold;vertical-align:top;">status</td><td style="vertical-align:top;">:</td><td><div>200</div></td></tr><tr><td style="font-weight:bold;vertical-align:top;">view</td><td style="vertical-align:top;">:</td><td><div>acs_projeto/acesso_vendas_particao.html</div></td></tr></table></div>'
tRp124
sS'locals'
p125
(dp126
S'PY2'
p127
S'True'
p128
sS'OBJECT'
p129
S"<class 'gluon.html.OBJECT'>"
p130
sS'SQLDB'
p131
S"<class 'pydal.base.DAL'>"
p132
sg117
S"<Storage {'_auth_next': None, 'flash': None, 'au...gin]': ['71df1b72-a146-40e7-a280-5d938eac3c30']}>"
p133
sS'LINK'
p134
S"<class 'gluon.html.LINK'>"
p135
sS'BR'
p136
S"<class 'gluon.html.BR'>"
p137
sS'local_import'
p138
S'<function <lambda>>'
p139
sS'OPTGROUP'
p140
S"<class 'gluon.html.OPTGROUP'>"
p141
sS'fichas_devolvidas'
p142
S'0'
sS'venda'
p143
S'0'
sS'tfichas_devolvidas'
p144
S'0'
sS'row'
p145
S"<Row {'tipo': 'Despesa_Venda', 'projeto': 117L, ..., 'id': 7588L, 'descricao': 'CARNE  E VERDURAS'}>"
p146
sS'PRE'
p147
S"<class 'gluon.html.PRE'>"
p148
sS'IS_INT_IN_RANGE'
p149
S"<class 'gluon.validators.IS_INT_IN_RANGE'>"
p150
sS'to_bytes'
p151
S'<function to_bytes>'
p152
sS'IS_LOWER'
p153
S"<class 'gluon.validators.IS_LOWER'>"
p154
sS'IS_STRONG'
p155
S"<class 'gluon.validators.IS_STRONG'>"
p156
sS'cache'
p157
S'<gluon.cache.Cache object>'
p158
sS'IS_IN_DB'
p159
S"<class 'gluon.validators.IS_IN_DB'>"
p160
sS'TAG'
p161
S'<gluon.html.__TAG__ object>'
p162
sS'SQLField'
p163
S"<class 'pydal.objects.Field'>"
p164
sS'mail'
p165
S'<gluon.tools.Mail object>'
p166
sS'entrada'
p167
S'0'
sS'BODY'
p168
S"<class 'gluon.html.BODY'>"
p169
sS'IS_DATE_IN_RANGE'
p170
S"<class 'gluon.validators.IS_DATE_IN_RANGE'>"
p171
sS'IFRAME'
p172
S"<class 'gluon.html.IFRAME'>"
p173
sS'URL'
p174
S'<function URL>'
p175
sS'__file__'
p176
S"'/home/rogoberto/web2py/applications/aluminum/views/acs_projeto/acesso_vendas_particao.html'"
p177
sS'db'
p178
S'<DAL uri="sqlite://storage.sqlite">'
p179
sS'auth'
p180
S'<gluon.tools.Auth object>'
p181
sS'P'
S"<class 'gluon.html.P'>"
p182
sS'TFOOT'
p183
S"<class 'gluon.html.TFOOT'>"
p184
sS'iteritems'
p185
S'<function <lambda>>'
p186
sS'XHTML'
p187
S"<class 'gluon.html.XHTML'>"
p188
sS'datetime'
p189
S"<module 'datetime' (built-in)>"
p190
sS'ON'
p191
g128
sS'OL'
p192
S"<class 'gluon.html.OL'>"
p193
sS'TEXTAREA'
p194
S"<class 'gluon.html.TEXTAREA'>"
p195
sS'MENU'
p196
S"<class 'gluon.html.MENU'>"
p197
sS'__package__'
p198
S'None'
p199
sS'IS_IMAGE'
p200
S"<class 'gluon.validators.IS_IMAGE'>"
p201
sS'IS_DATETIME_IN_RANGE'
p202
S"<class 'gluon.validators.IS_DATETIME_IN_RANGE'>"
p203
sS'EM'
p204
S"<class 'gluon.html.EM'>"
p205
sS'CODE'
p206
S"<class 'gluon.html.CODE'>"
p207
sS'HTTP'
p208
S"<class 'gluon.http.HTTP'>"
p209
sS'HR'
p210
S"<class 'gluon.html.HR'>"
p211
sS'IS_DATETIME'
p212
S"<class 'gluon.validators.IS_DATETIME'>"
p213
sS'reduce'
p214
S'<built-in function reduce>'
p215
sS'STYLE'
p216
S"<class 'gluon.html.STYLE'>"
p217
sS'LABEL'
p218
S"<class 'gluon.html.LABEL'>"
p219
sS'CLEANUP'
p220
S"<class 'gluon.validators.CLEANUP'>"
p221
sS'BUTTON'
p222
S"<class 'gluon.html.BUTTON'>"
p223
sS'SELECT'
p224
S"<class 'gluon.html.SELECT'>"
p225
sS'CENTER'
p226
S"<class 'gluon.html.CENTER'>"
p227
sS'tvenda'
p228
S'0'
sS'Auth'
p229
S"<class 'gluon.tools.Auth'>"
p230
sS'caderno'
p231
S'0'
sS'urlopen'
p232
S'<function urlopen>'
p233
sS'HTML'
p234
S"<class 'gluon.html.HTML'>"
p235
sS'SQLFORM'
p236
S"<class 'gluon.sqlhtml.SQLFORM'>"
p237
sS'_item'
p238
S"(<lazyT 'Home'>, False, '/aluminum', [])"
p239
sS'LOAD'
p240
S'<function LOAD>'
p241
sS'redirect'
p242
S'<function redirect>'
p243
sS'FIELDSET'
p244
S"<class 'gluon.html.FIELDSET'>"
p245
sS'IS_EQUAL_TO'
p246
S"<class 'gluon.validators.IS_EQUAL_TO'>"
p247
sS'fichas_venda'
p248
S'0'
sS'embed64'
p249
S'<function embed64>'
p250
sS'tvalor_devolvido'
p251
S'0'
sS'IS_LIST_OF'
p252
S"<class 'gluon.validators.IS_LIST_OF'>"
p253
sS'__name__'
p254
S"'__restricted__'"
p255
sS'EMBED'
p256
S"<class 'gluon.html.EMBED'>"
p257
sS'configuration'
p258
S"{'host': {'names': 'localhost:*, 127.0.0.1:*, *:...': 'sqlite://storage.sqlite', 'pool_size': '10'}}"
p259
sS'FORM'
p260
S"<class 'gluon.html.FORM'>"
p261
sS'H2'
p262
S"<class 'gluon.html.H2'>"
p263
sS'H3'
p264
S"<class 'gluon.html.H3'>"
p265
sS'projeto'
p266
S"<Row {'empresa': 14L, 'total_salario_funcionario..._cobrado': 0.0, 'total_pecas_mercadoria': 1456L}>"
p267
sS'H1'
p268
S"<class 'gluon.html.H1'>"
p269
sS'H6'
p270
S"<class 'gluon.html.H6'>"
p271
sS'H4'
p272
S"<class 'gluon.html.H4'>"
p273
sS'H5'
p274
S"<class 'gluon.html.H5'>"
p275
sS'UL'
p276
S"<class 'gluon.html.UL'>"
p277
sS'IS_UPPER'
p278
S"<class 'gluon.validators.IS_UPPER'>"
p279
sS'xmlescape'
p280
S'<function xmlescape>'
p281
sS'IS_TIME'
p282
S"<class 'gluon.validators.IS_TIME'>"
p283
sS'OPTION'
p284
S"<class 'gluon.html.OPTION'>"
p285
sS'TITLE'
p286
S"<class 'gluon.html.TITLE'>"
p287
sS'CRYPT'
p288
S"<class 'gluon.validators.CRYPT'>"
p289
sS'IS_EMPTY_OR'
p290
S"<class 'gluon.validators.IS_EMPTY_OR'>"
p291
sS'MARKMIN'
p292
S"<class 'gluon.html.MARKMIN'>"
p293
sg121
S"<type 'datetime.date'>"
p294
sS'INPUT'
p295
S"<class 'gluon.html.INPUT'>"
p296
sS'STRONG'
p297
S"<class 'gluon.html.STRONG'>"
p298
sS'COL'
p299
S"<class 'gluon.html.COL'>"
p300
sS'__builtins__'
p301
S"{'ArithmeticError': <type 'exceptions.ArithmeticError'>, 'AssertionError': <type 'exceptions.AssertionError'>, 'AttributeError': <type 'exceptions.AttributeError'>, 'BaseException': <type 'exceptions.BaseException'>, 'BufferError': <type 'exceptions.BufferError'>, 'BytesWarning': <type 'exceptions.BytesWarning'>, 'DeprecationWarning': <type 'exceptions.DeprecationWarning'>, 'EOFError': <type 'exceptions.EOFError'>, 'Ellipsis': Ellipsis, 'EnvironmentError': <type 'exceptions.EnvironmentError'>, ...}"
p302
sS'totaldespesa'
p303
S'0'
sS'SCRIPT'
p304
S"<class 'gluon.html.SCRIPT'>"
p305
sS'diferenca'
p306
S'0'
sS'primiradata'
p307
S'0'
sS'TABLE'
p308
S"<class 'gluon.html.TABLE'>"
p309
sS'classe_despesa'
p310
S'<Row {\'modified_by\': 56L, \'despesa\': <Set ("desp...6, 57, 52), \'id\': 817L, \'descricao\': \'CONZINHA\'}>'
p311
sS'IS_IPV4'
p312
S"<class 'gluon.validators.IS_IPV4'>"
p313
sS'IS_LENGTH'
p314
S"<class 'gluon.validators.IS_LENGTH'>"
p315
sS'IS_IPV6'
p316
S"<class 'gluon.validators.IS_IPV6'>"
p317
sS'XML'
p318
S"<class 'gluon.html.XML'>"
p319
sS'ANY_OF'
p320
S"<class 'gluon.validators.ANY_OF'>"
p321
sS'B'
S"<class 'gluon.html.B'>"
p322
sS'IMG'
p323
S"<class 'gluon.html.IMG'>"
p324
sS'SQLTABLE'
p325
S"<class 'gluon.sqlhtml.SQLTABLE'>"
p326
sS'IS_MATCH'
p327
S"<class 'gluon.validators.IS_MATCH'>"
p328
sS'IS_ALPHANUMERIC'
p329
S"<class 'gluon.validators.IS_ALPHANUMERIC'>"
p330
sS'SPAN'
p331
S"<class 'gluon.html.SPAN'>"
p332
sS'IS_JSON'
p333
S"<class 'gluon.validators.IS_JSON'>"
p334
sS'IS_IPADDRESS'
p335
S"<class 'gluon.validators.IS_IPADDRESS'>"
p336
sS'rowsdesp'
p337
S'<Rows (60)>'
p338
sS'IS_SLUG'
p339
S"<class 'gluon.validators.IS_SLUG'>"
p340
sS'tentrada'
p341
S'0'
sS'sub_venda'
p342
S'<Row {\'total_saldo_cobrador\': 0.0, \'nome_cobrado...volucao\': <Set ("devolucao"."sub_venda" = 191)>}>'
p343
sS'BEAUTIFY'
p344
S"<class 'gluon.html.BEAUTIFY'>"
p345
sS'META'
p346
S"<class 'gluon.html.META'>"
p347
sS'AppConfig'
p348
S'<function AppConfig>'
p349
sS'IS_DATE'
p350
S"<class 'gluon.validators.IS_DATE'>"
p351
sS'IS_EMAIL'
p352
S"<class 'gluon.validators.IS_EMAIL'>"
p353
sS'IS_NOT_EMPTY'
p354
S"<class 'gluon.validators.IS_NOT_EMPTY'>"
p355
sS'xrange'
p356
S"<type 'xrange'>"
p357
sS'TBODY'
p358
S"<class 'gluon.html.TBODY'>"
p359
sS'CAT'
p360
S"<class 'gluon.html.CAT'>"
p361
sS'Field'
p362
S"<class 'pydal.objects.Field'>"
p363
sS'IS_LIST_OF_EMAILS'
p364
S"<class 'gluon.validators.IS_LIST_OF_EMAILS'>"
p365
sg58
S"<Storage {'_vars': None, 'function': 'acesso_ven...web2py/applications/aluminum/', 'method': 'GET'}>"
p366
sS'DIV'
p367
S"<class 'gluon.html.DIV'>"
p368
sS'tcaderno'
p369
S'0'
sS'LEGEND'
p370
S"<class 'gluon.html.LEGEND'>"
p371
sS'to_native'
p372
S'<function to_native>'
p373
sS'COLGROUP'
p374
S"<class 'gluon.html.COLGROUP'>"
p375
sS'DAL'
p376
S"<class 'pydal.base.DAL'>"
p377
sS'ASSIGNJS'
p378
S'<function ASSIGNJS>'
p379
sS'TR'
p380
S"<class 'gluon.html.TR'>"
p381
sS'LI'
p382
S"<class 'gluon.html.LI'>"
p383
sS'TH'
p384
S"<class 'gluon.html.TH'>"
p385
sS'TD'
p386
S"<class 'gluon.html.TD'>"
p387
sS'IS_URL'
p388
S"<class 'gluon.validators.IS_URL'>"
p389
sS'A'
S"<class 'gluon.html.A'>"
p390
sS'HEAD'
p391
S"<class 'gluon.html.HEAD'>"
p392
sS'tfichas_venda'
p393
S'0'
sS'ultimadata'
p394
S'0'
sS'I'
S"<class 'gluon.html.I'>"
p395
sS'Request'
p396
S'<class urllib2.Request>'
p397
sS'IS_NOT_IN_DB'
p398
S"<class 'gluon.validators.IS_NOT_IN_DB'>"
p399
sS'valor_devolvido'
p400
S'0'
sS'rows'
p401
S'<Rows (0)>'
p402
sS'data'
p403
S'datetime.datetime(2021, 5, 25, 18, 2, 27, 786357)'
p404
sg123
S"<Storage {'body': <cStringIO.StringO object at 0...iew': 'acs_projeto/acesso_vendas_particao.html'}>"
p405
sS'THEAD'
p406
S"<class 'gluon.html.THEAD'>"
p407
sS'a'
S'0'
sS'IS_NULL_OR'
p408
S"<class 'gluon.validators.IS_EMPTY_OR'>"
p409
sS'IS_FLOAT_IN_RANGE'
p410
S"<class 'gluon.validators.IS_FLOAT_IN_RANGE'>"
p411
sS'IS_EXPR'
p412
S"<class 'gluon.validators.IS_EXPR'>"
p413
sS'T'
S'<gluon.languages.translator object>'
p414
sS'IS_IN_SET'
p415
S"<class 'gluon.validators.IS_IN_SET'>"
p416
sS'IS_UPLOAD_FILENAME'
p417
S"<class 'gluon.validators.IS_UPLOAD_FILENAME'>"
p418
sS'TT'
p419
S"<class 'gluon.html.TT'>"
p420
sS'IS_DECIMAL_IN_RANGE'
p421
S"<class 'gluon.validators.IS_DECIMAL_IN_RANGE'>"
p422
sssS'traceback'
p423
S'Traceback (most recent call last):\n  File "/home/rogoberto/web2py/gluon/restricted.py", line 219, in restricted\n    exec(ccode, environment)\n  File "/home/rogoberto/web2py/applications/aluminum/views/acs_projeto/acesso_vendas_particao.html", line 338, in <module>\nAttributeError: \'int\' object has no attribute \'days\'\n'
p424
s.