(dp1
S'output'
p2
S'missing "pass" in view'
p3
sS'layer'
p4
S'ParserContainer'
p5
sS'code'
p6
S'response.write(\'<!DOCTYPE html>\\n<!--[if (gt IE 9)|!(IE)]><!--> <html class="no-js" lang="\', escape=False)\nresponse.write(T.accepted_language or \'en\')\nresponse.write(\'"> <!--<![endif]-->\\n  <head>\\n    <meta charset="utf-8">\\n    <!-- www.phpied.com/conditional-comments-block-downloads/ -->\\n    <!-- Always force latest IE rendering engine\\n         (even in intranet) & Chrome Frame\\n         Remove this if you use the .htaccess -->\\n    <meta http-equiv="X-UA-Compatible" content="IE=edge\', escape=False)\nresponse.write(not request.is_local and \',chrome=1\' or \'\')\nresponse.write(\'">\\n    <!--  Mobile Viewport Fix\\n          j.mp/mobileviewport & davidbcalhoun.com/2010/viewport-metatag\\n          device-width: Occupy full width of the screen in its current orientation\\n          initial-scale = 1.0 retains dimensions instead of zooming out if page height > device height\\n          user-scalable = yes allows the user to zoom in -->\\n    <meta name="viewport" content="width=device-width, initial-scale=1.0">\\n       <title>Aluminum System</title>\\n      <meta name="author" content="Arsenal System">\\n<!--       <meta name="description" content="cr\\xc3\\xa9diario de aluminio, controle seus custos, despesas vendas e cobran\\xc3\\xa7as"> -->\\n<!--       <meta name="keywords" content="Controle Cheque, pagamentos, Sistema"> -->\\n<!--       <meta name="author" content="Arsenal System"> -->\\n      <meta name="description" content="Gerenciamento controle de crediario">\\n    <!-- http://dev.w3.org/html5/markup/meta.name.html -->\\n    <meta name="application-name" content="sistema credi\\xc3\\xa1rio panela">\\n    <!-- Speaking of Google, don\\\'t forget to set your site up:\\n         http://google.com/webmasters -->\\n    <meta name="google-site-verification" content="peneleiro Juazeiro, panela credi\\xc3\\xa1rio, sistema panela">\\n    <!-- include stylesheets -->\\n    <link rel="stylesheet" href="https://cdnjs.cloudflare.com/ajax/libs/font-awesome/4.7.0/css/font-awesome.min.css"/>\\n    <link rel="stylesheet" href="\', escape=False)\nresponse.write(URL(\'static\',\'css/bootstrap.min.css\'))\nresponse.write(\'"/>\\n    <link rel="stylesheet" href="\', escape=False)\nresponse.write(URL(\'static\',\'css/web2py-bootstrap4.css\'))\nresponse.write(\'"/>\\n    <link rel="shortcut icon" href="\', escape=False)\nresponse.write(URL(\'static\',\'images/ico.ico\'))\nresponse.write(\'" type="image/x-icon">\\n    <link rel="apple-touch-icon" href="\', escape=False)\nresponse.write(URL(\'static\',\'images/ico.png\'))\nresponse.write(\'">\\n    <!-- All JavaScript at the bottom, except for Modernizr which enables\\n         HTML5 elements & feature detects -->\\n    <script src="\', escape=False)\nresponse.write(URL(\'static\',\'js/modernizr-2.8.3.min.js\'))\nresponse.write(\'"></script>\\n    <!-- Favicons -->\\n    \', escape=False)\nresponse.write(\'<script type="text/javascript"><!--\\n    // These variables are used by the web2py_ajax_init function in web2py_ajax.js (which is loaded below).\\n    \', escape=False)\nresponse.write(ASSIGNJS(\nw2p_ajax_confirm_message = T(\'Are you sure you want to delete this object?\'),\nw2p_ajax_disable_with_message = T(\'Working...\'),\nw2p_ajax_date_format = T(\'%Y-%m-%d\'),\nw2p_ajax_datetime_format = T(\'%Y-%m-%d %H:%M:%S\'),\najax_error_500 = T.M(\'An error occured, please [[reload %s]] the page\') % URL(args=request.args, vars=request.get_vars)\n))\nresponse.write(\'\\n    //--></script>\\n\', escape=False)\nresponse.files.insert(0,URL(\'static\',\'js/jquery.js\'))\nresponse.files.insert(1,URL(\'static\',\'css/calendar.css\'))\nresponse.files.insert(2,URL(\'static\',\'js/calendar.js\'))\nresponse.files.insert(3,URL(\'static\',\'js/web2py.js\'))\nresponse.include_meta()\nresponse.include_files()\nresponse.write(\'\\n\', escape=False)\nresponse.write(\' <!-- this includes jquery.js, calendar.js/.css and web2py.js -->\\n      \', escape=False)\nif auth.user:\n    response.write(\'\\n    \', escape=False)\n    if auth.user.first_name=="Rogoberto":\n        response.write(\'\\n   \\n    \', escape=False)\n    elif auth.user.first_name=="Meme":\n        response.write(\'\\n    <link rel="stylesheet" href="https://bootswatch.com/4/materia/bootstrap.css"> \\n    \', escape=False)\n        pass\n    response.write(\'\\n    \', escape=False)\n    pass\nresponse.write(\'\\n    \', escape=False)\nresponse.write(\'\\n  \\n  </head>\\n  <body>\\n      \\n        <style  type="text/css">\\n    @media print{\\n        .btn{\\n             display: none;\\n        }\\n        #noprint { display:none; } \\n      a:link{font:15px "verdana"; color:#8B4513; text-decoration:none;}\\n\\na:hover{font:20px "verdana"; color:black; text-decoration:underline;}\\n    }\\n      </style>\\n    <div class="w2p_flash alert alert-dismissable">\', escape=False)\nresponse.write(response.flash or \'\')\nresponse.write(\'</div>\\n    <!-- Navbar ======================================= -->\\n    <nav class="navbar navbar-light navbar-expand-md bg-faded justify-content-center">\\n        <a class="navbar-brand" href="https://rogoberto.pythonanywhere.com/aluminum/#acesso">Aluminum</a>\\n       <button class="navbar-toggler" type="button" data-toggle="collapse" data-target="#navbarNavDropdown" aria-controls="navbarNavDropdown" aria-expanded="false" aria-label="Toggle navigation">\\n         <span class="navbar-toggler-icon"></span>\\n       </button>\\n       <div class="navbar-collapse collapse w-100" id="navbarNavDropdown">\\n         <ul class="navbar-nav w-100 justify-content-center">\\n          \', escape=False)\nfor _item in response.menu or []:\n    response.write(\'\\n          \', escape=False)\n    if (not len(_item)>4) or not _item[3]:\n        response.write(\'\\n          <li class="nav-item \', escape=False)\n        if _item[1]:\n            response.write(\'active\', escape=False)\n            pass\n        response.write(\'">\\n            <a class="nav-link" href="\', escape=False)\n        response.write(_item[2])\n        response.write(\'">\', escape=False)\n        response.write(_item[0])\n        response.write(\'</a>\\n          </li>\\n          \', escape=False)\n    else:\n        response.write(\'\\n          <li class="nav-item dropdown">\\n            <a class="nav-link dropdown-toggle" href="\', escape=False)\n        response.write(_item[2])\n        response.write(\'" data-toggle="dropdown" aria-haspopup="true" aria-expanded="false">\', escape=False)\n        response.write(_item[0])\n        response.write(\'</a>\\n            <div class="dropdown-menu">\\n              \', escape=False)\n        for _subitem in _item[3]:\n            response.write(\'\\n              <a class="dropdown-item" href="\', escape=False)\n            response.write(_subitem[2])\n            response.write(\'">\', escape=False)\n            response.write(_subitem[0])\n            response.write(\'</a>\\n              \', escape=False)\n            pass\n        response.write(\'\\n            </div>\\n          </li>\\n          \', escape=False)\n        pass\n    response.write(\'\\n          \', escape=False)\n    pass\nresponse.write(\'\\n        </ul>\\n\\n        \', escape=False)\nif \'auth\' in globals():\n    response.write(\'\\n        <ul class="nav navbar-nav ml-auto w-100 justify-content-end">\\n          <li class="nav-item dropdown">\\n            <a class="nav-link dropdown-toggle" href="#" data-toggle="dropdown" aria-haspopup="true" aria-expanded="false">\\n              \', escape=False)\n    if auth.user:\n        response.write(auth.user.first_name)\n    else:\n        response.write(\'LOGIN\', escape=False)\n        pass\n    response.write(\'\\n            </a>\\n            <div class="dropdown-menu dropdown-menu-right">\\n              \', escape=False)\n    if auth.user:\n        response.write(\'\\n              <a class="dropdown-item" href="\', escape=False)\n        response.write(URL(\'default\',\'user/profile\'))\n        response.write(\'">\', escape=False)\n        response.write(T(\'Profile\'))\n        response.write(\'</a>\\n              \', escape=False)\n        if \'change_password\' not in auth.settings.actions_disabled:\n            response.write(\'\\n              <a class="dropdown-item" href="\', escape=False)\n            response.write(URL(\'default\',\'user/change_password\'))\n            response.write(\'">\', escape=False)\n            response.write(T(\'Change Password\'))\n            response.write(\'</a>\\n              \', escape=False)\n            pass\n        response.write(\'\\n              <a class="dropdown-item" href="\', escape=False)\n        response.write(URL(\'default\',\'user/logout\'))\n        response.write(\'">\', escape=False)\n        response.write(T(\'Logout\'))\n        response.write(\'</a>\\n              \', escape=False)\n    else:\n        response.write(\'\\n              <a class="dropdown-item" href="\', escape=False)\n        response.write(URL(\'default\',\'user/login\'))\n        response.write(\'">\', escape=False)\n        response.write(T(\'Login\'))\n        response.write(\'</a>\\n              \', escape=False)\n        if \'register\' not in auth.settings.actions_disabled:\n            response.write(\'\\n              <a class="dropdown-item" href="\', escape=False)\n            response.write(URL(\'default\',\'user/register\'))\n            response.write(\'">\', escape=False)\n            response.write(T(\'Sign up\'))\n            response.write(\'</a>\\n              \', escape=False)\n            pass\n        response.write(\'\\n              \', escape=False)\n        if \'retrieve_password\' not in auth.settings.actions_disabled:\n            response.write(\'\\n              <a class="dropdown-item" href="\', escape=False)\n            response.write(URL(\'default\',\'user/retrieve_password\'))\n            response.write(\'">\', escape=False)\n            response.write(T(\'Lost Password\'))\n            response.write(\'</a>\\n              \', escape=False)\n            pass\n        response.write(\'\\n              \', escape=False)\n        pass\n    response.write(\'\\n            </div>\\n          </li>\\n        </ul>\\n        \', escape=False)\n    pass\nresponse.write(\'\\n      </div>\\n    </nav>\\n\\n    <!-- Masthead ===================================== -->\\n    \', escape=False)\nresponse.write(\'\\n<header class="header container-fluid d-none d-print-block">\\n     <div class="row">\\n        <div class="col-md-12">\\n          <div class="copyright pull-left">Aluminum System</div>\\n          <div id="poweredBy" class="pull-right">\\n            Gest\\xc3\\xa3o de vendas e cobran\\xc3\\xa7as artefatos de aluminio\\n            \\n          </div>\\n        </div>\\n      </div>\\n</header>\\n    \', escape=False)\nresponse.write(\'\\n    <!-- Main ========================================= -->\\n    <!-- Begin page content -->\\n    <div class="container-fluid main-container py-5">\\n      \', escape=False)\nresponse.write(\'\\n\', escape=False)\nperc_cob=0\nresponse.write(\'\\n\', escape=False)\nif sub_venda.total_recebido>0 and sub_venda.total_venda_praso>0:\n    response.write(\'\\n  \', escape=False)\n    perc_cob=sub_venda.total_recebido/sub_venda.total_venda_praso*100\n    response.write(\'\\n\', escape=False)\n    pass\nresponse.write(\'\\n\\n\', escape=False)\nperc_deposito=0\nresponse.write(\'\\n\', escape=False)\nif sub_venda.total_venda_praso>0 and sub_venda.total_deposito>0:\n    response.write(\'\\n  \', escape=False)\n    perc_deposito=sub_venda.total_deposito/sub_venda.total_venda_praso*100\n    response.write(\'\\n\', escape=False)\n    pass\nresponse.write(\'\\n\\n\', escape=False)\nperc_despesa=0\nresponse.write(\'\\n\', escape=False)\nif sub_venda.total_recebido>0 and sub_venda.total_despesa>0:\n    response.write(\'\\n  \', escape=False)\n    perc_despesa=sub_venda.total_despesa/sub_venda.total_recebido*100\n    response.write(\'\\n\', escape=False)\n    pass\nresponse.write(\'\\n\\n\', escape=False)\ncaixa=sub_venda.total_recebido+sub_venda.adiantamento_cobranca\nresponse.write(\'\\n\', escape=False)\ncaixa-=sub_venda.total_deposito+sub_venda.total_despesa+sub_venda.total_caderno_cobrador\nresponse.write(\'\\n\\n\\n\', escape=False)\ncomissao=0\nresponse.write(\'\\n\', escape=False)\nif sub_venda.comissao_cobranca>0 and sub_venda.total_recebido>0:\n    response.write(\'\\n  \', escape=False)\n    comissao=sub_venda.comissao_cobranca*sub_venda.total_recebido/100\n    response.write(\'\\n\', escape=False)\n    pass\nresponse.write(\'\\n\\n\', escape=False)\nsaldofinal = comissao-sub_venda.total_caderno_cobrador-sub_venda.total_vale_saida_cobrador-caixa\nresponse.write(\'\\n\\n\\n<div class="py-5" >\\n  <div class="container">\\n    \', escape=False)\nif sub_venda.total_deposito>sub_venda.total_recebido:\n    response.write(\'\\n    <marquee direction="left">\\n      <a class="navbar-brand text-danger">\\n        <h6>Cobrador n\\xc3\\xa3o registra os valores que foram recebidos!!</h6>\\n      </a>\\n    </marquee>\\n    \', escape=False)\n    pass\nresponse.write(\'\\n    <div class="row">\\n      <div class="col-md-12">\\n        <h5 class="">\\n          Relatorio de Cobran\\xc3\\xa7a (\', escape=False)\nresponse.write(sub_venda.projeto.descricao)\nresponse.write(\' | \', escape=False)\nresponse.write(sub_venda.primeira_cidade)\nresponse.write(\') | \', escape=False)\nresponse.write(sub_venda.nome_cobrador)\nresponse.write(\')\\n        </h5>\\n        <h6 class="">\\n          Cobrador Atual ( \', escape=False)\nresponse.write(sub_venda.auth_user.first_name)\nresponse.write(\' )\\n          <a class="btn btn-link  m-1 border-info rounded-top" href="\', escape=False)\nresponse.write(URL(\'definir_cobrador\', args=sub_venda.id))\nresponse.write(\'" style="color:#3b5998" >\\n            <i class="fa fa-fw fa-1x py-1 fa-street-view"></i>\\n            efinir Cobrador\\n          </a>\\n          <a class="btn btn-link  m-1 border-info rounded-top" href="\', escape=False)\nresponse.write(URL(\'alterar_dados\', args=sub_venda.id))\nresponse.write(\'" style="color:#3b5998" >\\n            <i class="fa fa-fw fa-1x py-1 fa-database"></i>\\n            lterar Dados Cobran\\xc3\\xa7a\\n          </a>\\n          <a class="btn btn-link  m-1 border-info rounded-top" href="\', escape=False)\nresponse.write(URL(\'acs_devolucao\',\'index\', args=sub_venda.id))\nresponse.write(\'" style="color:#3b5998" >\\n            <i class="fa fa-fw fa-1x py-1 fa-database"></i>\\n            Registrar Devolu\\xc3\\xa7\\xc3\\xa3o\\n          </a>\\n          <a class="btn btn-link  m-1 border-info rounded-top" href="\', escape=False)\nresponse.write(URL(\'alocar_valores\', args=[sub_venda.id]))\nresponse.write(\'" style="color:#3b5998" >\\n            <i class="fa fa-fw fa-1x py-1 fa-hand-pointer-o "></i>\\n            Alocar Valores\\n          </a>\\n        </h6>\\n      </div>\\n    </div>\\n    <div class="row">\\n      <div class="col-md-12">\\n        \', escape=False)\nif desbloqueado:\n    response.write(\'\\n        <a class="btn btn-link" href="\', escape=False)\n    response.write(URL(\'index\', args=sub_venda.projeto))\n    response.write(\'" style="color:#3b5998">\\n          <i class="fa fa-fw fa-1x py-1 fa-arrow-left"></i> \\n          Voltar\\n        </a>\\n        \', escape=False)\n    pass\nresponse.write(\'\\n        <a class="btn btn-link" href="\', escape=False)\nresponse.write(URL(\'acs_registro_cobranca\',\'index\', args=[sub_venda.id,\'Recebimento\']))\nresponse.write(\'" style="color:#3b5998">\\n          <i class="fa fa-fw fa-1x py-1 fa-dollar"></i>\\n          Lista de Recebimentos\\n        </a>\\n        <a class="btn btn-link" href="\', escape=False)\nresponse.write(URL(\'acs_registro_cobranca\',\'index\', args=[sub_venda.id,\'Deposito\']))\nresponse.write(\'" style="color:#3b5998">\\n          <i class="fa fa-fw fa-1x py-1 fa-sign-in"></i>\\n          Lista de Depositos\\n        </a>\\n        <a class="btn btn-link" href="\', escape=False)\nresponse.write(URL(\'acs_registro_cobranca\',\'index\', args=[sub_venda.id,\'Caderno\']))\nresponse.write(\'" style="color:#3b5998">\\n          <i class="fa fa-fw fa-1x py-1 fa-book"></i>\\n          Caderno do Cobrador\\n        </a>\\n        <a class="btn btn-link" href="\', escape=False)\nresponse.write(URL(\'acs_despesa_cobranca\',\'index\', args=sub_venda.id))\nresponse.write(\'" style="color:#3b5998">\\n          <i class="fa fa-fw fa-1x py-1 fa-external-link"></i>\\n          Despesas da Cobran\\xc3\\xa7a\\n        </a>\\n      </div>\\n    </div>\\n    <div class="row">\\n      <div class="col-md-6">\\n        <div class="card">\\n          <div class="card-header"> Informa\\xc3\\xa7\\xc3\\xb5es da Cobran\\xc3\\xa7a</div>\\n          <div class="card-body">\\n            <ul class="list-group list-group-flush">\\n              <li class="list-group-item d-flex justify-content-between">\\n                <div>\\n                  <h6 class="my-0">Valor Cobran\\xc3\\xa7a</h6>\\n                  <small class="text-muted" >\\n                    \', escape=False)\nresponse.write("{:,}".format(round(sub_venda.total_fichas)).replace(".0",""))\nresponse.write(\' Fichas\\n                  </small>\\n                </div>\\n                <span class="text-muted">\\n                  R$ \', escape=False)\nresponse.write("{:,}".format(round(sub_venda.total_venda_praso,1)).replace(",","."))\nresponse.write(\'0\\n                </span>\\n              </li>\\n              <li class="list-group-item d-flex justify-content-between">\\n                <div>\\n                  <h6 class="my-0">Adiantamento</h6>\\n                  <small class="text-muted">\', escape=False)\nresponse.write(sub_venda.nome_cobrador)\nresponse.write(\'</small>\\n                </div>\\n                <span class="text-muted">\\n                  R$ \', escape=False)\nresponse.write("{:,}".format(round(sub_venda.adiantamento_cobranca,1)).replace(",","."))\nresponse.write(\'0\\n                </span>\\n              </li>\\n              <li class="list-group-item d-flex justify-content-between">\\n                <div>\\n                  <h6 class="my-0">Valor Recebido</h6>\\n                  <small class="text-muted">\\n                    \', escape=False)\nresponse.write("{:,}".format(round(perc_cob,1)).replace(",","."))\nresponse.write(\'% da venda\\n                  </small>\\n                </div>\\n                <span class="text-muted">\\n                  R$ \', escape=False)\nresponse.write("{:,}".format(round(sub_venda.total_recebido,1)).replace(",","."))\nresponse.write(\'0\\n                </span>\\n              </li>\\n              \', escape=False)\ndinheiro_total=sub_venda.total_recebido+sub_venda.adiantamento_cobranca\nresponse.write(\'\\n              \', escape=False)\nif not dinheiro_total>(sub_venda.total_venda_praso+sub_venda.adiantamento_cobranca):\n    response.write(\'\\n              <li class="list-group-item d-flex justify-content-between">\\n                <div>\\n                  <h6 class="my-0">Dinheiro Total</h6>\\n                  <small class="text-muted">#</small>\\n                </div>\\n                <span class="text-muted">\\n                  R$ \', escape=False)\n    response.write("{:,}".format(round(dinheiro_total,1)).replace(",","."))\n    response.write(\'0\\n                </span>\\n              </li>\\n              \', escape=False)\nelse:\n    response.write(\'\\n              <li class="list-group-item d-flex justify-content-between">\\n                <div>\\n                  <h6 class="my-0 text-danger">Erro</h6>\\n                  <small class="text-danger">\\n                    Foi registrado um valor maior que o da cobran\\xc3\\xa7a\\n                  </small>\\n                </div>\\n                <span class="text-danger">\\n                  Verifique o valor cobrado e o valor da cobran\\xc3\\xa7a\\n                </span>\\n              </li>\\n              \', escape=False)\n    pass\nresponse.write(\'\\n              <br>\\n              <li class="list-group-item d-flex justify-content-between">\\n                <div>\\n                  <h6 class="my-0">Depositos</h6>\\n                  <small class="text-muted">\\n                    \', escape=False)\nresponse.write("{:,}".format(round(perc_deposito)).replace(".0",""))\nresponse.write(\'% da venda\\n                  </small>\\n                </div>\\n                <span class="text-muted">\\n                  R$ \', escape=False)\nresponse.write("{:,}".format(round(sub_venda.total_deposito,1)).replace(",","."))\nresponse.write(\'0\\n                </span>\\n              </li>\\n              <li class="list-group-item d-flex justify-content-between">\\n                <div>\\n                  <h6 class="my-0">Despesa</h6>\\n                  <small class="text-muted">\\n                    \', escape=False)\nresponse.write("{:,}".format(round(perc_despesa)).replace(".0",""))\nresponse.write(\'%\\n                  </small>\\n                </div>\\n                <span class="text-muted">\\n                  R$ \', escape=False)\nresponse.write("{:,}".format(round(sub_venda.total_despesa,1)).replace(",","."))\nresponse.write(\'0\\n                </span>\\n              </li>\\n              <li class="list-group-item d-flex justify-content-between">\\n                <div>\\n                  <h6 class="my-0">Vale Cardeno</h6>\\n                  <small class="text-muted">#</small>\\n                </div>\\n                <span class="text-muted">\\n                  R$ \', escape=False)\nresponse.write("{:,}".format(round(sub_venda.total_caderno_cobrador,1)).replace(",","."))\nresponse.write(\'0\\n                </span>\\n              </li>\\n              \', escape=False)\nif  caixa>=0:\n    response.write(\'\\n              <li class="list-group-item d-flex justify-content-between ">\\n                <div>\\n                  <h6 class="my-0">Caixa</h6>\\n                  <small class="text-muted">#</small>\\n                </div>\\n                <span class="text-muted">\\n                  R$ \', escape=False)\n    response.write("{:,}".format(round(caixa,1)).replace(",","."))\n    response.write(\'0\\n                </span>\\n              </li>\\n              \', escape=False)\nelse:\n    response.write(\'\\n              <li class="list-group-item d-flex justify-content-between ">\\n                <div>\\n                  <h6 class="my-0 text-danger">ERRO</h6>\\n                  <small class="text-danger">\\n                    N\\xc3\\xa3o foram registrados todos os recebimentos\\n                  </small>\\n                </div>\\n                <span class="text-danger">\\n                  Registre todos os recebimentos\\n                </span>\\n              </li>\\n              \', escape=False)\n    pass\nresponse.write(\'\\n            </ul>\\n          </div>\\n        </div>\\n      </div>\\n      <br><br><br><hr>\\n      \', escape=False)\nif False:\n    response.write(\'\\n      <div class="col-md-6 py-1">\\n        <div class="card">\\n          <div class="card-header"> Comiss\\xc3\\xa3o e Saldo</div>\\n          <div class="card-body">\\n            <ul class="list-group list-group-flush">\\n              <li class="list-group-item d-flex justify-content-between">\\n                <div>\\n                  <h6 class="my-0">Comiss\\xc3\\xa3o</h6>\\n                  <small class="text-muted">\\n                    \', escape=False)\n    response.write("{:,}".format(round(sub_venda.comissao_cobranca,1)).replace(",","."))\n    response.write(\'%\\n                  </small>\\n                </div>\\n                <span class="text-muted">\\n                  R$ \', escape=False)\n    response.write("{:,}".format(round(comissao,1)).replace(",","."))\n    response.write(\'0\\n                </span>\\n              </li>\\n              <li class="list-group-item d-flex justify-content-between">\\n                <div>\\n                  <h6 class="my-0">Vale Saida</h6>\\n                  <small class="text-muted">#</small>\\n                </div>\\n                <span class="text-muted">\\n                  R$ \', escape=False)\n    response.write("{:,}".format(round(sub_venda.total_vale_saida_cobrador,1)).replace(",","."))\n    response.write(\'0\\n                </span>\\n              </li>\\n              <li class="list-group-item d-flex justify-content-between">\\n                <div>\\n                  <h6 class="my-0">Vale Caderno</h6>\\n                  <small class="text-muted">#</small>\\n                </div>\\n                <span class="text-muted">\\n                  R$ \', escape=False)\n    response.write("{:,}".format(round(sub_venda.total_caderno_cobrador,1)).replace(",","."))\n    response.write(\'0\\n                </span>\\n              </li>\\n              \', escape=False)\n    saldo_sem_caixa=comissao-sub_venda.total_vale_saida_cobrador-sub_venda.total_caderno_cobrador\n    response.write(\'\\n              \', escape=False)\n    if saldo_sem_caixa>=0:\n        response.write(\'\\n              <li class="list-group-item d-flex justify-content-between">\\n                <div>\\n                  <h6 class="my-0">Saldo Parcial</h6>\\n                  <small class="text-success">\\n                    Comiss\\xc3\\xa3o, descontando os vales\\n                  </small>\\n                </div>\\n                <span class="text-muted">\\n                  R$ \', escape=False)\n        response.write("{:,}".format(round(saldo_sem_caixa,1)).replace(",","."))\n        response.write(\'0\\n                </span>\\n              </li>\\n              \', escape=False)\n    else:\n        response.write(\'\\n              <li class="list-group-item d-flex justify-content-between">\\n                <div>\\n                  <h6 class="my-0 text-danger">Debito Parcial</h6>\\n                  <small class="text-danger">Comiss\\xc3\\xa3o descontando os vales</small>\\n                </div>\\n                <span class="text-danger">\\n                  R$ \', escape=False)\n        response.write("{:,}".format(round(saldo_sem_caixa,1)).replace(",","."))\n        response.write(\'0\\n                </span>\\n              </li>\\n              \', escape=False)\n        pass\n    response.write(\'\\n              <br>\\n              \', escape=False)\n    if  caixa>=0:\n        response.write(\'\\n              <li class="list-group-item d-flex justify-content-between">\\n                <div>\\n                  <h6 class="my-0">Caixa atual</h6>\\n                  <small class="text-muted">\\n                    Ser\\xc3\\xa1 descontado da comiss\\xc3\\xa3o, fa\\xc3\\xa7a o deposito\\n                  </small>\\n                </div>\\n                <span class="text-muted">\\n                  R$ \', escape=False)\n        response.write("{:,}".format(round(caixa,1)).replace(",","."))\n        response.write(\'0\\n                </span>\\n              </li>\\n              \', escape=False)\n        if saldofinal>=0:\n            response.write(\'\\n              <li class="list-group-item d-flex justify-content-between">\\n                <div>\\n                  <h6 class="my-0 text-success">Saldo Descontando o caixa</h6>\\n                  <small class="text-success">Positivo, j\\xc3\\xa1 cobriu o vale</small>\\n                </div>\\n                <span class="text-success">\\n                  R$ \', escape=False)\n            response.write("{:,}".format(round(saldofinal,1)).replace(",","."))\n            response.write(\'0\\n                </span>\\n              </li>\\n              \', escape=False)\n        else:\n            response.write(\'\\n              <li class="list-group-item d-flex justify-content-between">\\n                <div>\\n                  <h6 class="my-0 text-danger">\\n                    Saldo Descontando o caixa\\n                  </h6>\\n                  <small class="text-danger">\\n                    Negativo, ainda n\\xc3\\xa3o cobriu o seu vale\\n                  </small>\\n                </div>\\n                <span class="text-danger">\\n                  R$ \', escape=False)\n            response.write("{:,}".format(round(saldofinal,1)).replace(",","."))\n            response.write(\'0\\n                </span>\\n              </li>\\n              \', escape=False)\n            pass\n        response.write(\'\\n              \', escape=False)\n    else:\n        response.write(\'\\n              <li class="list-group-item d-flex justify-content-between">\\n                <div>\\n                  <h6 class="my-0">Caixa</h6>\\n                  <small class="text-danger">\\n                    N\\xc3\\xa3o foram registrados todos os recebimentos\\n                  </small>\\n                </div>\\n                <span class="text-danger">\\n                  Registre todos os recebimentos\\n                </span>\\n              </li>\\n              \', escape=False)\n        pass\n    response.write(\'\\n            </ul>\\n          </div>\\n        </div>\\n        <br>\\n      </div>\\n    </div>\\n    \', escape=False)\nelse:\n    response.write(\'\\n    <div class="col-md-6 py-1">\\n      \', escape=False)\n    for row in rows:\n        response.write(\'\\n      <div class="card">\\n          <div class="card-header"> Comiss\\xc3\\xa3o e Saldo</div>\\n          <div class="card-body">\\n            <ul class="list-group list-group-flush">\\n              <li class="list-group-item d-flex justify-content-between">\\n                <div>\\n                  <h6 class="my-0">Comiss\\xc3\\xa3o</h6>\\n                  <small class="text-muted">\\n                    \', escape=False)\n        response.write("{:,}".format(round(sub_venda.comissao_cobranca,1)).replace(",","."))\n        response.write(\'%\\n                  </small>\\n                </div>\\n                <span class="text-muted">\\n                  R$ \', escape=False)\n        response.write("{:,}".format(round(comissao,1)).replace(",","."))\n        response.write(\'0\\n                </span>\\n              </li>\\n              <li class="list-group-item d-flex justify-content-between">\\n                <div>\\n                  <h6 class="my-0">Vale Saida</h6>\\n                  <small class="text-muted">#</small>\\n                </div>\\n                <span class="text-muted">\\n                  R$ \', escape=False)\n        response.write("{:,}".format(round(sub_venda.total_vale_saida_cobrador,1)).replace(",","."))\n        response.write(\'0\\n                </span>\\n              </li>\\n              <li class="list-group-item d-flex justify-content-between">\\n                <div>\\n                  <h6 class="my-0">Vale Caderno</h6>\\n                  <small class="text-muted">#</small>\\n                </div>\\n                <span class="text-muted">\\n                  R$ \', escape=False)\n        response.write("{:,}".format(round(sub_venda.total_caderno_cobrador,1)).replace(",","."))\n        response.write(\'0\\n                </span>\\n              </li>\\n              \', escape=False)\n        saldo_sem_caixa=comissao-sub_venda.total_vale_saida_cobrador-sub_venda.total_caderno_cobrador\n        response.write(\'\\n              \', escape=False)\n        if saldo_sem_caixa>=0:\n            response.write(\'\\n              <li class="list-group-item d-flex justify-content-between">\\n                <div>\\n                  <h6 class="my-0">Saldo Parcial</h6>\\n                  <small class="text-success">\\n                    Comiss\\xc3\\xa3o, descontando os vales\\n                  </small>\\n                </div>\\n                <span class="text-muted">\\n                  R$ \', escape=False)\n            response.write("{:,}".format(round(saldo_sem_caixa,1)).replace(",","."))\n            response.write(\'0\\n                </span>\\n              </li>\\n              \', escape=False)\n        else:\n            response.write(\'\\n              <li class="list-group-item d-flex justify-content-between">\\n                <div>\\n                  <h6 class="my-0 text-danger">Debito Parcial</h6>\\n                  <small class="text-danger">Comiss\\xc3\\xa3o descontando os vales</small>\\n                </div>\\n                <span class="text-danger">\\n                  R$ \', escape=False)\n            response.write("{:,}".format(round(saldo_sem_caixa,1)).replace(",","."))\n            response.write(\'0\\n                </span>\\n              </li>\\n              \', escape=False)\n            pass\n        response.write(\'\\n              <br>\\n              \', escape=False)\n        if  caixa>=0:\n            response.write(\'\\n              <li class="list-group-item d-flex justify-content-between">\\n                <div>\\n                  <h6 class="my-0">Caixa atual</h6>\\n                  <small class="text-muted">\\n                    Ser\\xc3\\xa1 descontado da comiss\\xc3\\xa3o, fa\\xc3\\xa7a o deposito\\n                  </small>\\n                </div>\\n                <span class="text-muted">\\n                  R$ \', escape=False)\n            response.write("{:,}".format(round(caixa,1)).replace(",","."))\n            response.write(\'0\\n                </span>\\n              </li>\\n            </ul>\\n          </div>\\n        </div>\\n      \', escape=False)\n            pass\n        response.write(\'\\n    </div>\\n    \', escape=False)\n        pass\n    response.write(\'\\n  </div>\\n</div>\\n\', escape=False)\n    if auth.user.id!=4561:\n        response.write(\'\\n<a class="btn btn-link m-1 border-info rounded-top" href="\', escape=False)\n        response.write(URL(\'relacao_cobradores\', args=[sub_venda.id]))\n        response.write(\'" style="color:#3b5998" >\\n  <i class="fa fa-fw fa-1x py-1 fa-hand-pointer-o "></i>\\n  Cobradores\\n</a>\\n\', escape=False)\n        pass\n    response.write(\'\\n\', escape=False)\n    sub_venda.total_saldo_cobrador=saldofinal\n    response.write(\'\\n\', escape=False)\n    sub_venda.update_record()\n    response.write(\'\\n\', escape=False)\n    response.write(\'\\n      \', escape=False)\n    response.write(response.toolbar() if response.show_toolbar else \'\')\n    response.write(\'\\n    </div>\\n    \', escape=False)\n    response.write(\' <!-- this is default footer -->\\n    <footer id="noprint" class="footer container-fluid ">\\n      <div class="row">\\n        <div class="col-md-12">\\n          <div class="copyright pull-left">\', escape=False)\n    response.write(T(\'Copyright\'))\n    response.write(\' &#169; \', escape=False)\n    response.write(request.now.year)\n    response.write(\'</div>\\n          <div id="poweredBy" class="pull-right">\\n              Suporte <a href="https://api.whatsapp.com/send?phone=5588981126816">(88)98112-6816</a>\\n            </div>\\n        </div>\\n      </div>\\n    </footer>\\n <footer class="footer container-fluid d-none d-print-block">\\n      <div class="row">\\n        <div class="col-md-12">\\n          <div class="copyright pull-left">Suporte - (88)98112-6816</div>\\n          <div id="poweredBy" class="pull-right">\\n             \', escape=False)\n    if auth.user:\n        response.write(auth.user.first_name)\n        response.write(\' \', escape=False)\n        response.write(auth.user.last_name)\n    else:\n        response.write(\'Aluminum System\', escape=False)\n        pass\n    response.write(\'\\n          </div>\\n        </div>\\n      </div>\\n    </footer>\\n    \', escape=False)\n    response.write(\'\\n    <!-- The javascript =============================== -->\\n    <script src="\', escape=False)\n    response.write(URL(\'static\',\'js/bootstrap.bundle.min.js\'))\n    response.write(\'"></script>\\n    <script src="\', escape=False)\n    response.write(URL(\'static\',\'js/web2py-bootstrap4.js\'))\n    response.write(\'"></script>\\n    \', escape=False)\n    response.write(\'\\n    \', escape=False)\n    if response.google_analytics_id:\n        response.write(\'\\n    <!-- Analytics ==================================== -->\\n    <script src="\', escape=False)\n        response.write(URL(\'static\',\'js/analytics.min.js\'))\n        response.write(\'"></script>\\n    <script type="text/javascript">\\n      analytics.initialize({\\n      \\\'Google Analytics\\\':{trackingId:\\\'\', escape=False)\n        response.write(response.google_analytics_id)\n        response.write("\'}\\n      });\\n    </script>\\n    ", escape=False)\n        pass\n    response.write(\'\\n  </body>\\n</html>\\n\', escape=False)'
p7
sS'snapshot'
p8
(dp9
sS'traceback'
p10
S'None\n'
p11
s.