(dp1
S'output'
p2
S"<type 'exceptions.NameError'> name 'a' is not defined"
p3
sS'layer'
p4
S'/home/rogoberto/web2py/applications/aluminum/views/acs_vendedore/listar_projetos_vendedor.html'
p5
sS'code'
p6
S'response.write(\'<!DOCTYPE html>\\n<!--[if (gt IE 9)|!(IE)]><!--> <html class="no-js" lang="\', escape=False)\nresponse.write(T.accepted_language or \'en\')\nresponse.write(\'"> <!--<![endif]-->\\n  <head>\\n    <meta charset="utf-8">\\n    <!-- www.phpied.com/conditional-comments-block-downloads/ -->\\n    <!-- Always force latest IE rendering engine\\n         (even in intranet) & Chrome Frame\\n         Remove this if you use the .htaccess -->\\n    <meta http-equiv="X-UA-Compatible" content="IE=edge\', escape=False)\nresponse.write(not request.is_local and \',chrome=1\' or \'\')\nresponse.write(\'">\\n    <!--  Mobile Viewport Fix\\n          j.mp/mobileviewport & davidbcalhoun.com/2010/viewport-metatag\\n          device-width: Occupy full width of the screen in its current orientation\\n          initial-scale = 1.0 retains dimensions instead of zooming out if page height > device height\\n          user-scalable = yes allows the user to zoom in -->\\n    <meta name="viewport" content="width=device-width, initial-scale=1.0">\\n       <title>Aluminum System</title>\\n      <meta name="author" content="Arsenal System">\\n<!--       <meta name="description" content="cr\\xc3\\xa9diario de aluminio, controle seus custos, despesas vendas e cobran\\xc3\\xa7as"> -->\\n<!--       <meta name="keywords" content="Controle Cheque, pagamentos, Sistema"> -->\\n<!--       <meta name="author" content="Arsenal System"> -->\\n      <meta name="description" content="Gerenciamento controle de crediario">\\n    <!-- http://dev.w3.org/html5/markup/meta.name.html -->\\n    <meta name="application-name" content="sistema credi\\xc3\\xa1rio panela">\\n    <!-- Speaking of Google, don\\\'t forget to set your site up:\\n         http://google.com/webmasters -->\\n    <meta name="google-site-verification" content="peneleiro Juazeiro, panela credi\\xc3\\xa1rio, sistema panela">\\n    <!-- include stylesheets -->\\n    <link rel="stylesheet" href="https://cdnjs.cloudflare.com/ajax/libs/font-awesome/4.7.0/css/font-awesome.min.css"/>\\n    <link rel="stylesheet" href="\', escape=False)\nresponse.write(URL(\'static\',\'css/bootstrap.min.css\'))\nresponse.write(\'"/>\\n    <link rel="stylesheet" href="\', escape=False)\nresponse.write(URL(\'static\',\'css/web2py-bootstrap4.css\'))\nresponse.write(\'"/>\\n    <link rel="shortcut icon" href="\', escape=False)\nresponse.write(URL(\'static\',\'images/ico.ico\'))\nresponse.write(\'" type="image/x-icon">\\n    <link rel="apple-touch-icon" href="\', escape=False)\nresponse.write(URL(\'static\',\'images/ico.png\'))\nresponse.write(\'">\\n    <!-- All JavaScript at the bottom, except for Modernizr which enables\\n         HTML5 elements & feature detects -->\\n    <script src="\', escape=False)\nresponse.write(URL(\'static\',\'js/modernizr-2.8.3.min.js\'))\nresponse.write(\'"></script>\\n    <!-- Favicons -->\\n    \', escape=False)\nresponse.write(\'<script type="text/javascript"><!--\\n    // These variables are used by the web2py_ajax_init function in web2py_ajax.js (which is loaded below).\\n    \', escape=False)\nresponse.write(ASSIGNJS(\nw2p_ajax_confirm_message = T(\'Are you sure you want to delete this object?\'),\nw2p_ajax_disable_with_message = T(\'Working...\'),\nw2p_ajax_date_format = T(\'%Y-%m-%d\'),\nw2p_ajax_datetime_format = T(\'%Y-%m-%d %H:%M:%S\'),\najax_error_500 = T.M(\'An error occured, please [[reload %s]] the page\') % URL(args=request.args, vars=request.get_vars)\n))\nresponse.write(\'\\n    //--></script>\\n\', escape=False)\nresponse.files.insert(0,URL(\'static\',\'js/jquery.js\'))\nresponse.files.insert(1,URL(\'static\',\'css/calendar.css\'))\nresponse.files.insert(2,URL(\'static\',\'js/calendar.js\'))\nresponse.files.insert(3,URL(\'static\',\'js/web2py.js\'))\nresponse.include_meta()\nresponse.include_files()\nresponse.write(\'\\n\', escape=False)\nresponse.write(\' <!-- this includes jquery.js, calendar.js/.css and web2py.js -->\\n      \', escape=False)\nif auth.user:\n    response.write(\'\\n    \', escape=False)\n    if auth.user.first_name=="Rogoberto":\n        response.write(\'\\n   \\n    \', escape=False)\n    elif auth.user.first_name=="Meme":\n        response.write(\'\\n    <link rel="stylesheet" href="https://bootswatch.com/4/materia/bootstrap.css"> \\n    \', escape=False)\n        pass\n    response.write(\'\\n    \', escape=False)\n    pass\nresponse.write(\'\\n    \', escape=False)\nresponse.write(\'\\n  \\n  </head>\\n  <body>\\n      \\n        <style  type="text/css">\\n    @media print{\\n        .btn{\\n             display: none;\\n        }\\n        #noprint { display:none; } \\n      a:link{font:15px "verdana"; color:#8B4513; text-decoration:none;}\\n\\na:hover{font:20px "verdana"; color:black; text-decoration:underline;}\\n    }\\n      </style>\\n    <div class="w2p_flash alert alert-dismissable">\', escape=False)\nresponse.write(response.flash or \'\')\nresponse.write(\'</div>\\n    <!-- Navbar ======================================= -->\\n    <nav class="navbar navbar-light navbar-expand-md bg-faded justify-content-center">\\n        <a class="navbar-brand" href="https://rogoberto.pythonanywhere.com/aluminum/#acesso">Aluminum</a>\\n       <button class="navbar-toggler" type="button" data-toggle="collapse" data-target="#navbarNavDropdown" aria-controls="navbarNavDropdown" aria-expanded="false" aria-label="Toggle navigation">\\n         <span class="navbar-toggler-icon"></span>\\n       </button>\\n       <div class="navbar-collapse collapse w-100" id="navbarNavDropdown">\\n         <ul class="navbar-nav w-100 justify-content-center">\\n          \', escape=False)\nfor _item in response.menu or []:\n    response.write(\'\\n          \', escape=False)\n    if (not len(_item)>4) or not _item[3]:\n        response.write(\'\\n          <li class="nav-item \', escape=False)\n        if _item[1]:\n            response.write(\'active\', escape=False)\n            pass\n        response.write(\'">\\n            <a class="nav-link" href="\', escape=False)\n        response.write(_item[2])\n        response.write(\'">\', escape=False)\n        response.write(_item[0])\n        response.write(\'</a>\\n          </li>\\n          \', escape=False)\n    else:\n        response.write(\'\\n          <li class="nav-item dropdown">\\n            <a class="nav-link dropdown-toggle" href="\', escape=False)\n        response.write(_item[2])\n        response.write(\'" data-toggle="dropdown" aria-haspopup="true" aria-expanded="false">\', escape=False)\n        response.write(_item[0])\n        response.write(\'</a>\\n            <div class="dropdown-menu">\\n              \', escape=False)\n        for _subitem in _item[3]:\n            response.write(\'\\n              <a class="dropdown-item" href="\', escape=False)\n            response.write(_subitem[2])\n            response.write(\'">\', escape=False)\n            response.write(_subitem[0])\n            response.write(\'</a>\\n              \', escape=False)\n            pass\n        response.write(\'\\n            </div>\\n          </li>\\n          \', escape=False)\n        pass\n    response.write(\'\\n          \', escape=False)\n    pass\nresponse.write(\'\\n        </ul>\\n\\n        \', escape=False)\nif \'auth\' in globals():\n    response.write(\'\\n        <ul class="nav navbar-nav ml-auto w-100 justify-content-end">\\n          <li class="nav-item dropdown">\\n            <a class="nav-link dropdown-toggle" href="#" data-toggle="dropdown" aria-haspopup="true" aria-expanded="false">\\n              \', escape=False)\n    if auth.user:\n        response.write(auth.user.first_name)\n    else:\n        response.write(\'LOGIN\', escape=False)\n        pass\n    response.write(\'\\n            </a>\\n            <div class="dropdown-menu dropdown-menu-right">\\n              \', escape=False)\n    if auth.user:\n        response.write(\'\\n              <a class="dropdown-item" href="\', escape=False)\n        response.write(URL(\'default\',\'user/profile\'))\n        response.write(\'">\', escape=False)\n        response.write(T(\'Profile\'))\n        response.write(\'</a>\\n              \', escape=False)\n        if \'change_password\' not in auth.settings.actions_disabled:\n            response.write(\'\\n              <a class="dropdown-item" href="\', escape=False)\n            response.write(URL(\'default\',\'user/change_password\'))\n            response.write(\'">\', escape=False)\n            response.write(T(\'Change Password\'))\n            response.write(\'</a>\\n              \', escape=False)\n            pass\n        response.write(\'\\n              <a class="dropdown-item" href="\', escape=False)\n        response.write(URL(\'default\',\'user/logout\'))\n        response.write(\'">\', escape=False)\n        response.write(T(\'Logout\'))\n        response.write(\'</a>\\n              \', escape=False)\n    else:\n        response.write(\'\\n              <a class="dropdown-item" href="\', escape=False)\n        response.write(URL(\'default\',\'user/login\'))\n        response.write(\'">\', escape=False)\n        response.write(T(\'Login\'))\n        response.write(\'</a>\\n              \', escape=False)\n        if \'register\' not in auth.settings.actions_disabled:\n            response.write(\'\\n              <a class="dropdown-item" href="\', escape=False)\n            response.write(URL(\'default\',\'user/register\'))\n            response.write(\'">\', escape=False)\n            response.write(T(\'Sign up\'))\n            response.write(\'</a>\\n              \', escape=False)\n            pass\n        response.write(\'\\n              \', escape=False)\n        if \'retrieve_password\' not in auth.settings.actions_disabled:\n            response.write(\'\\n              <a class="dropdown-item" href="\', escape=False)\n            response.write(URL(\'default\',\'user/retrieve_password\'))\n            response.write(\'">\', escape=False)\n            response.write(T(\'Lost Password\'))\n            response.write(\'</a>\\n              \', escape=False)\n            pass\n        response.write(\'\\n              \', escape=False)\n        pass\n    response.write(\'\\n            </div>\\n          </li>\\n        </ul>\\n        \', escape=False)\n    pass\nresponse.write(\'\\n      </div>\\n    </nav>\\n\\n    <!-- Masthead ===================================== -->\\n    \', escape=False)\nresponse.write(\'\\n<header class="header container-fluid d-none d-print-block">\\n     <div class="row">\\n        <div class="col-md-12">\\n          <div class="copyright pull-left">Aluminum System</div>\\n          <div id="poweredBy" class="pull-right">\\n            Gest\\xc3\\xa3o de vendas e cobran\\xc3\\xa7as artefatos de aluminio\\n            \\n          </div>\\n        </div>\\n      </div>\\n</header>\\n    \', escape=False)\nresponse.write(\'\\n    <!-- Main ========================================= -->\\n    <!-- Begin page content -->\\n    <div class="container-fluid main-container py-5">\\n      \', escape=False)\nresponse.write(\'\\n<div class="row">\\n        <div class="col-md-6 col-6">\\n          <h3 class="">\', escape=False)\nresponse.write(funcionario_empresa.nome)\nresponse.write(\'</h3>\\n          <p class="lead">Historico</p>\\n        </div>\\n      </div>\\n      <div class="row">\\n        <div class="col-md-2 col-6">\\n          <a class="btn btn-outline-danger btn-block my-1" href="\', escape=False)\nresponse.write(URL(\'index\',args=funcionario_empresa.empresa))\nresponse.write(\'">\\n            <i class="fa fa-arrow-left fa-fw"></i>\\n            Voltar\\n          </a>\\n        </div>\\n        \', escape=False)\nif False:\n    response.write(\'\\n        <div class="col-md-2 col-6">\\n          <a class="btn btn-outline-primary btn-block my-1" href="#">\\n            <i class="fa fa-download fa-fw"></i>\\n            Cadastrar\\n          </a>\\n        </div>\\n        \', escape=False)\n    pass\nresponse.write(\'\\n        <div class="col-md-2  col-12"></div>\\n        <div class="col-md-6 col-12"></div>\\n      </div>\\n      <div class="row">\\n  \', escape=False)\nfor row in rows:\n    response.write(\'\\n  \', escape=False)\n    if a==3:\n        response.write(\'\\n  \', escape=False)\n        a=0\n        response.write(\'\\n</div>\\n  <div style="break-after:page"></div>\\n<div class="row">\\n  <div class="col-md-12">\\n    <h4 class="">Rela\\xc3\\xa7\\xc3\\xa3o Individual </h4>\\n    <p>\\n      \', escape=False)\n        response.write(projeto.descricao)\n        response.write(\'\\n    </p>\\n  </div>\\n</div>\\n<div class="row">\\n  \', escape=False)\n        pass\n    response.write(\'\\n  \', escape=False)\n    a+=1\n    response.write(\'\\n        <div class="col-md-4 p-3">\\n          <h5 class="text-center">\\n            <a class="text-primary"  href="\', escape=False)\n    response.write(URL(\'alterar_comissoes_vendedor\', args=row.id))\n    response.write(\'">\\n              <i class="fa fa-fw fa-pencil"></i></a>\\n            \', escape=False)\n    response.write(row.nome.replace("cfrd",""))\n    response.write(\'</h5>\\n          <ul class="list-group">\\n            <li class="list-group-item d-flex justify-content-between">\\n              <div>\\n                <h6 class="my-0">\\n                  <b>Valor da Venda</b>\\n                </h6>\\n                <small class="text-muted">Total das Vendas</small>\\n              </div>\\n              <span class="text-muted">\\n                R$ \', escape=False)\n    response.write("{:,.2f}".format(round(row.total_vendas,2)).replace(",","#").replace(".",",").replace("#","."))\n    response.write(\'\\n              </span>\\n            </li>\\n            \', escape=False)\n    comissao=row.total_vendas\n    response.write(\'\\n            \', escape=False)\n    if comissao > 0:\n        response.write(\'\\n            \', escape=False)\n        comissao=row.total_vendas*row.comissao_venda/100\n        response.write(\'\\n            \', escape=False)\n        pass\n    response.write(\'\\n            <li class="list-group-item d-flex justify-content-between">\\n              <div>\\n                <h6 class="my-0">\\n                  <b>Adiantamento de Comiss\\xc3\\xa3o</b>\\n                </h6>\\n                <small class="text-muted">\', escape=False)\n    response.write(round(row.comissao_venda,0))\n    response.write(\'%</small>\\n              </div>\\n              <span class="text-muted">\\n                R$ \', escape=False)\n    response.write("{:,.2f}".format(round(comissao,2)).replace(",","#").replace(".",",").replace("#","."))\n    response.write(\'\\n              </span>\\n            </li>\\n            <li class="list-group-item d-flex justify-content-between">\\n              <div>\\n                <h6 class="my-0">\\n                  <b>Vale Inicial</b>\\n                </h6>\\n                <small class="text-muted">\\n                  Pego com a empresa\\n                </small>\\n              </div>\\n              <span class="text-muted">\\n                R$ \', escape=False)\n    response.write("{:,.2f}".format(round(row.vale_saida,2)).replace(",","#").replace(".",",").replace("#","."))\n    response.write(\'\\n              </span>\\n            </li>\\n            <li class="list-group-item d-flex justify-content-between">\\n              <div>\\n                <h6 class="my-0">\\n                  <b>Vale de Viagem</b>\\n                </h6>\\n                <small class="text-muted">\\n                  Pego durante a venda\\n                </small>\\n              </div> \\n              <span class="text-muted">\\n                R$ \', escape=False)\n    response.write("{:,.2f}".format(round(row.total_vale_caderno,2)).replace(",","#").replace(".",",").replace("#","."))\n    response.write(\'\\n              </span>\\n            </li>\\n            \', escape=False)\n    saldo=comissao-row.vale_saida-row.total_vale_caderno\n    response.write(\'\\n            \', escape=False)\n    if saldo > 0:\n        response.write(\'\\n            <li class="list-group-item d-flex justify-content-between bg-light">\\n              <div class="text-success">\\n                <h6 class="my-0">\\n                  <b>Saldo</b>\\n                </h6>\\n                <small>Positivo</small>\\n              </div> \\n              <span class="text-success">\\n                R$ \', escape=False)\n        response.write("{:,.2f}".format(round(saldo,2)).replace(",","#").replace(".",",").replace("#","."))\n        response.write(\'\\n              </span>\\n            </li>\\n            \', escape=False)\n    else:\n        response.write(\'\\n            <li class="list-group-item d-flex justify-content-between bg-light">\\n              <div class="text-danger">\\n                <h6 class="my-0">\\n                  <b>Saldo</b></h6> <small>Negativo</small>\\n              </div>\\n              <span class="text-danger">\\n                R$ \', escape=False)\n        response.write("{:,.2f}".format(round(saldo,2)).replace(",","#").replace(".",",").replace("#","."))\n        response.write(\'\\n              </span>\\n            </li>\\n            \', escape=False)\n        pass\n    response.write(\'\\n            \', escape=False)\n    if row.total_recebido>0:\n        response.write(\'\\n            \', escape=False)\n        percent=row.total_recebido/row.total_vendas*100\n        response.write(\'\\n            \', escape=False)\n        comissaoc=row.total_recebido*row.comissao_cobranca/100\n        response.write(\'\\n            \', escape=False)\n        saldo=comissaoc-comissao\n        response.write(\'\\n            <li class="list-group-item d-flex justify-content-between">\\n              <div>\\n                <h6 class="my-0">\\n                  <b>Valor Recebido</b>\\n                </h6>\\n                <small class="text-muted">\', escape=False)\n        response.write(round(percent,0))\n        response.write(\'%</small>\\n              </div>\\n              <span class="text-muted">\\n                R$ \', escape=False)\n        response.write("{:,.2f}".format(round(row.total_recebido,2)).replace(",","#").replace(".",",").replace("#","."))\n        response.write(\'\\n              </span>\\n            </li>\\n            <li class="list-group-item d-flex justify-content-between">\\n              <div>\\n                <h6 class="my-0"><b>Comiss\\xc3\\xa3o Real</b></h6>\\n                <small class="text-muted">\', escape=False)\n        response.write(round(row.comissao_cobranca,0))\n        response.write(\'%</small>\\n              </div>\\n              <span class="text-muted">\\n                R$ \', escape=False)\n        response.write("{:,.2f}".format(round(comissaoc,2)).replace(",","#").replace(".",",").replace("#","."))\n        response.write(\'\\n              </span>\\n            </li>\\n            <li class="list-group-item d-flex justify-content-between">\\n              <div>\\n                <h6 class="my-0"><b>Valor Descontado</b></h6>\\n                <small class="text-muted">\\n                  Valor Descontado\\n                </small>\\n              </div>\\n              <span class="text-muted">\\n                \', escape=False)\n        if row.total_descontado>=0:\n            response.write(\'\\n                R$ \', escape=False)\n            response.write("{:,.2f}".format(round(row.total_descontado,2)).replace(",","#").replace(".",",").replace("#","."))\n            response.write(\'\\n                \', escape=False)\n        else:\n            response.write(\'\\n                \', escape=False)\n            row.total_descontado=0\n            response.write(\'\\n                \', escape=False)\n            row.update_record()\n            response.write(\'\\n                R$ \', escape=False)\n            response.write("{:,.2f}".format(round(row.total_descontado,2)).replace(",","#").replace(".",",").replace("#","."))\n            response.write(\'\\n                \', escape=False)\n            pass\n        response.write(\'\\n              </span>\\n            </li>\\n            \', escape=False)\n        if saldo>=0:\n            response.write(\'\\n            <li class="list-group-item d-flex justify-content-between bg-light">\\n              <div class="text-success">\\n                <h6 class="my-0"><b>Saldo</b></h6> <small>Positivo</small>\\n              </div> <span class="text-success">\\n                R$ \', escape=False)\n            response.write("{:,.2f}".format(round(saldo,2)).replace(",","#").replace(".",",").replace("#","."))\n            response.write(\'\\n              </span>\\n            </li>\\n            \', escape=False)\n        else:\n            response.write(\'\\n            <li class="list-group-item d-flex justify-content-between bg-light">\\n              <div class="text-danger">\\n                <h6 class="my-0"><b>Saldo</b></h6> <small>Negativo</small>\\n              </div> <span class="text-danger">\\n                R$ \', escape=False)\n            response.write("{:,.2f}".format(round(saldo,2)).replace(",","#").replace(".",",").replace("#","."))\n            response.write(\'\\n              </span>\\n            </li>\\n            \', escape=False)\n            pass\n        response.write(\'\\n            \\n  \', escape=False)\n        pass\n    response.write(\'\\n            \\n          </ul>\\n        </div>\\n  \', escape=False)\n    pass\nresponse.write(\'\\n</div>\\n      <div class="row">\\n        <div class="col-md-6"></div>\\n        <div class="col-md-6"></div>\\n      </div>\\n\', escape=False)\nresponse.write(\'\\n      \', escape=False)\nresponse.write(response.toolbar() if response.show_toolbar else \'\')\nresponse.write(\'\\n    </div>\\n    \', escape=False)\nresponse.write(\' <!-- this is default footer -->\\n    <footer id="noprint" class="footer container-fluid ">\\n      <div class="row">\\n        <div class="col-md-12">\\n          <div class="copyright pull-left">\', escape=False)\nresponse.write(T(\'Copyright\'))\nresponse.write(\' &#169; \', escape=False)\nresponse.write(request.now.year)\nresponse.write(\'</div>\\n          <div id="poweredBy" class="pull-right">\\n              Suporte <a href="https://api.whatsapp.com/send?phone=5588981126816">(88)98112-6816</a>\\n            </div>\\n        </div>\\n      </div>\\n    </footer>\\n <footer class="footer container-fluid d-none d-print-block">\\n      <div class="row">\\n        <div class="col-md-12">\\n          <div class="copyright pull-left">Suporte - (88)98112-6816</div>\\n          <div id="poweredBy" class="pull-right">\\n             \', escape=False)\nif auth.user:\n    response.write(auth.user.first_name)\n    response.write(\' \', escape=False)\n    response.write(auth.user.last_name)\nelse:\n    response.write(\'Aluminum System\', escape=False)\n    pass\nresponse.write(\'\\n          </div>\\n        </div>\\n      </div>\\n    </footer>\\n    \', escape=False)\nresponse.write(\'\\n    <!-- The javascript =============================== -->\\n    <script src="\', escape=False)\nresponse.write(URL(\'static\',\'js/bootstrap.bundle.min.js\'))\nresponse.write(\'"></script>\\n    <script src="\', escape=False)\nresponse.write(URL(\'static\',\'js/web2py-bootstrap4.js\'))\nresponse.write(\'"></script>\\n    \', escape=False)\nresponse.write(\'\\n    \', escape=False)\nif response.google_analytics_id:\n    response.write(\'\\n    <!-- Analytics ==================================== -->\\n    <script src="\', escape=False)\n    response.write(URL(\'static\',\'js/analytics.min.js\'))\n    response.write(\'"></script>\\n    <script type="text/javascript">\\n      analytics.initialize({\\n      \\\'Google Analytics\\\':{trackingId:\\\'\', escape=False)\n    response.write(response.google_analytics_id)\n    response.write("\'}\\n      });\\n    </script>\\n    ", escape=False)\n    pass\nresponse.write(\'\\n  </body>\\n</html>\\n\', escape=False)'
p7
sS'snapshot'
p8
(dp9
S'exception'
p10
(dp11
S'__getslice__'
p12
S"<method-wrapper '__getslice__' of exceptions.NameError object>"
p13
sS'__str__'
p14
S"<method-wrapper '__str__' of exceptions.NameError object>"
p15
sS'__reduce__'
p16
S'<built-in method __reduce__ of exceptions.NameError object>'
p17
sS'__dict__'
p18
S'{}'
p19
sS'message'
p20
S'"name \'a\' is not defined"'
p21
sS'__sizeof__'
p22
S'<built-in method __sizeof__ of exceptions.NameError object>'
p23
sS'__init__'
p24
S"<method-wrapper '__init__' of exceptions.NameError object>"
p25
sS'__setattr__'
p26
S"<method-wrapper '__setattr__' of exceptions.NameError object>"
p27
sS'__reduce_ex__'
p28
S'<built-in method __reduce_ex__ of exceptions.NameError object>'
p29
sS'__new__'
p30
S'<built-in method __new__ of type object>'
p31
sS'__format__'
p32
S'<built-in method __format__ of exceptions.NameError object>'
p33
sS'__class__'
p34
S"<type 'exceptions.NameError'>"
p35
sS'__doc__'
p36
S"'Name not found globally.'"
p37
sS'__getitem__'
p38
S"<method-wrapper '__getitem__' of exceptions.NameError object>"
p39
sS'__setstate__'
p40
S'<built-in method __setstate__ of exceptions.NameError object>'
p41
sS'__getattribute__'
p42
S"<method-wrapper '__getattribute__' of exceptions.NameError object>"
p43
sS'args'
p44
S'("name \'a\' is not defined",)'
p45
sS'__subclasshook__'
p46
S'<built-in method __subclasshook__ of type object>'
p47
sS'__unicode__'
p48
S'<built-in method __unicode__ of exceptions.NameError object>'
p49
sS'__delattr__'
p50
S"<method-wrapper '__delattr__' of exceptions.NameError object>"
p51
sS'__repr__'
p52
S"<method-wrapper '__repr__' of exceptions.NameError object>"
p53
sS'__hash__'
p54
S"<method-wrapper '__hash__' of exceptions.NameError object>"
p55
ssS'evalue'
p56
S"name 'a' is not defined"
p57
sS'request'
p58
cgluon.html
XML_unpickle
p59
(S'sBg\x00\x00<div><table><tr><td style="font-weight:bold;vertical-align:top;">ajax</td><td style="vertical-align:top;">:</td><td><div>False</div></td></tr><tr><td style="font-weight:bold;vertical-align:top;">application</td><td style="vertical-align:top;">:</td><td><div>aluminum</div></td></tr><tr><td style="font-weight:bold;vertical-align:top;">args</td><td style="vertical-align:top;">:</td><td><div><table><tr><td><div>8</div></td></tr></table></div></td></tr><tr><td style="font-weight:bold;vertical-align:top;">cid</td><td style="vertical-align:top;">:</td><td><div>None</div></td></tr><tr><td style="font-weight:bold;vertical-align:top;">client</td><td style="vertical-align:top;">:</td><td><div>191.212.144.51</div></td></tr><tr><td style="font-weight:bold;vertical-align:top;">controller</td><td style="vertical-align:top;">:</td><td><div>acs_vendedore</div></td></tr><tr><td style="font-weight:bold;vertical-align:top;">cookies</td><td style="vertical-align:top;">:</td><td><div><table><tr><td style="font-weight:bold;vertical-align:top;">session_id_admin</td><td style="vertical-align:top;">:</td><td><div>191.212.144.51-f1dcb516-3dce-45f3-9767-1f51495fd8e4<table><tr><td style="font-weight:bold;vertical-align:top;">comment</td><td style="vertical-align:top;">:</td><td><div></div></td></tr><tr><td style="font-weight:bold;vertical-align:top;">domain</td><td style="vertical-align:top;">:</td><td><div></div></td></tr><tr><td style="font-weight:bold;vertical-align:top;">expires</td><td style="vertical-align:top;">:</td><td><div></div></td></tr><tr><td style="font-weight:bold;vertical-align:top;">httponly</td><td style="vertical-align:top;">:</td><td><div></div></td></tr><tr><td style="font-weight:bold;vertical-align:top;">max-age</td><td style="vertical-align:top;">:</td><td><div></div></td></tr><tr><td style="font-weight:bold;vertical-align:top;">path</td><td style="vertical-align:top;">:</td><td><div></div></td></tr><tr><td style="font-weight:bold;vertical-align:top;">secure</td><td style="vertical-align:top;">:</td><td><div></div></td></tr><tr><td style="font-weight:bold;vertical-align:top;">version</td><td style="vertical-align:top;">:</td><td><div></div></td></tr></table></div></td></tr><tr><td style="font-weight:bold;vertical-align:top;">session_id_agrosystem</td><td style="vertical-align:top;">:</td><td><div>191.212.144.51-3dc5c406-642a-4277-ad66-fbbfa730d36c<table><tr><td style="font-weight:bold;vertical-align:top;">comment</td><td style="vertical-align:top;">:</td><td><div></div></td></tr><tr><td style="font-weight:bold;vertical-align:top;">domain</td><td style="vertical-align:top;">:</td><td><div></div></td></tr><tr><td style="font-weight:bold;vertical-align:top;">expires</td><td style="vertical-align:top;">:</td><td><div></div></td></tr><tr><td style="font-weight:bold;vertical-align:top;">httponly</td><td style="vertical-align:top;">:</td><td><div></div></td></tr><tr><td style="font-weight:bold;vertical-align:top;">max-age</td><td style="vertical-align:top;">:</td><td><div></div></td></tr><tr><td style="font-weight:bold;vertical-align:top;">path</td><td style="vertical-align:top;">:</td><td><div></div></td></tr><tr><td style="font-weight:bold;vertical-align:top;">secure</td><td style="vertical-align:top;">:</td><td><div></div></td></tr><tr><td style="font-weight:bold;vertical-align:top;">version</td><td style="vertical-align:top;">:</td><td><div></div></td></tr></table></div></td></tr><tr><td style="font-weight:bold;vertical-align:top;">session_id_aluminum</td><td style="vertical-align:top;">:</td><td><div>191.212.144.51-24616db9-0b73-4e6c-9979-71492a58f15d<table><tr><td style="font-weight:bold;vertical-align:top;">comment</td><td style="vertical-align:top;">:</td><td><div></div></td></tr><tr><td style="font-weight:bold;vertical-align:top;">domain</td><td style="vertical-align:top;">:</td><td><div></div></td></tr><tr><td style="font-weight:bold;vertical-align:top;">expires</td><td style="vertical-align:top;">:</td><td><div></div></td></tr><tr><td style="font-weight:bold;vertical-align:top;">httponly</td><td style="vertical-align:top;">:</td><td><div></div></td></tr><tr><td style="font-weight:bold;vertical-align:top;">max-age</td><td style="vertical-align:top;">:</td><td><div></div></td></tr><tr><td style="font-weight:bold;vertical-align:top;">path</td><td style="vertical-align:top;">:</td><td><div></div></td></tr><tr><td style="font-weight:bold;vertical-align:top;">secure</td><td style="vertical-align:top;">:</td><td><div></div></td></tr><tr><td style="font-weight:bold;vertical-align:top;">version</td><td style="vertical-align:top;">:</td><td><div></div></td></tr></table></div></td></tr><tr><td style="font-weight:bold;vertical-align:top;">session_id_overcoming</td><td style="vertical-align:top;">:</td><td><div>191.212.144.51-6e30a602-ad2f-41a0-9b71-34a2b46366c3<table><tr><td style="font-weight:bold;vertical-align:top;">comment</td><td style="vertical-align:top;">:</td><td><div></div></td></tr><tr><td style="font-weight:bold;vertical-align:top;">domain</td><td style="vertical-align:top;">:</td><td><div></div></td></tr><tr><td style="font-weight:bold;vertical-align:top;">expires</td><td style="vertical-align:top;">:</td><td><div></div></td></tr><tr><td style="font-weight:bold;vertical-align:top;">httponly</td><td style="vertical-align:top;">:</td><td><div></div></td></tr><tr><td style="font-weight:bold;vertical-align:top;">max-age</td><td style="vertical-align:top;">:</td><td><div></div></td></tr><tr><td style="font-weight:bold;vertical-align:top;">path</td><td style="vertical-align:top;">:</td><td><div></div></td></tr><tr><td style="font-weight:bold;vertical-align:top;">secure</td><td style="vertical-align:top;">:</td><td><div></div></td></tr><tr><td style="font-weight:bold;vertical-align:top;">version</td><td style="vertical-align:top;">:</td><td><div></div></td></tr></table></div></td></tr><tr><td style="font-weight:bold;vertical-align:top;">session_id_welcome</td><td style="vertical-align:top;">:</td><td><div>191.212.144.51-e612a197-4279-4f7d-952e-c313e96a3cc7<table><tr><td style="font-weight:bold;vertical-align:top;">comment</td><td style="vertical-align:top;">:</td><td><div></div></td></tr><tr><td style="font-weight:bold;vertical-align:top;">domain</td><td style="vertical-align:top;">:</td><td><div></div></td></tr><tr><td style="font-weight:bold;vertical-align:top;">expires</td><td style="vertical-align:top;">:</td><td><div></div></td></tr><tr><td style="font-weight:bold;vertical-align:top;">httponly</td><td style="vertical-align:top;">:</td><td><div></div></td></tr><tr><td style="font-weight:bold;vertical-align:top;">max-age</td><td style="vertical-align:top;">:</td><td><div></div></td></tr><tr><td style="font-weight:bold;vertical-align:top;">path</td><td style="vertical-align:top;">:</td><td><div></div></td></tr><tr><td style="font-weight:bold;vertical-align:top;">secure</td><td style="vertical-align:top;">:</td><td><div></div></td></tr><tr><td style="font-weight:bold;vertical-align:top;">version</td><td style="vertical-align:top;">:</td><td><div></div></td></tr></table></div></td></tr></table></div></td></tr><tr><td style="font-weight:bold;vertical-align:top;">env</td><td style="vertical-align:top;">:</td><td><div><table><tr><td style="font-weight:bold;vertical-align:top;">CONTENT_LENGTH</td><td style="vertical-align:top;">:</td><td><div></div></td></tr><tr><td style="font-weight:bold;vertical-align:top;">CONTENT_TYPE</td><td style="vertical-align:top;">:</td><td><div></div></td></tr><tr><td style="font-weight:bold;vertical-align:top;">DOCUMENT_ROOT</td><td style="vertical-align:top;">:</td><td><div>/usr/local/openresty/nginx/html</div></td></tr><tr><td style="font-weight:bold;vertical-align:top;">HTTPS</td><td style="vertical-align:top;">:</td><td><div>on</div></td></tr><tr><td style="font-weight:bold;vertical-align:top;">HTTP_ACCEPT</td><td style="vertical-align:top;">:</td><td><div>text/html,application/xhtml+xml,application/xml;q=0.9,image/webp,*/*;q=0.8</div></td></tr><tr><td style="font-weight:bold;vertical-align:top;">HTTP_ACCEPT_ENCODING</td><td style="vertical-align:top;">:</td><td><div>gzip, deflate, br</div></td></tr><tr><td style="font-weight:bold;vertical-align:top;">HTTP_ACCEPT_LANGUAGE</td><td style="vertical-align:top;">:</td><td><div>pt-BR,pt;q=0.8,en-US;q=0.5,en;q=0.3</div></td></tr><tr><td style="font-weight:bold;vertical-align:top;">HTTP_CACHE_CONTROL</td><td style="vertical-align:top;">:</td><td><div>max-age=0</div></td></tr><tr><td style="font-weight:bold;vertical-align:top;">HTTP_CONNECTION</td><td style="vertical-align:top;">:</td><td><div>close</div></td></tr><tr><td style="font-weight:bold;vertical-align:top;">HTTP_COOKIE</td><td style="vertical-align:top;">:</td><td><div>_ga=GA1.3.89391603.1621978944; session_id_overcoming=191.212.144.51-6e30a602-ad2f-41a0-9b71-34a2b46366c3; _ga=GA1.3.89391603.1621978944; session_id_agrosystem=191.212.144.51-3dc5c406-642a-4277-ad66-fbbfa730d36c; session_id_aluminum=191.212.144.51-24616db9-0b73-4e6c-9979-71492a58f15d; _gid=GA1.3.1270904441.1625854926; session_id_admin=191.212.144.51-f1dcb516-3dce-45f3-9767-1f51495fd8e4; session_id_welcome=191.212.144.51-e612a197-4279-4f7d-952e-c313e96a3cc7</div></td></tr><tr><td style="font-weight:bold;vertical-align:top;">HTTP_HOST</td><td style="vertical-align:top;">:</td><td><div>rogoberto.pythonanywhere.com</div></td></tr><tr><td style="font-weight:bold;vertical-align:top;">HTTP_REFERER</td><td style="vertical-align:top;">:</td><td><div>https://rogoberto.pythonanywhere.com/aluminum/acs_vendedore/index/4</div></td></tr><tr><td style="font-weight:bold;vertical-align:top;">HTTP_UPGRADE_INSECURE_REQUESTS</td><td style="vertical-align:top;">:</td><td><div>1</div></td></tr><tr><td style="font-weight:bold;vertical-align:top;">HTTP_USER_AGENT</td><td style="vertical-align:top;">:</td><td><div>Mozilla/5.0 (X11; Ubuntu; Linux x86_64; rv:89.0) Gecko/20100101 Firefox/89.0</div></td></tr><tr><td style="font-weight:bold;vertical-align:top;">HTTP_X_FORWARDED_FOR</td><td style="vertical-align:top;">:</td><td><div>191.212.144.51</div></td></tr><tr><td style="font-weight:bold;vertical-align:top;">HTTP_X_REAL_IP</td><td style="vertical-align:top;">:</td><td><div>191.212.144.51</div></td></tr><tr><td style="font-weight:bold;vertical-align:top;">PATH_INFO</td><td style="vertical-align:top;">:</td><td><div>/aluminum/acs_vendedore/listar_projetos_vendedor/8</div></td></tr><tr><td style="font-weight:bold;vertical-align:top;">QUERY_STRING</td><td style="vertical-align:top;">:</td><td><div></div></td></tr><tr><td style="font-weight:bold;vertical-align:top;">REMOTE_ADDR</td><td style="vertical-align:top;">:</td><td><div>10.0.0.224</div></td></tr><tr><td style="font-weight:bold;vertical-align:top;">REMOTE_PORT</td><td style="vertical-align:top;">:</td><td><div>35862</div></td></tr><tr><td style="font-weight:bold;vertical-align:top;">REQUEST_METHOD</td><td style="vertical-align:top;">:</td><td><div>GET</div></td></tr><tr><td style="font-weight:bold;vertical-align:top;">REQUEST_URI</td><td style="vertical-align:top;">:</td><td><div>/aluminum/acs_vendedore/listar_projetos_vendedor/8</div></td></tr><tr><td style="font-weight:bold;vertical-align:top;">SCRIPT_NAME</td><td style="vertical-align:top;">:</td><td><div></div></td></tr><tr><td style="font-weight:bold;vertical-align:top;">SERVER_NAME</td><td style="vertical-align:top;">:</td><td><div>rogoberto.pythonanywhere.com</div></td></tr><tr><td style="font-weight:bold;vertical-align:top;">SERVER_PORT</td><td style="vertical-align:top;">:</td><td><div>443</div></td></tr><tr><td style="font-weight:bold;vertical-align:top;">SERVER_PROTOCOL</td><td style="vertical-align:top;">:</td><td><div>HTTP/1.1</div></td></tr><tr><td style="font-weight:bold;vertical-align:top;">app_folders</td><td style="vertical-align:top;">:</td><td><div>set([&#x27;/home/rogoberto/web2py/applications/welcome/&#x27;, &#x27;/home/rogoberto/web2py/applications/aluminum/&#x27;, &#x27;/home/rogoberto/web2py/applications/prodigy/&#x27;, &#x27;/home/rogoberto/web2py/applications/admin/&#x27;, &#x27;/home/rogoberto/web2py/applications/agrosystem/&#x27;, &#x27;/home/rogoberto/web2py/applications/localfs/&#x27;])</div></td></tr><tr><td style="font-weight:bold;vertical-align:top;">applications_parent</td><td style="vertical-align:top;">:</td><td><div>/home/rogoberto/web2py</div></td></tr><tr><td style="font-weight:bold;vertical-align:top;">content_length</td><td style="vertical-align:top;">:</td><td><div></div></td></tr><tr><td style="font-weight:bold;vertical-align:top;">content_type</td><td style="vertical-align:top;">:</td><td><div></div></td></tr><tr><td style="font-weight:bold;vertical-align:top;">db_sessions</td><td style="vertical-align:top;">:</td><td><div>set([])</div></td></tr><tr><td style="font-weight:bold;vertical-align:top;">debugging</td><td style="vertical-align:top;">:</td><td><div>True</div></td></tr><tr><td style="font-weight:bold;vertical-align:top;">document_root</td><td style="vertical-align:top;">:</td><td><div>/usr/local/openresty/nginx/html</div></td></tr><tr><td style="font-weight:bold;vertical-align:top;">gluon_parent</td><td style="vertical-align:top;">:</td><td><div>/home/rogoberto/web2py</div></td></tr><tr><td style="font-weight:bold;vertical-align:top;">http_accept</td><td style="vertical-align:top;">:</td><td><div>text/html,application/xhtml+xml,application/xml;q=0.9,image/webp,*/*;q=0.8</div></td></tr><tr><td style="font-weight:bold;vertical-align:top;">http_accept_encoding</td><td style="vertical-align:top;">:</td><td><div>gzip, deflate, br</div></td></tr><tr><td style="font-weight:bold;vertical-align:top;">http_accept_language</td><td style="vertical-align:top;">:</td><td><div>pt-BR,pt;q=0.8,en-US;q=0.5,en;q=0.3</div></td></tr><tr><td style="font-weight:bold;vertical-align:top;">http_cache_control</td><td style="vertical-align:top;">:</td><td><div>max-age=0</div></td></tr><tr><td style="font-weight:bold;vertical-align:top;">http_connection</td><td style="vertical-align:top;">:</td><td><div>close</div></td></tr><tr><td style="font-weight:bold;vertical-align:top;">http_cookie</td><td style="vertical-align:top;">:</td><td><div>_ga=GA1.3.89391603.1621978944; session_id_overcoming=191.212.144.51-6e30a602-ad2f-41a0-9b71-34a2b46366c3; _ga=GA1.3.89391603.1621978944; session_id_agrosystem=191.212.144.51-3dc5c406-642a-4277-ad66-fbbfa730d36c; session_id_aluminum=191.212.144.51-24616db9-0b73-4e6c-9979-71492a58f15d; _gid=GA1.3.1270904441.1625854926; session_id_admin=191.212.144.51-f1dcb516-3dce-45f3-9767-1f51495fd8e4; session_id_welcome=191.212.144.51-e612a197-4279-4f7d-952e-c313e96a3cc7</div></td></tr><tr><td style="font-weight:bold;vertical-align:top;">http_host</td><td style="vertical-align:top;">:</td><td><div>rogoberto.pythonanywhere.com</div></td></tr><tr><td style="font-weight:bold;vertical-align:top;">http_referer</td><td style="vertical-align:top;">:</td><td><div>https://rogoberto.pythonanywhere.com/aluminum/acs_vendedore/index/4</div></td></tr><tr><td style="font-weight:bold;vertical-align:top;">http_upgrade_insecure_requests</td><td style="vertical-align:top;">:</td><td><div>1</div></td></tr><tr><td style="font-weight:bold;vertical-align:top;">http_user_agent</td><td style="vertical-align:top;">:</td><td><div>Mozilla/5.0 (X11; Ubuntu; Linux x86_64; rv:89.0) Gecko/20100101 Firefox/89.0</div></td></tr><tr><td style="font-weight:bold;vertical-align:top;">http_x_forwarded_for</td><td style="vertical-align:top;">:</td><td><div>191.212.144.51</div></td></tr><tr><td style="font-weight:bold;vertical-align:top;">http_x_real_ip</td><td style="vertical-align:top;">:</td><td><div>191.212.144.51</div></td></tr><tr><td style="font-weight:bold;vertical-align:top;">https</td><td style="vertical-align:top;">:</td><td><div>on</div></td></tr><tr><td style="font-weight:bold;vertical-align:top;">is_jython</td><td style="vertical-align:top;">:</td><td><div>False</div></td></tr><tr><td style="font-weight:bold;vertical-align:top;">is_py2</td><td style="vertical-align:top;">:</td><td><div>True</div></td></tr><tr><td style="font-weight:bold;vertical-align:top;">is_pypy</td><td style="vertical-align:top;">:</td><td><div>False</div></td></tr><tr><td style="font-weight:bold;vertical-align:top;">is_source</td><td style="vertical-align:top;">:</td><td><div>True</div></td></tr><tr><td style="font-weight:bold;vertical-align:top;">local_hosts</td><td style="vertical-align:top;">:</td><td><div><table><tr><td><div>35.173.69.207</div></td></tr><tr><td><div>::ffff:127.0.0.1</div></td></tr><tr><td><div>::1</div></td></tr><tr><td><div>rogoberto.pythonanywhere.com</div></td></tr><tr><td><div>127.0.0.1</div></td></tr><tr><td><div>blue-liveweb5</div></td></tr><tr><td><div>localhost</div></td></tr></table></div></td></tr><tr><td style="font-weight:bold;vertical-align:top;">path_info</td><td style="vertical-align:top;">:</td><td><div>/aluminum/acs_vendedore/listar_projetos_vendedor/8</div></td></tr><tr><td style="font-weight:bold;vertical-align:top;">query_string</td><td style="vertical-align:top;">:</td><td><div></div></td></tr><tr><td style="font-weight:bold;vertical-align:top;">remote_addr</td><td style="vertical-align:top;">:</td><td><div>10.0.0.224</div></td></tr><tr><td style="font-weight:bold;vertical-align:top;">remote_port</td><td style="vertical-align:top;">:</td><td><div>35862</div></td></tr><tr><td style="font-weight:bold;vertical-align:top;">request_method</td><td style="vertical-align:top;">:</td><td><div>GET</div></td></tr><tr><td style="font-weight:bold;vertical-align:top;">request_uri</td><td style="vertical-align:top;">:</td><td><div>/aluminum/acs_vendedore/listar_projetos_vendedor/8</div></td></tr><tr><td style="font-weight:bold;vertical-align:top;">script_name</td><td style="vertical-align:top;">:</td><td><div></div></td></tr><tr><td style="font-weight:bold;vertical-align:top;">server_name</td><td style="vertical-align:top;">:</td><td><div>rogoberto.pythonanywhere.com</div></td></tr><tr><td style="font-weight:bold;vertical-align:top;">server_port</td><td style="vertical-align:top;">:</td><td><div>443</div></td></tr><tr><td style="font-weight:bold;vertical-align:top;">server_protocol</td><td style="vertical-align:top;">:</td><td><div>HTTP/1.1</div></td></tr><tr><td style="font-weight:bold;vertical-align:top;">uwsgi.node</td><td style="vertical-align:top;">:</td><td><div>blue-liveweb5</div></td></tr><tr><td style="font-weight:bold;vertical-align:top;">uwsgi.version</td><td style="vertical-align:top;">:</td><td><div>2.0.17.1</div></td></tr><tr><td style="font-weight:bold;vertical-align:top;">uwsgi_node</td><td style="vertical-align:top;">:</td><td><div>blue-liveweb5</div></td></tr><tr><td style="font-weight:bold;vertical-align:top;">uwsgi_version</td><td style="vertical-align:top;">:</td><td><div>2.0.17.1</div></td></tr><tr><td style="font-weight:bold;vertical-align:top;">web2py_original_uri</td><td style="vertical-align:top;">:</td><td><div>/aluminum/acs_vendedore/listar_projetos_vendedor/8</div></td></tr><tr><td style="font-weight:bold;vertical-align:top;">web2py_path</td><td style="vertical-align:top;">:</td><td><div>/home/rogoberto/web2py</div></td></tr><tr><td style="font-weight:bold;vertical-align:top;">web2py_version</td><td style="vertical-align:top;">:</td><td><div>2.17.1-stable+timestamp.2018.08.06.01.02.56</div></td></tr><tr><td style="font-weight:bold;vertical-align:top;">wsgi.errors</td><td style="vertical-align:top;">:</td><td><div>&lt;uwsgi_file__bin_user_wsgi_wrapper.ErrorLogFile object at 0x7f6f48fa5c10&gt;</div></td></tr><tr><td style="font-weight:bold;vertical-align:top;">wsgi.file_wrapper</td><td style="vertical-align:top;">:</td><td><div>&lt;built-in function uwsgi_sendfile&gt;</div></td></tr><tr><td style="font-weight:bold;vertical-align:top;">wsgi.input</td><td style="vertical-align:top;">:</td><td><div>&lt;uwsgi._Input object at 0x7f6f4a3aadb0&gt;</div></td></tr><tr><td style="font-weight:bold;vertical-align:top;">wsgi.multiprocess</td><td style="vertical-align:top;">:</td><td><div>True</div></td></tr><tr><td style="font-weight:bold;vertical-align:top;">wsgi.multithread</td><td style="vertical-align:top;">:</td><td><div>False</div></td></tr><tr><td style="font-weight:bold;vertical-align:top;">wsgi.run_once</td><td style="vertical-align:top;">:</td><td><div>False</div></td></tr><tr><td style="font-weight:bold;vertical-align:top;">wsgi.url_scheme</td><td style="vertical-align:top;">:</td><td><div>https</div></td></tr><tr><td style="font-weight:bold;vertical-align:top;">wsgi.version</td><td style="vertical-align:top;">:</td><td><div><table><tr><td><div>1</div></td></tr><tr><td><div>0</div></td></tr></table></div></td></tr><tr><td style="font-weight:bold;vertical-align:top;">wsgi_errors</td><td style="vertical-align:top;">:</td><td><div>&lt;uwsgi_file__bin_user_wsgi_wrapper.ErrorLogFile object at 0x7f6f48fa5c10&gt;</div></td></tr><tr><td style="font-weight:bold;vertical-align:top;">wsgi_file_wrapper</td><td style="vertical-align:top;">:</td><td><div>&lt;built-in function uwsgi_sendfile&gt;</div></td></tr><tr><td style="font-weight:bold;vertical-align:top;">wsgi_input</td><td style="vertical-align:top;">:</td><td><div>&lt;uwsgi._Input object at 0x7f6f4a3aadb0&gt;</div></td></tr><tr><td style="font-weight:bold;vertical-align:top;">wsgi_multiprocess</td><td style="vertical-align:top;">:</td><td><div>True</div></td></tr><tr><td style="font-weight:bold;vertical-align:top;">wsgi_multithread</td><td style="vertical-align:top;">:</td><td><div>False</div></td></tr><tr><td style="font-weight:bold;vertical-align:top;">wsgi_run_once</td><td style="vertical-align:top;">:</td><td><div>False</div></td></tr><tr><td style="font-weight:bold;vertical-align:top;">wsgi_url_scheme</td><td style="vertical-align:top;">:</td><td><div>https</div></td></tr><tr><td style="font-weight:bold;vertical-align:top;">wsgi_version</td><td style="vertical-align:top;">:</td><td><div><table><tr><td><div>1</div></td></tr><tr><td><div>0</div></td></tr></table></div></td></tr></table></div></td></tr><tr><td style="font-weight:bold;vertical-align:top;">extension</td><td style="vertical-align:top;">:</td><td><div>html</div></td></tr><tr><td style="font-weight:bold;vertical-align:top;">folder</td><td style="vertical-align:top;">:</td><td><div>/home/rogoberto/web2py/applications/aluminum/</div></td></tr><tr><td style="font-weight:bold;vertical-align:top;">function</td><td style="vertical-align:top;">:</td><td><div>listar_projetos_vendedor</div></td></tr><tr><td style="font-weight:bold;vertical-align:top;">global_settings</td><td style="vertical-align:top;">:</td><td><div><table><tr><td style="font-weight:bold;vertical-align:top;">app_folders</td><td style="vertical-align:top;">:</td><td><div>set([&#x27;/home/rogoberto/web2py/applications/welcome/&#x27;, &#x27;/home/rogoberto/web2py/applications/aluminum/&#x27;, &#x27;/home/rogoberto/web2py/applications/prodigy/&#x27;, &#x27;/home/rogoberto/web2py/applications/admin/&#x27;, &#x27;/home/rogoberto/web2py/applications/agrosystem/&#x27;, &#x27;/home/rogoberto/web2py/applications/localfs/&#x27;])</div></td></tr><tr><td style="font-weight:bold;vertical-align:top;">applications_parent</td><td style="vertical-align:top;">:</td><td><div>/home/rogoberto/web2py</div></td></tr><tr><td style="font-weight:bold;vertical-align:top;">db_sessions</td><td style="vertical-align:top;">:</td><td><div>set([])</div></td></tr><tr><td style="font-weight:bold;vertical-align:top;">debugging</td><td style="vertical-align:top;">:</td><td><div>True</div></td></tr><tr><td style="font-weight:bold;vertical-align:top;">gluon_parent</td><td style="vertical-align:top;">:</td><td><div>/home/rogoberto/web2py</div></td></tr><tr><td style="font-weight:bold;vertical-align:top;">is_jython</td><td style="vertical-align:top;">:</td><td><div>False</div></td></tr><tr><td style="font-weight:bold;vertical-align:top;">is_py2</td><td style="vertical-align:top;">:</td><td><div>True</div></td></tr><tr><td style="font-weight:bold;vertical-align:top;">is_pypy</td><td style="vertical-align:top;">:</td><td><div>False</div></td></tr><tr><td style="font-weight:bold;vertical-align:top;">is_source</td><td style="vertical-align:top;">:</td><td><div>True</div></td></tr><tr><td style="font-weight:bold;vertical-align:top;">local_hosts</td><td style="vertical-align:top;">:</td><td><div><table><tr><td><div>35.173.69.207</div></td></tr><tr><td><div>::ffff:127.0.0.1</div></td></tr><tr><td><div>::1</div></td></tr><tr><td><div>rogoberto.pythonanywhere.com</div></td></tr><tr><td><div>127.0.0.1</div></td></tr><tr><td><div>blue-liveweb5</div></td></tr><tr><td><div>localhost</div></td></tr></table></div></td></tr><tr><td style="font-weight:bold;vertical-align:top;">web2py_version</td><td style="vertical-align:top;">:</td><td><div>2.17.1-stable+timestamp.2018.08.06.01.02.56</div></td></tr></table></div></td></tr><tr><td style="font-weight:bold;vertical-align:top;">is_https</td><td style="vertical-align:top;">:</td><td><div>True</div></td></tr><tr><td style="font-weight:bold;vertical-align:top;">is_local</td><td style="vertical-align:top;">:</td><td><div>False</div></td></tr><tr><td style="font-weight:bold;vertical-align:top;">is_restful</td><td style="vertical-align:top;">:</td><td><div>False</div></td></tr><tr><td style="font-weight:bold;vertical-align:top;">is_scheduler</td><td style="vertical-align:top;">:</td><td><div>False</div></td></tr><tr><td style="font-weight:bold;vertical-align:top;">is_shell</td><td style="vertical-align:top;">:</td><td><div>False</div></td></tr><tr><td style="font-weight:bold;vertical-align:top;">method</td><td style="vertical-align:top;">:</td><td><div>GET</div></td></tr><tr><td style="font-weight:bold;vertical-align:top;">now</td><td style="vertical-align:top;">:</td><td><div>datetime.datetime(2021, 7, 10, 5, 36, 25, 547257)</div></td></tr><tr><td style="font-weight:bold;vertical-align:top;">url</td><td style="vertical-align:top;">:</td><td><div>/aluminum/acs_vendedore/listar_projetos_vendedor/8</div></td></tr><tr><td style="font-weight:bold;vertical-align:top;">utcnow</td><td style="vertical-align:top;">:</td><td><div>datetime.datetime(2021, 7, 10, 5, 36, 25, 547270)</div></td></tr><tr><td style="font-weight:bold;vertical-align:top;">wsgi</td><td style="vertical-align:top;">:</td><td><div>&lt;gluon.main.LazyWSGI object at 0x7f6f4801b3d0&gt;</div></td></tr></table></div>'
tRp60
sS'frames'
p61
(lp62
(dp63
S'file'
p64
S'/home/rogoberto/web2py/gluon/restricted.py'
p65
sS'dump'
p66
(dp67
S'environment'
p68
S"{'A': <class 'gluon.html.A'>, 'ANY_OF': <class 'gluon.validators.ANY_OF'>, 'ASSIGNJS': <function ASSIGNJS>, 'AppConfig': <function AppConfig>, 'Auth': <class 'gluon.tools.Auth'>, 'B': <class 'gluon.html.B'>, 'BEAUTIFY': <class 'gluon.html.BEAUTIFY'>, 'BODY': <class 'gluon.html.BODY'>, 'BR': <class 'gluon.html.BR'>, 'BUTTON': <class 'gluon.html.BUTTON'>, ...}"
p69
sS'ccode'
p70
S'<code object <module> at 0x7f6f40e29b30, file "/...vendedore/listar_projetos_vendedor.html", line 1>'
p71
ssS'lnum'
p72
I219
sS'lines'
p73
(dp74
I214
S'    if environment is None:'
p75
sI215
S'        environment = {}'
p76
sI216
S"    environment['__file__'] = layer"
p77
sI217
S"    environment['__name__'] = '__restricted__'"
p78
sI218
S'    try:'
p79
sI219
S'        exec(ccode, environment)'
p80
sI220
S'    except HTTP:'
p81
sI221
S'        raise'
p82
sI222
S'    except RestrictedError:'
p83
sI223
S'        # do not encapsulate (obfuscate) the original RestrictedError'
p84
ssS'call'
p85
S'(ccode=<code object <module> at 0x7f6f40e29b30, file "/...vendedore/listar_projetos_vendedor.html", line 1>, environment={\'A\': <class \'gluon.html.A\'>, \'ANY_OF\': <class \'gluon.validators.ANY_OF\'>, \'ASSIGNJS\': <function ASSIGNJS>, \'AppConfig\': <function AppConfig>, \'Auth\': <class \'gluon.tools.Auth\'>, \'B\': <class \'gluon.html.B\'>, \'BEAUTIFY\': <class \'gluon.html.BEAUTIFY\'>, \'BODY\': <class \'gluon.html.BODY\'>, \'BR\': <class \'gluon.html.BR\'>, \'BUTTON\': <class \'gluon.html.BUTTON\'>, ...}, layer=\'/home/rogoberto/web2py/applications/aluminum/views/acs_vendedore/listar_projetos_vendedor.html\', scode=r"response.write(\'<!DOCTYPE html>\\n<!--[if (gt IE ...nse.write(\'\\n  </body>\\n</html>\\n\', escape=False)")'
p86
sS'func'
p87
S'restricted'
p88
sa(dp89
g64
S'/home/rogoberto/web2py/applications/aluminum/views/acs_vendedore/listar_projetos_vendedor.html'
p90
sg66
(dp91
S'div'
p92
S'undefined'
p93
ssg72
I141
sg73
(dp94
I132
S'response.write(\'</h3>\\n          <p class="lead">Historico</p>\\n        </div>\\n      </div>\\n      <div class="row">\\n        <div class="col-md-2 col-6">\\n          <a class="btn btn-outline-danger btn-block my-1" href="\', escape=False)'
p95
sI133
S"response.write(URL('index',args=funcionario_empresa.empresa))"
p96
sI134
S'response.write(\'">\\n            <i class="fa fa-arrow-left fa-fw"></i>\\n            Voltar\\n          </a>\\n        </div>\\n        \', escape=False)'
p97
sI135
S'if False:'
p98
sI136
S'    response.write(\'\\n        <div class="col-md-2 col-6">\\n          <a class="btn btn-outline-primary btn-block my-1" href="#">\\n            <i class="fa fa-download fa-fw"></i>\\n            Cadastrar\\n          </a>\\n        </div>\\n        \', escape=False)'
p99
sI137
S'    pass'
p100
sI138
S'response.write(\'\\n        <div class="col-md-2  col-12"></div>\\n        <div class="col-md-6 col-12"></div>\\n      </div>\\n      <div class="row">\\n  \', escape=False)'
p101
sI139
S'for row in rows:'
p102
sI140
S"    response.write('\\n  ', escape=False)"
p103
sI141
S'    if a==3:'
p104
sI142
S"        response.write('\\n  ', escape=False)"
p105
sI143
S'        a=0'
p106
sI144
S'        response.write(\'\\n</div>\\n  <div style="break-after:page"></div>\\n<div class="row">\\n  <div class="col-md-12">\\n    <h4 class="">Rela\\xc3\\xa7\\xc3\\xa3o Individual </h4>\\n    <p>\\n      \', escape=False)'
p107
sI145
S'        response.write(projeto.descricao)'
p108
sI146
S'        response.write(\'\\n    </p>\\n  </div>\\n</div>\\n<div class="row">\\n  \', escape=False)'
p109
sI147
S'        pass'
p110
sI148
S"    response.write('\\n  ', escape=False)"
p111
sI149
S'    a+=1'
p112
sI150
S'    response.write(\'\\n        <div class="col-md-4 p-3">\\n          <h5 class="text-center">\\n            <a class="text-primary"  href="\', escape=False)'
p113
sI151
S"    response.write(URL('alterar_comissoes_vendedor', args=row.id))"
p114
ssg85
S'()'
p115
sg87
S'<module>'
p116
sasS'pyver'
p117
S'Python 2.7.12: /usr/local/bin/uwsgi (prefix: /usr)'
p118
sS'session'
p119
g59
(S's\xf0\t\x00\x00<div><table><tr><td style="font-weight:bold;vertical-align:top;">auth</td><td style="vertical-align:top;">:</td><td><div><table><tr><td style="font-weight:bold;vertical-align:top;">expiration</td><td style="vertical-align:top;">:</td><td><div>2592000</div></td></tr><tr><td style="font-weight:bold;vertical-align:top;">hmac_key</td><td style="vertical-align:top;">:</td><td><div>7d67ae42-9594-4166-9405-c2fef293e476</div></td></tr><tr><td style="font-weight:bold;vertical-align:top;">last_visit</td><td style="vertical-align:top;">:</td><td><div>datetime.datetime(2021, 7, 5, 5, 52, 35, 876989)</div></td></tr><tr><td style="font-weight:bold;vertical-align:top;">remember_me</td><td style="vertical-align:top;">:</td><td><div>True</div></td></tr><tr><td style="font-weight:bold;vertical-align:top;">user</td><td style="vertical-align:top;">:</td><td><div><table><tr><td style="font-weight:bold;vertical-align:top;">email</td><td style="vertical-align:top;">:</td><td><div>betin@gmail.com</div></td></tr><tr><td style="font-weight:bold;vertical-align:top;">first_name</td><td style="vertical-align:top;">:</td><td><div>Rogoberto</div></td></tr><tr><td style="font-weight:bold;vertical-align:top;">id</td><td style="vertical-align:top;">:</td><td><div>1L</div></td></tr><tr><td style="font-weight:bold;vertical-align:top;">last_name</td><td style="vertical-align:top;">:</td><td><div>Ribeiro</div></td></tr><tr><td style="font-weight:bold;vertical-align:top;">registration_id</td><td style="vertical-align:top;">:</td><td><div></div></td></tr><tr><td style="font-weight:bold;vertical-align:top;">registration_key</td><td style="vertical-align:top;">:</td><td><div></div></td></tr><tr><td style="font-weight:bold;vertical-align:top;">reset_password_key</td><td style="vertical-align:top;">:</td><td><div></div></td></tr></table></div></td></tr><tr><td style="font-weight:bold;vertical-align:top;">user_groups</td><td style="vertical-align:top;">:</td><td><div><table><tr><td style="font-weight:bold;vertical-align:top;">1</td><td style="vertical-align:top;">:</td><td><div>user_1</div></td></tr><tr><td style="font-weight:bold;vertical-align:top;">2</td><td style="vertical-align:top;">:</td><td><div>admin</div></td></tr><tr><td style="font-weight:bold;vertical-align:top;">3</td><td style="vertical-align:top;">:</td><td><div>wiki_editor</div></td></tr></table></div></td></tr></table></div></td></tr><tr><td style="font-weight:bold;vertical-align:top;">flash</td><td style="vertical-align:top;">:</td><td><div>None</div></td></tr></table></div>'
tRp120
sS'etype'
p121
S"<type 'exceptions.NameError'>"
p122
sS'date'
p123
S'Sat Jul 10 05:36:26 2021'
p124
sS'response'
p125
g59
(S's\xc3 \x00\x00<div><table><tr><td style="font-weight:bold;vertical-align:top;">body</td><td style="vertical-align:top;">:</td><td><div>&lt;cStringIO.StringO object at 0x7f6f40ceb2d0&gt;</div></td></tr><tr><td style="font-weight:bold;vertical-align:top;">cookies</td><td style="vertical-align:top;">:</td><td><div><table><tr><td style="font-weight:bold;vertical-align:top;">session_id_aluminum</td><td style="vertical-align:top;">:</td><td><div>191.212.144.51-24616db9-0b73-4e6c-9979-71492a58f15d<table><tr><td style="font-weight:bold;vertical-align:top;">comment</td><td style="vertical-align:top;">:</td><td><div></div></td></tr><tr><td style="font-weight:bold;vertical-align:top;">domain</td><td style="vertical-align:top;">:</td><td><div></div></td></tr><tr><td style="font-weight:bold;vertical-align:top;">expires</td><td style="vertical-align:top;">:</td><td><div></div></td></tr><tr><td style="font-weight:bold;vertical-align:top;">httponly</td><td style="vertical-align:top;">:</td><td><div></div></td></tr><tr><td style="font-weight:bold;vertical-align:top;">max-age</td><td style="vertical-align:top;">:</td><td><div></div></td></tr><tr><td style="font-weight:bold;vertical-align:top;">path</td><td style="vertical-align:top;">:</td><td><div>/</div></td></tr><tr><td style="font-weight:bold;vertical-align:top;">secure</td><td style="vertical-align:top;">:</td><td><div></div></td></tr><tr><td style="font-weight:bold;vertical-align:top;">version</td><td style="vertical-align:top;">:</td><td><div></div></td></tr></table></div></td></tr></table></div></td></tr><tr><td style="font-weight:bold;vertical-align:top;">delimiters</td><td style="vertical-align:top;">:</td><td><div><table><tr><td><div>{{</div></td></tr><tr><td><div>}}</div></td></tr></table></div></td></tr><tr><td style="font-weight:bold;vertical-align:top;">files</td><td style="vertical-align:top;">:</td><td><div><table><tr><td><div>/aluminum/static/js/jquery.js</div></td></tr><tr><td><div>/aluminum/static/css/calendar.css</div></td></tr><tr><td><div>/aluminum/static/js/calendar.js</div></td></tr><tr><td><div>/aluminum/static/js/web2py.js</div></td></tr></table></div></td></tr><tr><td style="font-weight:bold;vertical-align:top;">flash</td><td style="vertical-align:top;">:</td><td><div></div></td></tr><tr><td style="font-weight:bold;vertical-align:top;">form_label_separator</td><td style="vertical-align:top;">:</td><td><div></div></td></tr><tr><td style="font-weight:bold;vertical-align:top;">formstyle</td><td style="vertical-align:top;">:</td><td><div>bootstrap4_inline</div></td></tr><tr><td style="font-weight:bold;vertical-align:top;">generic_patterns</td><td style="vertical-align:top;">:</td><td><div><table></table></div></td></tr><tr><td style="font-weight:bold;vertical-align:top;">google_analytics_id</td><td style="vertical-align:top;">:</td><td><div>None</div></td></tr><tr><td style="font-weight:bold;vertical-align:top;">headers</td><td style="vertical-align:top;">:</td><td><div><table><tr><td style="font-weight:bold;vertical-align:top;">X-Powered-By</td><td style="vertical-align:top;">:</td><td><div>web2py</div></td></tr></table></div></td></tr><tr><td style="font-weight:bold;vertical-align:top;">menu</td><td style="vertical-align:top;">:</td><td><div><table><tr><td><div><table><tr><td><div>Principal</div></td></tr><tr><td><div>False</div></td></tr><tr><td><div>/aluminum</div></td></tr><tr><td><div><table></table></div></td></tr></table></div></td></tr><tr><td><div><table><tr><td><div>Empresa</div></td></tr><tr><td><div>False</div></td></tr><tr><td><div>/aluminum/acs_principal</div></td></tr><tr><td><div><table></table></div></td></tr></table></div></td></tr><tr><td><div><table><tr><td><div>Projetos</div></td></tr><tr><td><div>False</div></td></tr><tr><td><div>/aluminum/acs_principal/lista_projetos</div></td></tr><tr><td><div><table></table></div></td></tr></table></div></td></tr><tr><td><div><table><tr><td><div>Cobran\xc3\xa7as</div></td></tr><tr><td><div>False</div></td></tr><tr><td><div>/aluminum/acs_principal/lista_cobrancas</div></td></tr><tr><td><div><table></table></div></td></tr></table></div></td></tr><tr><td><div><table><tr><td><div>Usuarios</div></td></tr><tr><td><div>False</div></td></tr><tr><td><div>/aluminum/acs_principal/lista_logins</div></td></tr><tr><td><div><table></table></div></td></tr></table></div></td></tr></table></div></td></tr><tr><td style="font-weight:bold;vertical-align:top;">meta</td><td style="vertical-align:top;">:</td><td><div><table><tr><td style="font-weight:bold;vertical-align:top;">author</td><td style="vertical-align:top;">:</td><td><div>Your Name &lt;you@example.com&gt;</div></td></tr><tr><td style="font-weight:bold;vertical-align:top;">description</td><td style="vertical-align:top;">:</td><td><div>Controle suas venda e cobrancas.</div></td></tr><tr><td style="font-weight:bold;vertical-align:top;">generator</td><td style="vertical-align:top;">:</td><td><div>Web2py Web Framework</div></td></tr><tr><td style="font-weight:bold;vertical-align:top;">keywords</td><td style="vertical-align:top;">:</td><td><div><table><tr><td><div>web2py</div></td></tr><tr><td><div>python</div></td></tr><tr><td><div>framework</div></td></tr></table></div></td></tr></table></div></td></tr><tr><td style="font-weight:bold;vertical-align:top;">models_to_run</td><td style="vertical-align:top;">:</td><td><div><table><tr><td><div>^\\w+\\.py$</div></td></tr><tr><td><div>^acs_vendedore/\\w+\\.py$</div></td></tr><tr><td><div>^acs_vendedore/listar_projetos_vendedor/\\w+\\.py$</div></td></tr></table></div></td></tr><tr><td style="font-weight:bold;vertical-align:top;">postprocessing</td><td style="vertical-align:top;">:</td><td><div><table></table></div></td></tr><tr><td style="font-weight:bold;vertical-align:top;">session_client</td><td style="vertical-align:top;">:</td><td><div>191.212.144.51</div></td></tr><tr><td style="font-weight:bold;vertical-align:top;">session_cookie_compression_level</td><td style="vertical-align:top;">:</td><td><div>None</div></td></tr><tr><td style="font-weight:bold;vertical-align:top;">session_cookie_expires</td><td style="vertical-align:top;">:</td><td><div>2592000</div></td></tr><tr><td style="font-weight:bold;vertical-align:top;">session_data_name</td><td style="vertical-align:top;">:</td><td><div>session_data_aluminum</div></td></tr><tr><td style="font-weight:bold;vertical-align:top;">session_file</td><td style="vertical-align:top;">:</td><td><div>&lt;open file &#x27;/home/rogoberto/web2py/applications/aluminum/sessions/002/01b/191.212.144.51-24616db9-0b73-4e6c-9979-71492a58f15d&#x27;, mode &#x27;rb+&#x27; at 0x7f6f40a6cc90&gt;</div></td></tr><tr><td style="font-weight:bold;vertical-align:top;">session_filename</td><td style="vertical-align:top;">:</td><td><div>/home/rogoberto/web2py/applications/aluminum/sessions/191.212.144.51-24616db9-0b73-4e6c-9979-71492a58f15d</div></td></tr><tr><td style="font-weight:bold;vertical-align:top;">session_hash</td><td style="vertical-align:top;">:</td><td><div>d5e5622a8d531b3ff4c89e03082a914b</div></td></tr><tr><td style="font-weight:bold;vertical-align:top;">session_id</td><td style="vertical-align:top;">:</td><td><div>191.212.144.51-24616db9-0b73-4e6c-9979-71492a58f15d</div></td></tr><tr><td style="font-weight:bold;vertical-align:top;">session_id_name</td><td style="vertical-align:top;">:</td><td><div>session_id_aluminum</div></td></tr><tr><td style="font-weight:bold;vertical-align:top;">session_locked</td><td style="vertical-align:top;">:</td><td><div>True</div></td></tr><tr><td style="font-weight:bold;vertical-align:top;">session_masterapp</td><td style="vertical-align:top;">:</td><td><div>aluminum</div></td></tr><tr><td style="font-weight:bold;vertical-align:top;">session_new</td><td style="vertical-align:top;">:</td><td><div>False</div></td></tr><tr><td style="font-weight:bold;vertical-align:top;">session_storage_type</td><td style="vertical-align:top;">:</td><td><div>file</div></td></tr><tr><td style="font-weight:bold;vertical-align:top;">show_toolbar</td><td style="vertical-align:top;">:</td><td><div>False</div></td></tr><tr><td style="font-weight:bold;vertical-align:top;">status</td><td style="vertical-align:top;">:</td><td><div>200</div></td></tr><tr><td style="font-weight:bold;vertical-align:top;">view</td><td style="vertical-align:top;">:</td><td><div>acs_vendedore/listar_projetos_vendedor.html</div></td></tr></table></div>'
tRp126
sS'locals'
p127
(dp128
S'PY2'
p129
S'True'
p130
sS'OBJECT'
p131
S"<class 'gluon.html.OBJECT'>"
p132
sS'SQLDB'
p133
S"<class 'pydal.base.DAL'>"
p134
sg119
S"<Storage {'_formkey[item_carrada/2456]': ['ca524...461]': ['43e0a9d1-75e1-48ee-82d6-e13ec1ea7747']}>"
p135
sS'LINK'
p136
S"<class 'gluon.html.LINK'>"
p137
sS'limites'
p138
S'(0, 3)'
p139
sS'local_import'
p140
S'<function <lambda>>'
p141
sS'OPTGROUP'
p142
S"<class 'gluon.html.OPTGROUP'>"
p143
sS'__package__'
p144
S'None'
p145
sS'row'
p146
S'<Row {\'empresa\': 4L, \'total_devolvido\': 3670.0, ...do\': <Set ("boleto_atrasado"."vendedor" = 521)>}>'
p147
sS'PRE'
p148
S"<class 'gluon.html.PRE'>"
p149
sS'IS_INT_IN_RANGE'
p150
S"<class 'gluon.validators.IS_INT_IN_RANGE'>"
p151
sS'to_bytes'
p152
S'<function to_bytes>'
p153
sS'IS_LOWER'
p154
S"<class 'gluon.validators.IS_LOWER'>"
p155
sS'IS_STRONG'
p156
S"<class 'gluon.validators.IS_STRONG'>"
p157
sS'cache'
p158
S'<gluon.cache.Cache object>'
p159
sS'IS_IN_DB'
p160
S"<class 'gluon.validators.IS_IN_DB'>"
p161
sS'TAG'
p162
S'<gluon.html.__TAG__ object>'
p163
sS'SQLField'
p164
S"<class 'pydal.objects.Field'>"
p165
sS'mail'
p166
S'<gluon.tools.Mail object>'
p167
sS'BODY'
p168
S"<class 'gluon.html.BODY'>"
p169
sS'IS_DATE_IN_RANGE'
p170
S"<class 'gluon.validators.IS_DATE_IN_RANGE'>"
p171
sS'IFRAME'
p172
S"<class 'gluon.html.IFRAME'>"
p173
sS'URL'
p174
S'<function URL>'
p175
sS'__file__'
p176
S"'/home/rogoberto/web2py/applications/aluminum/views/acs_vendedore/listar_projetos_vendedor.html'"
p177
sS'db'
p178
S'<DAL uri="sqlite://storage.sqlite">'
p179
sS'auth'
p180
S'<gluon.tools.Auth object>'
p181
sS'P'
S"<class 'gluon.html.P'>"
p182
sS'TFOOT'
p183
S"<class 'gluon.html.TFOOT'>"
p184
sS'iteritems'
p185
S'<function <lambda>>'
p186
sS'XHTML'
p187
S"<class 'gluon.html.XHTML'>"
p188
sS'datetime'
p189
S"<module 'datetime' (built-in)>"
p190
sS'ON'
p191
g130
sS'OL'
p192
S"<class 'gluon.html.OL'>"
p193
sS'TEXTAREA'
p194
S"<class 'gluon.html.TEXTAREA'>"
p195
sS'MENU'
p196
S"<class 'gluon.html.MENU'>"
p197
sS'IS_IMAGE'
p198
S"<class 'gluon.validators.IS_IMAGE'>"
p199
sS'EM'
p200
S"<class 'gluon.html.EM'>"
p201
sS'CODE'
p202
S"<class 'gluon.html.CODE'>"
p203
sS'HTTP'
p204
S"<class 'gluon.http.HTTP'>"
p205
sS'BR'
p206
S"<class 'gluon.html.BR'>"
p207
sS'HR'
p208
S"<class 'gluon.html.HR'>"
p209
sS'IS_DATETIME'
p210
S"<class 'gluon.validators.IS_DATETIME'>"
p211
sS'reduce'
p212
S'<built-in function reduce>'
p213
sS'STYLE'
p214
S"<class 'gluon.html.STYLE'>"
p215
sS'LABEL'
p216
S"<class 'gluon.html.LABEL'>"
p217
sS'CLEANUP'
p218
S"<class 'gluon.validators.CLEANUP'>"
p219
sS'SELECT'
p220
S"<class 'gluon.html.SELECT'>"
p221
sS'paginas'
p222
S'1'
sS'total'
p223
S'2'
sS'CENTER'
p224
S"<class 'gluon.html.CENTER'>"
p225
sS'Auth'
p226
S"<class 'gluon.tools.Auth'>"
p227
sS'urlopen'
p228
S'<function urlopen>'
p229
sS'HTML'
p230
S"<class 'gluon.html.HTML'>"
p231
sS'SQLFORM'
p232
S"<class 'gluon.sqlhtml.SQLFORM'>"
p233
sS'_item'
p234
S"(<lazyT 'Usuarios'>, False, '/aluminum/acs_principal/lista_logins', [])"
p235
sS'LOAD'
p236
S'<function LOAD>'
p237
sS'redirect'
p238
S'<function redirect>'
p239
sS'FIELDSET'
p240
S"<class 'gluon.html.FIELDSET'>"
p241
sS'IS_EQUAL_TO'
p242
S"<class 'gluon.validators.IS_EQUAL_TO'>"
p243
sS'embed64'
p244
S'<function embed64>'
p245
sS'IS_LIST_OF'
p246
S"<class 'gluon.validators.IS_LIST_OF'>"
p247
sS'INPUT'
p248
S"<class 'gluon.html.INPUT'>"
p249
sS'EMBED'
p250
S"<class 'gluon.html.EMBED'>"
p251
sS'configuration'
p252
S"{'host': {'names': 'localhost:*, 127.0.0.1:*, *:...': 'sqlite://storage.sqlite', 'pool_size': '10'}}"
p253
sS'H2'
p254
S"<class 'gluon.html.H2'>"
p255
sS'H3'
p256
S"<class 'gluon.html.H3'>"
p257
sS'AppConfig'
p258
S'<function AppConfig>'
p259
sS'H1'
p260
S"<class 'gluon.html.H1'>"
p261
sS'H6'
p262
S"<class 'gluon.html.H6'>"
p263
sS'H4'
p264
S"<class 'gluon.html.H4'>"
p265
sS'H5'
p266
S"<class 'gluon.html.H5'>"
p267
sS'UL'
p268
S"<class 'gluon.html.UL'>"
p269
sS'IS_UPPER'
p270
S"<class 'gluon.validators.IS_UPPER'>"
p271
sS'xmlescape'
p272
S'<function xmlescape>'
p273
sS'IS_TIME'
p274
S"<class 'gluon.validators.IS_TIME'>"
p275
sS'OPTION'
p276
S"<class 'gluon.html.OPTION'>"
p277
sS'TITLE'
p278
S"<class 'gluon.html.TITLE'>"
p279
sS'CRYPT'
p280
S"<class 'gluon.validators.CRYPT'>"
p281
sS'IS_EMPTY_OR'
p282
S"<class 'gluon.validators.IS_EMPTY_OR'>"
p283
sS'MARKMIN'
p284
S"<class 'gluon.html.MARKMIN'>"
p285
sS'__name__'
p286
S"'__restricted__'"
p287
sS'STRONG'
p288
S"<class 'gluon.html.STRONG'>"
p289
sS'COL'
p290
S"<class 'gluon.html.COL'>"
p291
sS'__builtins__'
p292
S"{'ArithmeticError': <type 'exceptions.ArithmeticError'>, 'AssertionError': <type 'exceptions.AssertionError'>, 'AttributeError': <type 'exceptions.AttributeError'>, 'BaseException': <type 'exceptions.BaseException'>, 'BufferError': <type 'exceptions.BufferError'>, 'BytesWarning': <type 'exceptions.BytesWarning'>, 'DeprecationWarning': <type 'exceptions.DeprecationWarning'>, 'EOFError': <type 'exceptions.EOFError'>, 'Ellipsis': Ellipsis, 'EnvironmentError': <type 'exceptions.EnvironmentError'>, ...}"
p293
sS'rows'
p294
S'<Rows (2)>'
p295
sS'SCRIPT'
p296
S"<class 'gluon.html.SCRIPT'>"
p297
sS'TABLE'
p298
S"<class 'gluon.html.TABLE'>"
p299
sS'funcionario_empresa'
p300
S'<Row {\'empresa\': 4L, \'funcionario_vendedor\': <Se..._empresa" = 8)>, \'apelido\': None, \'debito\': 0.0}>'
p301
sS'IS_IPV4'
p302
S"<class 'gluon.validators.IS_IPV4'>"
p303
sS'IS_LENGTH'
p304
S"<class 'gluon.validators.IS_LENGTH'>"
p305
sS'IS_IPV6'
p306
S"<class 'gluon.validators.IS_IPV6'>"
p307
sS'XML'
p308
S"<class 'gluon.html.XML'>"
p309
sS'B'
S"<class 'gluon.html.B'>"
p310
sS'IMG'
p311
S"<class 'gluon.html.IMG'>"
p312
sS'SQLTABLE'
p313
S"<class 'gluon.sqlhtml.SQLTABLE'>"
p314
sS'IS_MATCH'
p315
S"<class 'gluon.validators.IS_MATCH'>"
p316
sS'IS_ALPHANUMERIC'
p317
S"<class 'gluon.validators.IS_ALPHANUMERIC'>"
p318
sS'paginacao'
p319
S'3'
sS'SPAN'
p320
S"<class 'gluon.html.SPAN'>"
p321
sS'IS_JSON'
p322
S"<class 'gluon.validators.IS_JSON'>"
p323
sS'IS_IPADDRESS'
p324
S"<class 'gluon.validators.IS_IPADDRESS'>"
p325
sS'IS_SLUG'
p326
S"<class 'gluon.validators.IS_SLUG'>"
p327
sS'BEAUTIFY'
p328
S"<class 'gluon.html.BEAUTIFY'>"
p329
sS'META'
p330
S"<class 'gluon.html.META'>"
p331
sS'BUTTON'
p332
S"<class 'gluon.html.BUTTON'>"
p333
sS'IS_DATE'
p334
S"<class 'gluon.validators.IS_DATE'>"
p335
sS'IS_EMAIL'
p336
S"<class 'gluon.validators.IS_EMAIL'>"
p337
sS'IS_NOT_EMPTY'
p338
S"<class 'gluon.validators.IS_NOT_EMPTY'>"
p339
sS'xrange'
p340
S"<type 'xrange'>"
p341
sS'TBODY'
p342
S"<class 'gluon.html.TBODY'>"
p343
sS'CAT'
p344
S"<class 'gluon.html.CAT'>"
p345
sS'Field'
p346
S"<class 'pydal.objects.Field'>"
p347
sS'IS_LIST_OF_EMAILS'
p348
S"<class 'gluon.validators.IS_LIST_OF_EMAILS'>"
p349
sS'pagina'
p350
S'1'
sg58
S"<Storage {'_vars': None, 'function': 'listar_pro...web2py/applications/aluminum/', 'method': 'GET'}>"
p351
sS'DIV'
p352
S"<class 'gluon.html.DIV'>"
p353
sS'LEGEND'
p354
S"<class 'gluon.html.LEGEND'>"
p355
sS'to_native'
p356
S'<function to_native>'
p357
sS'COLGROUP'
p358
S"<class 'gluon.html.COLGROUP'>"
p359
sS'DAL'
p360
S"<class 'pydal.base.DAL'>"
p361
sS'ASSIGNJS'
p362
S'<function ASSIGNJS>'
p363
sS'TR'
p364
S"<class 'gluon.html.TR'>"
p365
sS'LI'
p366
S"<class 'gluon.html.LI'>"
p367
sS'TH'
p368
S"<class 'gluon.html.TH'>"
p369
sS'TD'
p370
S"<class 'gluon.html.TD'>"
p371
sS'IS_URL'
p372
S"<class 'gluon.validators.IS_URL'>"
p373
sS'A'
S"<class 'gluon.html.A'>"
p374
sS'HEAD'
p375
S"<class 'gluon.html.HEAD'>"
p376
sS'IS_DATETIME_IN_RANGE'
p377
S"<class 'gluon.validators.IS_DATETIME_IN_RANGE'>"
p378
sS'FORM'
p379
S"<class 'gluon.html.FORM'>"
p380
sS'I'
S"<class 'gluon.html.I'>"
p381
sS'Request'
p382
S'<class urllib2.Request>'
p383
sS'IS_NOT_IN_DB'
p384
S"<class 'gluon.validators.IS_NOT_IN_DB'>"
p385
sg125
S"<Storage {'body': <cStringIO.StringO object at 0...: 'acs_vendedore/listar_projetos_vendedor.html'}>"
p386
sS'THEAD'
p387
S"<class 'gluon.html.THEAD'>"
p388
sS'ANY_OF'
p389
S"<class 'gluon.validators.ANY_OF'>"
p390
sS'IS_NULL_OR'
p391
S"<class 'gluon.validators.IS_EMPTY_OR'>"
p392
sS'IS_FLOAT_IN_RANGE'
p393
S"<class 'gluon.validators.IS_FLOAT_IN_RANGE'>"
p394
sS'IS_EXPR'
p395
S"<class 'gluon.validators.IS_EXPR'>"
p396
sS'T'
S'<gluon.languages.translator object>'
p397
sS'IS_IN_SET'
p398
S"<class 'gluon.validators.IS_IN_SET'>"
p399
sS'IS_UPLOAD_FILENAME'
p400
S"<class 'gluon.validators.IS_UPLOAD_FILENAME'>"
p401
sS'TT'
p402
S"<class 'gluon.html.TT'>"
p403
sS'IS_DECIMAL_IN_RANGE'
p404
S"<class 'gluon.validators.IS_DECIMAL_IN_RANGE'>"
p405
sssS'traceback'
p406
S'Traceback (most recent call last):\n  File "/home/rogoberto/web2py/gluon/restricted.py", line 219, in restricted\n    exec(ccode, environment)\n  File "/home/rogoberto/web2py/applications/aluminum/views/acs_vendedore/listar_projetos_vendedor.html", line 141, in <module>\n    <div>\nNameError: name \'a\' is not defined\n'
p407
s.