(dp1
S'output'
p2
S"<type 'exceptions.NameError'> name 'tvalor_devolvido' is not defined"
p3
sS'layer'
p4
S'/home/rogoberto/web2py/applications/aluminum/views/acs_projeto/acesso_vendas_particao.html'
p5
sS'code'
p6
S'response.write(\'<!DOCTYPE html>\\n<!--[if (gt IE 9)|!(IE)]><!--> <html class="no-js" lang="\', escape=False)\nresponse.write(T.accepted_language or \'en\')\nresponse.write(\'"> <!--<![endif]-->\\n  <head>\\n    <meta charset="utf-8">\\n    <!-- www.phpied.com/conditional-comments-block-downloads/ -->\\n    <!-- Always force latest IE rendering engine\\n         (even in intranet) & Chrome Frame\\n         Remove this if you use the .htaccess -->\\n    <meta http-equiv="X-UA-Compatible" content="IE=edge\', escape=False)\nresponse.write(not request.is_local and \',chrome=1\' or \'\')\nresponse.write(\'">\\n    <!--  Mobile Viewport Fix\\n          j.mp/mobileviewport & davidbcalhoun.com/2010/viewport-metatag\\n          device-width: Occupy full width of the screen in its current orientation\\n          initial-scale = 1.0 retains dimensions instead of zooming out if page height > device height\\n          user-scalable = yes allows the user to zoom in -->\\n    <meta name="viewport" content="width=device-width, initial-scale=1.0">\\n       <title>Aluminum System</title>\\n    <!-- http://dev.w3.org/html5/markup/meta.name.html -->\\n    <meta name="application-name" content="sistema credi\\xc3\\xa1rio panela">\\n    <!-- Speaking of Google, don\\\'t forget to set your site up:\\n         http://google.com/webmasters -->\\n    <meta name="google-site-verification" content="peneleiro Juazeiro, panela credi\\xc3\\xa1rio, sistema panela">\\n    <!-- include stylesheets -->\\n    <link rel="stylesheet" href="https://cdnjs.cloudflare.com/ajax/libs/font-awesome/4.7.0/css/font-awesome.min.css"/>\\n    <link rel="stylesheet" href="\', escape=False)\nresponse.write(URL(\'static\',\'css/bootstrap.min.css\'))\nresponse.write(\'"/>\\n    <link rel="stylesheet" href="\', escape=False)\nresponse.write(URL(\'static\',\'css/web2py-bootstrap4.css\'))\nresponse.write(\'"/>\\n    <link rel="shortcut icon" href="\', escape=False)\nresponse.write(URL(\'static\',\'images/ico.ico\'))\nresponse.write(\'" type="image/x-icon">\\n    <link rel="apple-touch-icon" href="\', escape=False)\nresponse.write(URL(\'static\',\'images/ico.png\'))\nresponse.write(\'">\\n    <!-- All JavaScript at the bottom, except for Modernizr which enables\\n         HTML5 elements & feature detects -->\\n    <script src="\', escape=False)\nresponse.write(URL(\'static\',\'js/modernizr-2.8.3.min.js\'))\nresponse.write(\'"></script>\\n    <!-- Favicons -->\\n    \', escape=False)\nresponse.write(\'<script type="text/javascript"><!--\\n    // These variables are used by the web2py_ajax_init function in web2py_ajax.js (which is loaded below).\\n    \', escape=False)\nresponse.write(ASSIGNJS(\nw2p_ajax_confirm_message = T(\'Are you sure you want to delete this object?\'),\nw2p_ajax_disable_with_message = T(\'Working...\'),\nw2p_ajax_date_format = T(\'%Y-%m-%d\'),\nw2p_ajax_datetime_format = T(\'%Y-%m-%d %H:%M:%S\'),\najax_error_500 = T.M(\'An error occured, please [[reload %s]] the page\') % URL(args=request.args, vars=request.get_vars)\n))\nresponse.write(\'\\n    //--></script>\\n\', escape=False)\nresponse.files.insert(0,URL(\'static\',\'js/jquery.js\'))\nresponse.files.insert(1,URL(\'static\',\'css/calendar.css\'))\nresponse.files.insert(2,URL(\'static\',\'js/calendar.js\'))\nresponse.files.insert(3,URL(\'static\',\'js/web2py.js\'))\nresponse.include_meta()\nresponse.include_files()\nresponse.write(\'\\n\', escape=False)\nresponse.write(\' <!-- this includes jquery.js, calendar.js/.css and web2py.js -->\\n      \', escape=False)\nif auth.user:\n    response.write(\'\\n    \', escape=False)\n    if auth.user.first_name=="Rogoberto":\n        response.write(\'\\n   \\n    \', escape=False)\n    elif auth.user.first_name=="Meme":\n        response.write(\'\\n    <link rel="stylesheet" href="https://bootswatch.com/4/materia/bootstrap.css"> \\n    \', escape=False)\n        pass\n    response.write(\'\\n    \', escape=False)\n    pass\nresponse.write(\'\\n    \', escape=False)\nresponse.write(\'\\n  \\n  </head>\\n  <body>\\n      \\n        <style  type="text/css">\\n    @media print{\\n        .btn{\\n             display: none;\\n        }\\n        #noprint { display:none; } \\n      a:link{font:15px "verdana"; color:#8B4513; text-decoration:none;}\\n\\na:hover{font:20px "verdana"; color:black; text-decoration:underline;}\\n    }\\n      </style>\\n    <div class="w2p_flash alert alert-dismissable">\', escape=False)\nresponse.write(response.flash or \'\')\nresponse.write(\'</div>\\n    <!-- Navbar ======================================= -->\\n    <nav class="navbar navbar-light navbar-expand-md bg-faded justify-content-center">\\n        <a class="navbar-brand" href="https://rogoberto.pythonanywhere.com/aluminum/#acesso">Aluminum</a>\\n       <button class="navbar-toggler" type="button" data-toggle="collapse" data-target="#navbarNavDropdown" aria-controls="navbarNavDropdown" aria-expanded="false" aria-label="Toggle navigation">\\n         <span class="navbar-toggler-icon"></span>\\n       </button>\\n       <div class="navbar-collapse collapse w-100" id="navbarNavDropdown">\\n         <ul class="navbar-nav w-100 justify-content-center">\\n          \', escape=False)\nfor _item in response.menu or []:\n    response.write(\'\\n          \', escape=False)\n    if (not len(_item)>4) or not _item[3]:\n        response.write(\'\\n          <li class="nav-item \', escape=False)\n        if _item[1]:\n            response.write(\'active\', escape=False)\n            pass\n        response.write(\'">\\n            <a class="nav-link" href="\', escape=False)\n        response.write(_item[2])\n        response.write(\'">\', escape=False)\n        response.write(_item[0])\n        response.write(\'</a>\\n          </li>\\n          \', escape=False)\n    else:\n        response.write(\'\\n          <li class="nav-item dropdown">\\n            <a class="nav-link dropdown-toggle" href="\', escape=False)\n        response.write(_item[2])\n        response.write(\'" data-toggle="dropdown" aria-haspopup="true" aria-expanded="false">\', escape=False)\n        response.write(_item[0])\n        response.write(\'</a>\\n            <div class="dropdown-menu">\\n              \', escape=False)\n        for _subitem in _item[3]:\n            response.write(\'\\n              <a class="dropdown-item" href="\', escape=False)\n            response.write(_subitem[2])\n            response.write(\'">\', escape=False)\n            response.write(_subitem[0])\n            response.write(\'</a>\\n              \', escape=False)\n            pass\n        response.write(\'\\n            </div>\\n          </li>\\n          \', escape=False)\n        pass\n    response.write(\'\\n          \', escape=False)\n    pass\nresponse.write(\'\\n        </ul>\\n\\n        \', escape=False)\nif \'auth\' in globals():\n    response.write(\'\\n        <ul class="nav navbar-nav ml-auto w-100 justify-content-end">\\n          <li class="nav-item dropdown">\\n            <a class="nav-link dropdown-toggle" href="#" data-toggle="dropdown" aria-haspopup="true" aria-expanded="false">\\n              \', escape=False)\n    if auth.user:\n        response.write(auth.user.first_name)\n    else:\n        response.write(\'LOGIN\', escape=False)\n        pass\n    response.write(\'\\n            </a>\\n            <div class="dropdown-menu dropdown-menu-right">\\n              \', escape=False)\n    if auth.user:\n        response.write(\'\\n              <a class="dropdown-item" href="\', escape=False)\n        response.write(URL(\'default\',\'user/profile\'))\n        response.write(\'">\', escape=False)\n        response.write(T(\'Profile\'))\n        response.write(\'</a>\\n              \', escape=False)\n        if \'change_password\' not in auth.settings.actions_disabled:\n            response.write(\'\\n              <a class="dropdown-item" href="\', escape=False)\n            response.write(URL(\'default\',\'user/change_password\'))\n            response.write(\'">\', escape=False)\n            response.write(T(\'Change Password\'))\n            response.write(\'</a>\\n              \', escape=False)\n            pass\n        response.write(\'\\n              <a class="dropdown-item" href="\', escape=False)\n        response.write(URL(\'default\',\'user/logout\'))\n        response.write(\'">\', escape=False)\n        response.write(T(\'Logout\'))\n        response.write(\'</a>\\n              \', escape=False)\n    else:\n        response.write(\'\\n              <a class="dropdown-item" href="\', escape=False)\n        response.write(URL(\'default\',\'user/login\'))\n        response.write(\'">\', escape=False)\n        response.write(T(\'Login\'))\n        response.write(\'</a>\\n              \', escape=False)\n        if \'register\' not in auth.settings.actions_disabled:\n            response.write(\'\\n              <a class="dropdown-item" href="\', escape=False)\n            response.write(URL(\'default\',\'user/register\'))\n            response.write(\'">\', escape=False)\n            response.write(T(\'Sign up\'))\n            response.write(\'</a>\\n              \', escape=False)\n            pass\n        response.write(\'\\n              \', escape=False)\n        if \'retrieve_password\' not in auth.settings.actions_disabled:\n            response.write(\'\\n              <a class="dropdown-item" href="\', escape=False)\n            response.write(URL(\'default\',\'user/retrieve_password\'))\n            response.write(\'">\', escape=False)\n            response.write(T(\'Lost Password\'))\n            response.write(\'</a>\\n              \', escape=False)\n            pass\n        response.write(\'\\n              \', escape=False)\n        pass\n    response.write(\'\\n            </div>\\n          </li>\\n        </ul>\\n        \', escape=False)\n    pass\nresponse.write(\'\\n      </div>\\n    </nav>\\n\\n    <!-- Masthead ===================================== -->\\n    \', escape=False)\nresponse.write(\'\\n<header class="header container-fluid d-none d-print-block">\\n     <div class="row">\\n        <div class="col-md-12">\\n          <div class="copyright pull-left">Aluminum System</div>\\n          <div id="poweredBy" class="pull-right">\\n            Gest\\xc3\\xa3o de vendas e cobran\\xc3\\xa7as artefatos de aluminio\\n            \\n          </div>\\n        </div>\\n      </div>\\n</header>\\n    \', escape=False)\nresponse.write(\'\\n    <!-- Main ========================================= -->\\n    <!-- Begin page content -->\\n    <div class="container-fluid main-container py-5">\\n      \', escape=False)\nresponse.write(\'\\n\', escape=False)\nvenda=0\nresponse.write(\'\\n\', escape=False)\nfichas_venda=0\nresponse.write(\'\\n\', escape=False)\ncaderno=0\nresponse.write(\'\\n\', escape=False)\nentrada=0\nresponse.write(\'\\n\', escape=False)\nfichas_devolvidas=0\nresponse.write(\'\\n\', escape=False)\nvalor_devolvido=0\nresponse.write(\'\\n\', escape=False)\na=0\nresponse.write(\'\\n\', escape=False)\ntotaldespesa=0\nresponse.write(\'\\n\', escape=False)\ntvenda=0\nresponse.write(\'\\n\', escape=False)\ntfichas_venda=0\nresponse.write(\'\\n\', escape=False)\ntcaderno=0\nresponse.write(\'\\n\', escape=False)\ntentrada=0\nresponse.write(\'\\n\', escape=False)\ntfichas_devolvidas=0\nresponse.write(\'\\n\', escape=False)\nprimiradata=0\nultimadata=0\nresponse.write(\'\\n<div class="py-5">\\n    <div class="container">\\n      <div class="row">\\n        <div class="col-md-12">\\n          <h5 class="">Lista de Vendas da Rota ( \', escape=False)\nresponse.write(sub_venda.primeira_cidade)\nresponse.write(\' )</h5>\\n        </div>\\n      </div>\\n      <div class="row">\\n        <div class="col-md-12">\\n          <a class="btn btn-link" href="\', escape=False)\nresponse.write(URL(\'particoes\',args=sub_venda.projeto))\nresponse.write(\'" style="color:#3b5998"><i class="fa fa-fw fa-1x py-1 fa-arrow-left"></i> Voltar</a>\\n            <a class="btn btn-link" href="\', escape=False)\nresponse.write(URL(\'alterar_dados_rota\',args=sub_venda.id))\nresponse.write(\'" style="color:#3b5998"><i class="fa fa-fw fa-1x py-1 fa-arrow-left"></i> Alterar dados da Rota</a>\\n        </div>\\n      </div>\\n      <div class="row">\\n        <div class="col-md-12">\\n          <div class="table-responsive">\\n            <table class="table table-striped table-borderless">\\n              <thead>\\n                <tr>\\n                  <th scope="col" >#</th>\\n                  <th scope="col" >Data</th>\\n                  <th scope="col" class="text-center">Venda</th>\\n                  <th scope="col" class="text-center">Fichas</th>\\n                  <th scope="col" class="text-center">Caderno</th>\\n                  <th scope="col" class="text-center">Entrada</th>\\n                  <th scope="col" class="text-center">Despesa</th>\\n                  <th scope="col" class="text-center">Acumulado</th>\\n                </tr>\\n              </thead>\\n              <tbody>\\n                \', escape=False)\ndata=request.now\nresponse.write(\'\\n            \', escape=False)\nif len(rows)>0:\n    response.write(\'\\n                \', escape=False)\n    data=rows.last().data_venda\n    response.write(\'\\n\', escape=False)\n    primiradata==rows.last().data_venda\n    response.write(\'\\n\', escape=False)\n    ultimadata==rows.first().data_venda\n    response.write(\'\\n            \', escape=False)\n    pass\nresponse.write(\'\\n            \', escape=False)\nfor row in rows:\n    response.write(\'\\n            <tr>\\n                \', escape=False)\n    if row.data_venda==data:\n        response.write(\'\\n                    \', escape=False)\n        venda+=row.venda_praso-row.valor_devolvido\n        response.write(\'\\n                    \', escape=False)\n        fichas_venda+=row.quant_fichas-row.quant_fichas_devolvidas\n        response.write(\'\\n                    \', escape=False)\n        caderno+=row.vale_caderno\n        response.write(\'\\n                    \', escape=False)\n        entrada+=row.entradas_venda\n        response.write(\'\\n                    \', escape=False)\n        fichas_devolvidas+=row.quant_fichas_devolvidas\n        response.write(\'\\n                    \', escape=False)\n        valor_devolvido+=row.valor_devolvido\n        response.write(\'\\n                    \', escape=False)\n        data=row.data_venda\n        response.write(\'\\n                \', escape=False)\n    else:\n        response.write(\'\\n                    \', escape=False)\n        if venda!=0:\n            response.write(\'\\n                        \', escape=False)\n            a+=1\n            response.write(\'\\n                        <th>\', escape=False)\n            response.write(a)\n            response.write(\'</th>\\n                        <td>\', escape=False)\n            response.write(data.strftime(\'%d/%m/%Y\'))\n            response.write(\'</td>\\n                        <td >R$ \', escape=False)\n            response.write("{:,.2f}".format(round(venda,2)).replace(",","#").replace(".",",").replace("#","."))\n            response.write(\'</td>\\n                        <td >\', escape=False)\n            response.write(fichas_venda)\n            response.write(\'</td>\\n                        <td >R$ \', escape=False)\n            response.write("{:,.2f}".format(round(caderno,2)).replace(",","#").replace(".",",").replace("#","."))\n            response.write(\'</td>\\n                        <td>R$ \', escape=False)\n            response.write("{:,.2f}".format(round(entrada,2)).replace(",","#").replace(".",",").replace("#","."))\n            response.write(\'</td>\\n              \', escape=False)\n            totaldesp=0\n            response.write(\'  \\n              \', escape=False)\n            for row1 in rowsdesp:\n                response.write(\'\\n              \', escape=False)\n                if (a==1)and(row1.data_inicio==data):\n                    response.write(\'\\n              \', escape=False)\n                    totaldesp+=row1.valor\n                    response.write(\'\\n              \', escape=False)\n                elif (row1.data_inicio==data):\n                    response.write(\'\\n              \', escape=False)\n                    totaldesp+=row1.valor\n                    response.write(\'\\n              \', escape=False)\n                    pass\n                response.write(\'\\n              \', escape=False)\n                pass\n            response.write(\'\\n              <td class="text-danger">R$ \', escape=False)\n            response.write("{:,.2f}".format(round(totaldesp,2)).replace(",","#").replace(".",",").replace("#","."))\n            response.write(\'</td>\\n\', escape=False)\n            totaldespesa+=totaldesp\n            response.write(\'\\n              <th class="text-danger">R$ \', escape=False)\n            response.write("{:,.2f}".format(round(totaldespesa,2)).replace(",","#").replace(".",",").replace("#","."))\n            response.write(\'</th>\\n              <th>R$ \', escape=False)\n            response.write("{:,.2f}".format(round(tvenda,2)).replace(",","#").replace(".",",").replace("#","."))\n            response.write(\'</th>\\n                <th >\', escape=False)\n            response.write(tfichas_venda)\n            response.write(\'</th>\\n                    \', escape=False)\n            pass\n        response.write(\'\\n                    \', escape=False)\n        data=row.data_venda\n        response.write(\'\\n                    \', escape=False)\n        venda=row.venda_praso-row.valor_devolvido\n        response.write(\'\\n                    \', escape=False)\n        fichas_venda=row.quant_fichas-row.quant_fichas_devolvidas\n        response.write(\'\\n                    \', escape=False)\n        caderno=row.vale_caderno\n        response.write(\'\\n                    \', escape=False)\n        entrada=row.entradas_venda\n        response.write(\'\\n                    \', escape=False)\n        fichas_devolvidas=row.quant_fichas_devolvidas\n        response.write(\'\\n                    \', escape=False)\n        valor_devolvido=row.valor_devolvido\n        response.write(\'\\n                \', escape=False)\n        pass\n    response.write(\'\\n                \', escape=False)\n    tvenda+=row.venda_praso-row.valor_devolvido\n    response.write(\'\\n                \', escape=False)\n    tfichas_venda+=row.quant_fichas-row.quant_fichas_devolvidas\n    response.write(\'\\n                \', escape=False)\n    tcaderno+=row.vale_caderno\n    response.write(\'\\n                \', escape=False)\n    tentrada+=row.entradas_venda\n    response.write(\'\\n                \', escape=False)\n    tfichas_devolvidas+=row.quant_fichas_devolvidas\n    response.write(\'\\n                \', escape=False)\n    tvalor_devolvido+=row.valor_devolvido\n    response.write(\'\\n            </tr>\\n            \', escape=False)\n    pass\nresponse.write(\'\\n            \', escape=False)\nif  len(rows)>1:\n    response.write(\'\\n            <tr>\\n                \', escape=False)\n    a+=1\n    response.write(\'\\n                <th>\', escape=False)\n    response.write(a)\n    response.write(\'</th>\\n                        <td>\', escape=False)\n    response.write(data.strftime(\'%d/%m/%Y\'))\n    response.write(\'</td>\\n                <td>R$ \', escape=False)\n    response.write("{:,.2f}".format(round(venda,2)).replace(",","#").replace(".",",").replace("#","."))\n    response.write(\'</td>\\n                <td>\', escape=False)\n    response.write(fichas_venda)\n    response.write(\'</td>\\n                <td >R$ \', escape=False)\n    response.write("{:,.2f}".format(round(caderno,2)).replace(",","#").replace(".",",").replace("#","."))\n    response.write(\'</td>\\n                <td>R$ \', escape=False)\n    response.write("{:,.2f}".format(round(entrada,2)).replace(",","#").replace(".",",").replace("#","."))\n    response.write(\'</td>\\n               \', escape=False)\n    totaldesp=0\n    response.write(\'  \\n              \', escape=False)\n    for row1 in rowsdesp:\n        response.write(\'\\n              \', escape=False)\n        if row1.data_inicio==data:\n            response.write(\'\\n              \', escape=False)\n            totaldesp+=row1.valor\n            response.write(\'\\n              \', escape=False)\n            pass\n        response.write(\'\\n              \', escape=False)\n        pass\n    response.write(\'\\n              <td class="text-danger">R$ \', escape=False)\n    response.write("{:,.2f}".format(round(totaldesp,2)).replace(",","#").replace(".",",").replace("#","."))\n    response.write(\'</td>\\n\', escape=False)\n    totaldespesa+=totaldesp\n    response.write(\'\\n              <th  class="text-danger">R$ \', escape=False)\n    response.write("{:,.2f}".format(round(totaldespesa,2)).replace(",","#").replace(".",",").replace("#","."))\n    response.write(\'</th>\\n                <th >R$ \', escape=False)\n    response.write("{:,.2f}".format(round(tvenda,2)).replace(",","#").replace(".",",").replace("#","."))\n    response.write(\'</th>\\n                <th>\', escape=False)\n    response.write(tfichas_venda)\n    response.write(\'</th>\\n            </tr>\\n            \', escape=False)\n    pass\nresponse.write(\'\\n            <tr>\\n                <th>#</th>\\n                <th></th>\\n                <th>R$ \', escape=False)\nresponse.write("{:,.2f}".format(round(tvenda,2)).replace(",","#").replace(".",",").replace("#","."))\nresponse.write(\'</th>\\n                <th>\', escape=False)\nresponse.write(tfichas_venda)\nresponse.write(\'</th>\\n                <th>R$ \', escape=False)\nresponse.write("{:,.2f}".format(round(tcaderno,2)).replace(",","#").replace(".",",").replace("#","."))\nresponse.write(\'</th>\\n                <th>R$ \', escape=False)\nresponse.write("{:,.2f}".format(round(tentrada,2)).replace(",","#").replace(".",",").replace("#","."))\nresponse.write(\'</th>\\n                <th>R$ \', escape=False)\nresponse.write("{:,.2f}".format(round(totaldespesa,2)).replace(",","#").replace(".",",").replace("#","."))\nresponse.write(\'</th>\\n            </tr>\\n              </tbody>\\n            </table>\\n          </div>\\n        </div>\\n      </div>\\n    </div>\\n  </div>\\n\\nPrimeira data - \', escape=False)\nresponse.write(primiradata)\nresponse.write(\'<br>\\nUltima data - \', escape=False)\nresponse.write(ultimadata)\nresponse.write(\'\\n<hr>\\n\\ndespesa venda - \', escape=False)\nresponse.write(totaldespesa)\nresponse.write(\' <br> despesa total - \', escape=False)\nresponse.write(projeto.total_despesa_venda)\nresponse.write(\' <br> despesa subida descida -  \', escape=False)\nresponse.write(projeto.total_despesa_venda-totaldespesa)\nresponse.write(\'\\n\', escape=False)\nresponse.write(\'\\n      \', escape=False)\nresponse.write(response.toolbar() if response.show_toolbar else \'\')\nresponse.write(\'\\n    </div>\\n    \', escape=False)\nresponse.write(\' <!-- this is default footer -->\\n    <footer id="noprint" class="footer container-fluid ">\\n      <div class="row">\\n        <div class="col-md-12">\\n          <div class="copyright pull-left">\', escape=False)\nresponse.write(T(\'Copyright\'))\nresponse.write(\' &#169; \', escape=False)\nresponse.write(request.now.year)\nresponse.write(\'</div>\\n          <div id="poweredBy" class="pull-right">\\n              Suporte <a href="https://api.whatsapp.com/send?phone=5588981126816">(88)98112-6816</a>\\n            </div>\\n        </div>\\n      </div>\\n    </footer>\\n <footer class="footer container-fluid d-none d-print-block">\\n      <div class="row">\\n        <div class="col-md-12">\\n          <div class="copyright pull-left">Suporte - (88)98112-6816</div>\\n          <div id="poweredBy" class="pull-right">\\n             \', escape=False)\nif auth.user:\n    response.write(auth.user.first_name)\n    response.write(\' \', escape=False)\n    response.write(auth.user.last_name)\nelse:\n    response.write(\'Aluminum System\', escape=False)\n    pass\nresponse.write(\'\\n          </div>\\n        </div>\\n      </div>\\n    </footer>\\n    \', escape=False)\nresponse.write(\'\\n    <!-- The javascript =============================== -->\\n    <script src="\', escape=False)\nresponse.write(URL(\'static\',\'js/bootstrap.bundle.min.js\'))\nresponse.write(\'"></script>\\n    <script src="\', escape=False)\nresponse.write(URL(\'static\',\'js/web2py-bootstrap4.js\'))\nresponse.write(\'"></script>\\n    \', escape=False)\nresponse.write(\'\\n    \', escape=False)\nif response.google_analytics_id:\n    response.write(\'\\n    <!-- Analytics ==================================== -->\\n    <script src="\', escape=False)\n    response.write(URL(\'static\',\'js/analytics.min.js\'))\n    response.write(\'"></script>\\n    <script type="text/javascript">\\n      analytics.initialize({\\n      \\\'Google Analytics\\\':{trackingId:\\\'\', escape=False)\n    response.write(response.google_analytics_id)\n    response.write("\'}\\n      });\\n    </script>\\n    ", escape=False)\n    pass\nresponse.write(\'\\n  </body>\\n</html>\\n\', escape=False)'
p7
sS'snapshot'
p8
(dp9
S'exception'
p10
(dp11
S'__getslice__'
p12
S"<method-wrapper '__getslice__' of exceptions.NameError object>"
p13
sS'__str__'
p14
S"<method-wrapper '__str__' of exceptions.NameError object>"
p15
sS'__reduce__'
p16
S'<built-in method __reduce__ of exceptions.NameError object>'
p17
sS'__dict__'
p18
S'{}'
p19
sS'message'
p20
S'"name \'tvalor_devolvido\' is not defined"'
p21
sS'__sizeof__'
p22
S'<built-in method __sizeof__ of exceptions.NameError object>'
p23
sS'__init__'
p24
S"<method-wrapper '__init__' of exceptions.NameError object>"
p25
sS'__setattr__'
p26
S"<method-wrapper '__setattr__' of exceptions.NameError object>"
p27
sS'__reduce_ex__'
p28
S'<built-in method __reduce_ex__ of exceptions.NameError object>'
p29
sS'__new__'
p30
S'<built-in method __new__ of type object>'
p31
sS'__format__'
p32
S'<built-in method __format__ of exceptions.NameError object>'
p33
sS'__class__'
p34
S"<type 'exceptions.NameError'>"
p35
sS'__doc__'
p36
S"'Name not found globally.'"
p37
sS'__getitem__'
p38
S"<method-wrapper '__getitem__' of exceptions.NameError object>"
p39
sS'__setstate__'
p40
S'<built-in method __setstate__ of exceptions.NameError object>'
p41
sS'__getattribute__'
p42
S"<method-wrapper '__getattribute__' of exceptions.NameError object>"
p43
sS'args'
p44
S'("name \'tvalor_devolvido\' is not defined",)'
p45
sS'__subclasshook__'
p46
S'<built-in method __subclasshook__ of type object>'
p47
sS'__unicode__'
p48
S'<built-in method __unicode__ of exceptions.NameError object>'
p49
sS'__delattr__'
p50
S"<method-wrapper '__delattr__' of exceptions.NameError object>"
p51
sS'__repr__'
p52
S"<method-wrapper '__repr__' of exceptions.NameError object>"
p53
sS'__hash__'
p54
S"<method-wrapper '__hash__' of exceptions.NameError object>"
p55
ssS'evalue'
p56
S"name 'tvalor_devolvido' is not defined"
p57
sS'request'
p58
cgluon.html
XML_unpickle
p59
(S's\x0fa\x00\x00<div><table><tr><td style="font-weight:bold;vertical-align:top;">ajax</td><td style="vertical-align:top;">:</td><td><div>False</div></td></tr><tr><td style="font-weight:bold;vertical-align:top;">application</td><td style="vertical-align:top;">:</td><td><div>aluminum</div></td></tr><tr><td style="font-weight:bold;vertical-align:top;">args</td><td style="vertical-align:top;">:</td><td><div><table><tr><td><div>164</div></td></tr></table></div></td></tr><tr><td style="font-weight:bold;vertical-align:top;">cid</td><td style="vertical-align:top;">:</td><td><div>None</div></td></tr><tr><td style="font-weight:bold;vertical-align:top;">client</td><td style="vertical-align:top;">:</td><td><div>191.212.144.51</div></td></tr><tr><td style="font-weight:bold;vertical-align:top;">controller</td><td style="vertical-align:top;">:</td><td><div>acs_projeto</div></td></tr><tr><td style="font-weight:bold;vertical-align:top;">cookies</td><td style="vertical-align:top;">:</td><td><div><table><tr><td style="font-weight:bold;vertical-align:top;">session_id_admin</td><td style="vertical-align:top;">:</td><td><div>191.212.144.51-89306c97-4cff-41b6-bd89-c0043af5e275<table><tr><td style="font-weight:bold;vertical-align:top;">comment</td><td style="vertical-align:top;">:</td><td><div></div></td></tr><tr><td style="font-weight:bold;vertical-align:top;">domain</td><td style="vertical-align:top;">:</td><td><div></div></td></tr><tr><td style="font-weight:bold;vertical-align:top;">expires</td><td style="vertical-align:top;">:</td><td><div></div></td></tr><tr><td style="font-weight:bold;vertical-align:top;">httponly</td><td style="vertical-align:top;">:</td><td><div></div></td></tr><tr><td style="font-weight:bold;vertical-align:top;">max-age</td><td style="vertical-align:top;">:</td><td><div></div></td></tr><tr><td style="font-weight:bold;vertical-align:top;">path</td><td style="vertical-align:top;">:</td><td><div></div></td></tr><tr><td style="font-weight:bold;vertical-align:top;">secure</td><td style="vertical-align:top;">:</td><td><div></div></td></tr><tr><td style="font-weight:bold;vertical-align:top;">version</td><td style="vertical-align:top;">:</td><td><div></div></td></tr></table></div></td></tr><tr><td style="font-weight:bold;vertical-align:top;">session_id_agrosystem</td><td style="vertical-align:top;">:</td><td><div>191.212.144.51-8ced64fd-a925-45f4-8070-42491f2683a8<table><tr><td style="font-weight:bold;vertical-align:top;">comment</td><td style="vertical-align:top;">:</td><td><div></div></td></tr><tr><td style="font-weight:bold;vertical-align:top;">domain</td><td style="vertical-align:top;">:</td><td><div></div></td></tr><tr><td style="font-weight:bold;vertical-align:top;">expires</td><td style="vertical-align:top;">:</td><td><div></div></td></tr><tr><td style="font-weight:bold;vertical-align:top;">httponly</td><td style="vertical-align:top;">:</td><td><div></div></td></tr><tr><td style="font-weight:bold;vertical-align:top;">max-age</td><td style="vertical-align:top;">:</td><td><div></div></td></tr><tr><td style="font-weight:bold;vertical-align:top;">path</td><td style="vertical-align:top;">:</td><td><div></div></td></tr><tr><td style="font-weight:bold;vertical-align:top;">secure</td><td style="vertical-align:top;">:</td><td><div></div></td></tr><tr><td style="font-weight:bold;vertical-align:top;">version</td><td style="vertical-align:top;">:</td><td><div></div></td></tr></table></div></td></tr><tr><td style="font-weight:bold;vertical-align:top;">session_id_aluminum</td><td style="vertical-align:top;">:</td><td><div>191.212.144.51-7520250b-9bb8-4ebb-9c48-c310ac7c0a8f<table><tr><td style="font-weight:bold;vertical-align:top;">comment</td><td style="vertical-align:top;">:</td><td><div></div></td></tr><tr><td style="font-weight:bold;vertical-align:top;">domain</td><td style="vertical-align:top;">:</td><td><div></div></td></tr><tr><td style="font-weight:bold;vertical-align:top;">expires</td><td style="vertical-align:top;">:</td><td><div></div></td></tr><tr><td style="font-weight:bold;vertical-align:top;">httponly</td><td style="vertical-align:top;">:</td><td><div></div></td></tr><tr><td style="font-weight:bold;vertical-align:top;">max-age</td><td style="vertical-align:top;">:</td><td><div></div></td></tr><tr><td style="font-weight:bold;vertical-align:top;">path</td><td style="vertical-align:top;">:</td><td><div></div></td></tr><tr><td style="font-weight:bold;vertical-align:top;">secure</td><td style="vertical-align:top;">:</td><td><div></div></td></tr><tr><td style="font-weight:bold;vertical-align:top;">version</td><td style="vertical-align:top;">:</td><td><div></div></td></tr></table></div></td></tr><tr><td style="font-weight:bold;vertical-align:top;">session_id_model_five</td><td style="vertical-align:top;">:</td><td><div>191.212.144.51-9aaebbb2-26b7-4625-9e48-efcafb5ba751<table><tr><td style="font-weight:bold;vertical-align:top;">comment</td><td style="vertical-align:top;">:</td><td><div></div></td></tr><tr><td style="font-weight:bold;vertical-align:top;">domain</td><td style="vertical-align:top;">:</td><td><div></div></td></tr><tr><td style="font-weight:bold;vertical-align:top;">expires</td><td style="vertical-align:top;">:</td><td><div></div></td></tr><tr><td style="font-weight:bold;vertical-align:top;">httponly</td><td style="vertical-align:top;">:</td><td><div></div></td></tr><tr><td style="font-weight:bold;vertical-align:top;">max-age</td><td style="vertical-align:top;">:</td><td><div></div></td></tr><tr><td style="font-weight:bold;vertical-align:top;">path</td><td style="vertical-align:top;">:</td><td><div></div></td></tr><tr><td style="font-weight:bold;vertical-align:top;">secure</td><td style="vertical-align:top;">:</td><td><div></div></td></tr><tr><td style="font-weight:bold;vertical-align:top;">version</td><td style="vertical-align:top;">:</td><td><div></div></td></tr></table></div></td></tr></table></div></td></tr><tr><td style="font-weight:bold;vertical-align:top;">env</td><td style="vertical-align:top;">:</td><td><div><table><tr><td style="font-weight:bold;vertical-align:top;">CONTENT_LENGTH</td><td style="vertical-align:top;">:</td><td><div></div></td></tr><tr><td style="font-weight:bold;vertical-align:top;">CONTENT_TYPE</td><td style="vertical-align:top;">:</td><td><div></div></td></tr><tr><td style="font-weight:bold;vertical-align:top;">DOCUMENT_ROOT</td><td style="vertical-align:top;">:</td><td><div>/usr/local/openresty/nginx/html</div></td></tr><tr><td style="font-weight:bold;vertical-align:top;">HTTPS</td><td style="vertical-align:top;">:</td><td><div>on</div></td></tr><tr><td style="font-weight:bold;vertical-align:top;">HTTP_ACCEPT</td><td style="vertical-align:top;">:</td><td><div>text/html,application/xhtml+xml,application/xml;q=0.9,image/webp,*/*;q=0.8</div></td></tr><tr><td style="font-weight:bold;vertical-align:top;">HTTP_ACCEPT_ENCODING</td><td style="vertical-align:top;">:</td><td><div>gzip, deflate, br</div></td></tr><tr><td style="font-weight:bold;vertical-align:top;">HTTP_ACCEPT_LANGUAGE</td><td style="vertical-align:top;">:</td><td><div>pt-BR,pt;q=0.8,en-US;q=0.5,en;q=0.3</div></td></tr><tr><td style="font-weight:bold;vertical-align:top;">HTTP_CACHE_CONTROL</td><td style="vertical-align:top;">:</td><td><div>max-age=0</div></td></tr><tr><td style="font-weight:bold;vertical-align:top;">HTTP_CONNECTION</td><td style="vertical-align:top;">:</td><td><div>close</div></td></tr><tr><td style="font-weight:bold;vertical-align:top;">HTTP_COOKIE</td><td style="vertical-align:top;">:</td><td><div>_ga=GA1.2.561187005.1613966433; _gid=GA1.2.365350940.1618122963; session_id_agrosystem=191.212.144.51-8ced64fd-a925-45f4-8070-42491f2683a8; session_id_aluminum=191.212.144.51-7520250b-9bb8-4ebb-9c48-c310ac7c0a8f; session_id_model_five=191.212.144.51-9aaebbb2-26b7-4625-9e48-efcafb5ba751; session_id_admin=191.212.144.51-89306c97-4cff-41b6-bd89-c0043af5e275</div></td></tr><tr><td style="font-weight:bold;vertical-align:top;">HTTP_HOST</td><td style="vertical-align:top;">:</td><td><div>rogoberto.pythonanywhere.com</div></td></tr><tr><td style="font-weight:bold;vertical-align:top;">HTTP_REFERER</td><td style="vertical-align:top;">:</td><td><div>https://rogoberto.pythonanywhere.com/aluminum/acs_projeto/particoes/110</div></td></tr><tr><td style="font-weight:bold;vertical-align:top;">HTTP_UPGRADE_INSECURE_REQUESTS</td><td style="vertical-align:top;">:</td><td><div>1</div></td></tr><tr><td style="font-weight:bold;vertical-align:top;">HTTP_USER_AGENT</td><td style="vertical-align:top;">:</td><td><div>Mozilla/5.0 (X11; Ubuntu; Linux x86_64; rv:87.0) Gecko/20100101 Firefox/87.0</div></td></tr><tr><td style="font-weight:bold;vertical-align:top;">HTTP_X_FORWARDED_FOR</td><td style="vertical-align:top;">:</td><td><div>191.212.144.51</div></td></tr><tr><td style="font-weight:bold;vertical-align:top;">HTTP_X_REAL_IP</td><td style="vertical-align:top;">:</td><td><div>191.212.144.51</div></td></tr><tr><td style="font-weight:bold;vertical-align:top;">PATH_INFO</td><td style="vertical-align:top;">:</td><td><div>/aluminum/acs_projeto/acesso_vendas_particao/164</div></td></tr><tr><td style="font-weight:bold;vertical-align:top;">QUERY_STRING</td><td style="vertical-align:top;">:</td><td><div></div></td></tr><tr><td style="font-weight:bold;vertical-align:top;">REMOTE_ADDR</td><td style="vertical-align:top;">:</td><td><div>10.0.0.93</div></td></tr><tr><td style="font-weight:bold;vertical-align:top;">REMOTE_PORT</td><td style="vertical-align:top;">:</td><td><div>42280</div></td></tr><tr><td style="font-weight:bold;vertical-align:top;">REQUEST_METHOD</td><td style="vertical-align:top;">:</td><td><div>GET</div></td></tr><tr><td style="font-weight:bold;vertical-align:top;">REQUEST_URI</td><td style="vertical-align:top;">:</td><td><div>/aluminum/acs_projeto/acesso_vendas_particao/164</div></td></tr><tr><td style="font-weight:bold;vertical-align:top;">SCRIPT_NAME</td><td style="vertical-align:top;">:</td><td><div></div></td></tr><tr><td style="font-weight:bold;vertical-align:top;">SERVER_NAME</td><td style="vertical-align:top;">:</td><td><div>rogoberto.pythonanywhere.com</div></td></tr><tr><td style="font-weight:bold;vertical-align:top;">SERVER_PORT</td><td style="vertical-align:top;">:</td><td><div>443</div></td></tr><tr><td style="font-weight:bold;vertical-align:top;">SERVER_PROTOCOL</td><td style="vertical-align:top;">:</td><td><div>HTTP/1.1</div></td></tr><tr><td style="font-weight:bold;vertical-align:top;">app_folders</td><td style="vertical-align:top;">:</td><td><div>set([&#x27;/home/rogoberto/web2py/applications/prodigy/&#x27;, &#x27;/home/rogoberto/web2py/applications/aluminum/&#x27;, &#x27;/home/rogoberto/web2py/applications/agrosystem/&#x27;, &#x27;/home/rogoberto/web2py/applications/admin/&#x27;])</div></td></tr><tr><td style="font-weight:bold;vertical-align:top;">applications_parent</td><td style="vertical-align:top;">:</td><td><div>/home/rogoberto/web2py</div></td></tr><tr><td style="font-weight:bold;vertical-align:top;">content_length</td><td style="vertical-align:top;">:</td><td><div></div></td></tr><tr><td style="font-weight:bold;vertical-align:top;">content_type</td><td style="vertical-align:top;">:</td><td><div></div></td></tr><tr><td style="font-weight:bold;vertical-align:top;">db_sessions</td><td style="vertical-align:top;">:</td><td><div>set([])</div></td></tr><tr><td style="font-weight:bold;vertical-align:top;">debugging</td><td style="vertical-align:top;">:</td><td><div>True</div></td></tr><tr><td style="font-weight:bold;vertical-align:top;">document_root</td><td style="vertical-align:top;">:</td><td><div>/usr/local/openresty/nginx/html</div></td></tr><tr><td style="font-weight:bold;vertical-align:top;">gluon_parent</td><td style="vertical-align:top;">:</td><td><div>/home/rogoberto/web2py</div></td></tr><tr><td style="font-weight:bold;vertical-align:top;">http_accept</td><td style="vertical-align:top;">:</td><td><div>text/html,application/xhtml+xml,application/xml;q=0.9,image/webp,*/*;q=0.8</div></td></tr><tr><td style="font-weight:bold;vertical-align:top;">http_accept_encoding</td><td style="vertical-align:top;">:</td><td><div>gzip, deflate, br</div></td></tr><tr><td style="font-weight:bold;vertical-align:top;">http_accept_language</td><td style="vertical-align:top;">:</td><td><div>pt-BR,pt;q=0.8,en-US;q=0.5,en;q=0.3</div></td></tr><tr><td style="font-weight:bold;vertical-align:top;">http_cache_control</td><td style="vertical-align:top;">:</td><td><div>max-age=0</div></td></tr><tr><td style="font-weight:bold;vertical-align:top;">http_connection</td><td style="vertical-align:top;">:</td><td><div>close</div></td></tr><tr><td style="font-weight:bold;vertical-align:top;">http_cookie</td><td style="vertical-align:top;">:</td><td><div>_ga=GA1.2.561187005.1613966433; _gid=GA1.2.365350940.1618122963; session_id_agrosystem=191.212.144.51-8ced64fd-a925-45f4-8070-42491f2683a8; session_id_aluminum=191.212.144.51-7520250b-9bb8-4ebb-9c48-c310ac7c0a8f; session_id_model_five=191.212.144.51-9aaebbb2-26b7-4625-9e48-efcafb5ba751; session_id_admin=191.212.144.51-89306c97-4cff-41b6-bd89-c0043af5e275</div></td></tr><tr><td style="font-weight:bold;vertical-align:top;">http_host</td><td style="vertical-align:top;">:</td><td><div>rogoberto.pythonanywhere.com</div></td></tr><tr><td style="font-weight:bold;vertical-align:top;">http_referer</td><td style="vertical-align:top;">:</td><td><div>https://rogoberto.pythonanywhere.com/aluminum/acs_projeto/particoes/110</div></td></tr><tr><td style="font-weight:bold;vertical-align:top;">http_upgrade_insecure_requests</td><td style="vertical-align:top;">:</td><td><div>1</div></td></tr><tr><td style="font-weight:bold;vertical-align:top;">http_user_agent</td><td style="vertical-align:top;">:</td><td><div>Mozilla/5.0 (X11; Ubuntu; Linux x86_64; rv:87.0) Gecko/20100101 Firefox/87.0</div></td></tr><tr><td style="font-weight:bold;vertical-align:top;">http_x_forwarded_for</td><td style="vertical-align:top;">:</td><td><div>191.212.144.51</div></td></tr><tr><td style="font-weight:bold;vertical-align:top;">http_x_real_ip</td><td style="vertical-align:top;">:</td><td><div>191.212.144.51</div></td></tr><tr><td style="font-weight:bold;vertical-align:top;">https</td><td style="vertical-align:top;">:</td><td><div>on</div></td></tr><tr><td style="font-weight:bold;vertical-align:top;">is_jython</td><td style="vertical-align:top;">:</td><td><div>False</div></td></tr><tr><td style="font-weight:bold;vertical-align:top;">is_py2</td><td style="vertical-align:top;">:</td><td><div>True</div></td></tr><tr><td style="font-weight:bold;vertical-align:top;">is_pypy</td><td style="vertical-align:top;">:</td><td><div>False</div></td></tr><tr><td style="font-weight:bold;vertical-align:top;">is_source</td><td style="vertical-align:top;">:</td><td><div>True</div></td></tr><tr><td style="font-weight:bold;vertical-align:top;">local_hosts</td><td style="vertical-align:top;">:</td><td><div><table><tr><td><div>35.173.69.207</div></td></tr><tr><td><div>::ffff:127.0.0.1</div></td></tr><tr><td><div>::1</div></td></tr><tr><td><div>rogoberto.pythonanywhere.com</div></td></tr><tr><td><div>green-liveweb4</div></td></tr><tr><td><div>127.0.0.1</div></td></tr><tr><td><div>localhost</div></td></tr></table></div></td></tr><tr><td style="font-weight:bold;vertical-align:top;">path_info</td><td style="vertical-align:top;">:</td><td><div>/aluminum/acs_projeto/acesso_vendas_particao/164</div></td></tr><tr><td style="font-weight:bold;vertical-align:top;">query_string</td><td style="vertical-align:top;">:</td><td><div></div></td></tr><tr><td style="font-weight:bold;vertical-align:top;">remote_addr</td><td style="vertical-align:top;">:</td><td><div>10.0.0.93</div></td></tr><tr><td style="font-weight:bold;vertical-align:top;">remote_port</td><td style="vertical-align:top;">:</td><td><div>42280</div></td></tr><tr><td style="font-weight:bold;vertical-align:top;">request_method</td><td style="vertical-align:top;">:</td><td><div>GET</div></td></tr><tr><td style="font-weight:bold;vertical-align:top;">request_uri</td><td style="vertical-align:top;">:</td><td><div>/aluminum/acs_projeto/acesso_vendas_particao/164</div></td></tr><tr><td style="font-weight:bold;vertical-align:top;">script_name</td><td style="vertical-align:top;">:</td><td><div></div></td></tr><tr><td style="font-weight:bold;vertical-align:top;">server_name</td><td style="vertical-align:top;">:</td><td><div>rogoberto.pythonanywhere.com</div></td></tr><tr><td style="font-weight:bold;vertical-align:top;">server_port</td><td style="vertical-align:top;">:</td><td><div>443</div></td></tr><tr><td style="font-weight:bold;vertical-align:top;">server_protocol</td><td style="vertical-align:top;">:</td><td><div>HTTP/1.1</div></td></tr><tr><td style="font-weight:bold;vertical-align:top;">uwsgi.node</td><td style="vertical-align:top;">:</td><td><div>green-liveweb4</div></td></tr><tr><td style="font-weight:bold;vertical-align:top;">uwsgi.version</td><td style="vertical-align:top;">:</td><td><div>2.0.17.1</div></td></tr><tr><td style="font-weight:bold;vertical-align:top;">uwsgi_node</td><td style="vertical-align:top;">:</td><td><div>green-liveweb4</div></td></tr><tr><td style="font-weight:bold;vertical-align:top;">uwsgi_version</td><td style="vertical-align:top;">:</td><td><div>2.0.17.1</div></td></tr><tr><td style="font-weight:bold;vertical-align:top;">web2py_path</td><td style="vertical-align:top;">:</td><td><div>/home/rogoberto/web2py</div></td></tr><tr><td style="font-weight:bold;vertical-align:top;">web2py_version</td><td style="vertical-align:top;">:</td><td><div>2.17.1-stable+timestamp.2018.08.06.01.02.56</div></td></tr><tr><td style="font-weight:bold;vertical-align:top;">wsgi.errors</td><td style="vertical-align:top;">:</td><td><div>&lt;uwsgi_file__bin_user_wsgi_wrapper.ErrorLogFile object at 0x7fd0885ddcd0&gt;</div></td></tr><tr><td style="font-weight:bold;vertical-align:top;">wsgi.file_wrapper</td><td style="vertical-align:top;">:</td><td><div>&lt;built-in function uwsgi_sendfile&gt;</div></td></tr><tr><td style="font-weight:bold;vertical-align:top;">wsgi.input</td><td style="vertical-align:top;">:</td><td><div>&lt;uwsgi._Input object at 0x7fd07bb00e28&gt;</div></td></tr><tr><td style="font-weight:bold;vertical-align:top;">wsgi.multiprocess</td><td style="vertical-align:top;">:</td><td><div>True</div></td></tr><tr><td style="font-weight:bold;vertical-align:top;">wsgi.multithread</td><td style="vertical-align:top;">:</td><td><div>False</div></td></tr><tr><td style="font-weight:bold;vertical-align:top;">wsgi.run_once</td><td style="vertical-align:top;">:</td><td><div>False</div></td></tr><tr><td style="font-weight:bold;vertical-align:top;">wsgi.url_scheme</td><td style="vertical-align:top;">:</td><td><div>https</div></td></tr><tr><td style="font-weight:bold;vertical-align:top;">wsgi.version</td><td style="vertical-align:top;">:</td><td><div><table><tr><td><div>1</div></td></tr><tr><td><div>0</div></td></tr></table></div></td></tr><tr><td style="font-weight:bold;vertical-align:top;">wsgi_errors</td><td style="vertical-align:top;">:</td><td><div>&lt;uwsgi_file__bin_user_wsgi_wrapper.ErrorLogFile object at 0x7fd0885ddcd0&gt;</div></td></tr><tr><td style="font-weight:bold;vertical-align:top;">wsgi_file_wrapper</td><td style="vertical-align:top;">:</td><td><div>&lt;built-in function uwsgi_sendfile&gt;</div></td></tr><tr><td style="font-weight:bold;vertical-align:top;">wsgi_input</td><td style="vertical-align:top;">:</td><td><div>&lt;uwsgi._Input object at 0x7fd07bb00e28&gt;</div></td></tr><tr><td style="font-weight:bold;vertical-align:top;">wsgi_multiprocess</td><td style="vertical-align:top;">:</td><td><div>True</div></td></tr><tr><td style="font-weight:bold;vertical-align:top;">wsgi_multithread</td><td style="vertical-align:top;">:</td><td><div>False</div></td></tr><tr><td style="font-weight:bold;vertical-align:top;">wsgi_run_once</td><td style="vertical-align:top;">:</td><td><div>False</div></td></tr><tr><td style="font-weight:bold;vertical-align:top;">wsgi_url_scheme</td><td style="vertical-align:top;">:</td><td><div>https</div></td></tr><tr><td style="font-weight:bold;vertical-align:top;">wsgi_version</td><td style="vertical-align:top;">:</td><td><div><table><tr><td><div>1</div></td></tr><tr><td><div>0</div></td></tr></table></div></td></tr></table></div></td></tr><tr><td style="font-weight:bold;vertical-align:top;">extension</td><td style="vertical-align:top;">:</td><td><div>html</div></td></tr><tr><td style="font-weight:bold;vertical-align:top;">folder</td><td style="vertical-align:top;">:</td><td><div>/home/rogoberto/web2py/applications/aluminum/</div></td></tr><tr><td style="font-weight:bold;vertical-align:top;">function</td><td style="vertical-align:top;">:</td><td><div>acesso_vendas_particao</div></td></tr><tr><td style="font-weight:bold;vertical-align:top;">global_settings</td><td style="vertical-align:top;">:</td><td><div><table><tr><td style="font-weight:bold;vertical-align:top;">app_folders</td><td style="vertical-align:top;">:</td><td><div>set([&#x27;/home/rogoberto/web2py/applications/prodigy/&#x27;, &#x27;/home/rogoberto/web2py/applications/aluminum/&#x27;, &#x27;/home/rogoberto/web2py/applications/agrosystem/&#x27;, &#x27;/home/rogoberto/web2py/applications/admin/&#x27;])</div></td></tr><tr><td style="font-weight:bold;vertical-align:top;">applications_parent</td><td style="vertical-align:top;">:</td><td><div>/home/rogoberto/web2py</div></td></tr><tr><td style="font-weight:bold;vertical-align:top;">db_sessions</td><td style="vertical-align:top;">:</td><td><div>set([])</div></td></tr><tr><td style="font-weight:bold;vertical-align:top;">debugging</td><td style="vertical-align:top;">:</td><td><div>True</div></td></tr><tr><td style="font-weight:bold;vertical-align:top;">gluon_parent</td><td style="vertical-align:top;">:</td><td><div>/home/rogoberto/web2py</div></td></tr><tr><td style="font-weight:bold;vertical-align:top;">is_jython</td><td style="vertical-align:top;">:</td><td><div>False</div></td></tr><tr><td style="font-weight:bold;vertical-align:top;">is_py2</td><td style="vertical-align:top;">:</td><td><div>True</div></td></tr><tr><td style="font-weight:bold;vertical-align:top;">is_pypy</td><td style="vertical-align:top;">:</td><td><div>False</div></td></tr><tr><td style="font-weight:bold;vertical-align:top;">is_source</td><td style="vertical-align:top;">:</td><td><div>True</div></td></tr><tr><td style="font-weight:bold;vertical-align:top;">local_hosts</td><td style="vertical-align:top;">:</td><td><div><table><tr><td><div>35.173.69.207</div></td></tr><tr><td><div>::ffff:127.0.0.1</div></td></tr><tr><td><div>::1</div></td></tr><tr><td><div>rogoberto.pythonanywhere.com</div></td></tr><tr><td><div>green-liveweb4</div></td></tr><tr><td><div>127.0.0.1</div></td></tr><tr><td><div>localhost</div></td></tr></table></div></td></tr><tr><td style="font-weight:bold;vertical-align:top;">web2py_version</td><td style="vertical-align:top;">:</td><td><div>2.17.1-stable+timestamp.2018.08.06.01.02.56</div></td></tr></table></div></td></tr><tr><td style="font-weight:bold;vertical-align:top;">is_https</td><td style="vertical-align:top;">:</td><td><div>True</div></td></tr><tr><td style="font-weight:bold;vertical-align:top;">is_local</td><td style="vertical-align:top;">:</td><td><div>False</div></td></tr><tr><td style="font-weight:bold;vertical-align:top;">is_restful</td><td style="vertical-align:top;">:</td><td><div>False</div></td></tr><tr><td style="font-weight:bold;vertical-align:top;">is_scheduler</td><td style="vertical-align:top;">:</td><td><div>False</div></td></tr><tr><td style="font-weight:bold;vertical-align:top;">is_shell</td><td style="vertical-align:top;">:</td><td><div>False</div></td></tr><tr><td style="font-weight:bold;vertical-align:top;">method</td><td style="vertical-align:top;">:</td><td><div>GET</div></td></tr><tr><td style="font-weight:bold;vertical-align:top;">now</td><td style="vertical-align:top;">:</td><td><div>datetime.datetime(2021, 4, 13, 2, 57, 15, 91573)</div></td></tr><tr><td style="font-weight:bold;vertical-align:top;">raw_args</td><td style="vertical-align:top;">:</td><td><div>164</div></td></tr><tr><td style="font-weight:bold;vertical-align:top;">raw_extension</td><td style="vertical-align:top;">:</td><td><div>None</div></td></tr><tr><td style="font-weight:bold;vertical-align:top;">url</td><td style="vertical-align:top;">:</td><td><div>/aluminum/acs_projeto/acesso_vendas_particao/164</div></td></tr><tr><td style="font-weight:bold;vertical-align:top;">utcnow</td><td style="vertical-align:top;">:</td><td><div>datetime.datetime(2021, 4, 13, 2, 57, 15, 91586)</div></td></tr><tr><td style="font-weight:bold;vertical-align:top;">wsgi</td><td style="vertical-align:top;">:</td><td><div>&lt;gluon.main.LazyWSGI object at 0x7fd08131a790&gt;</div></td></tr></table></div>'
tRp60
sS'frames'
p61
(lp62
(dp63
S'file'
p64
S'/home/rogoberto/web2py/gluon/restricted.py'
p65
sS'dump'
p66
(dp67
S'environment'
p68
S"{'A': <class 'gluon.html.A'>, 'ANY_OF': <class 'gluon.validators.ANY_OF'>, 'ASSIGNJS': <function ASSIGNJS>, 'AppConfig': <function AppConfig>, 'Auth': <class 'gluon.tools.Auth'>, 'B': <class 'gluon.html.B'>, 'BEAUTIFY': <class 'gluon.html.BEAUTIFY'>, 'BODY': <class 'gluon.html.BODY'>, 'BR': <class 'gluon.html.BR'>, 'BUTTON': <class 'gluon.html.BUTTON'>, ...}"
p69
sS'ccode'
p70
S'<code object <module> at 0x7fd081426db0, file "/...acs_projeto/acesso_vendas_particao.html", line 1>'
p71
ssS'lnum'
p72
I219
sS'lines'
p73
(dp74
I214
S'    if environment is None:'
p75
sI215
S'        environment = {}'
p76
sI216
S"    environment['__file__'] = layer"
p77
sI217
S"    environment['__name__'] = '__restricted__'"
p78
sI218
S'    try:'
p79
sI219
S'        exec(ccode, environment)'
p80
sI220
S'    except HTTP:'
p81
sI221
S'        raise'
p82
sI222
S'    except RestrictedError:'
p83
sI223
S'        # do not encapsulate (obfuscate) the original RestrictedError'
p84
ssS'call'
p85
S'(ccode=<code object <module> at 0x7fd081426db0, file "/...acs_projeto/acesso_vendas_particao.html", line 1>, environment={\'A\': <class \'gluon.html.A\'>, \'ANY_OF\': <class \'gluon.validators.ANY_OF\'>, \'ASSIGNJS\': <function ASSIGNJS>, \'AppConfig\': <function AppConfig>, \'Auth\': <class \'gluon.tools.Auth\'>, \'B\': <class \'gluon.html.B\'>, \'BEAUTIFY\': <class \'gluon.html.BEAUTIFY\'>, \'BODY\': <class \'gluon.html.BODY\'>, \'BR\': <class \'gluon.html.BR\'>, \'BUTTON\': <class \'gluon.html.BUTTON\'>, ...}, layer=\'/home/rogoberto/web2py/applications/aluminum/views/acs_projeto/acesso_vendas_particao.html\', scode=r"response.write(\'<!DOCTYPE html>\\n<!--[if (gt IE ...nse.write(\'\\n  </body>\\n</html>\\n\', escape=False)")'
p86
sS'func'
p87
S'restricted'
p88
sa(dp89
g64
S'/home/rogoberto/web2py/applications/aluminum/views/acs_projeto/acesso_vendas_particao.html'
p90
sg66
(dp91
sg72
I268
sg73
(dp92
I259
S"    response.write('\\n                ', escape=False)"
p93
sI260
S'    tfichas_venda+=row.quant_fichas-row.quant_fichas_devolvidas'
p94
sI261
S"    response.write('\\n                ', escape=False)"
p95
sI262
S'    tcaderno+=row.vale_caderno'
p96
sI263
S"    response.write('\\n                ', escape=False)"
p97
sI264
S'    tentrada+=row.entradas_venda'
p98
sI265
S"    response.write('\\n                ', escape=False)"
p99
sI266
S'    tfichas_devolvidas+=row.quant_fichas_devolvidas'
p100
sI267
S"    response.write('\\n                ', escape=False)"
p101
sI268
S'    tvalor_devolvido+=row.valor_devolvido'
p102
sI269
S"    response.write('\\n            </tr>\\n            ', escape=False)"
p103
sI270
S'    pass'
p104
sI271
S"response.write('\\n            ', escape=False)"
p105
sI272
S'if  len(rows)>1:'
p106
sI273
S"    response.write('\\n            <tr>\\n                ', escape=False)"
p107
sI274
S'    a+=1'
p108
sI275
S"    response.write('\\n                <th>', escape=False)"
p109
sI276
S'    response.write(a)'
p110
sI277
S"    response.write('</th>\\n                        <td>', escape=False)"
p111
sI278
S"    response.write(data.strftime('%d/%m/%Y'))"
p112
ssg85
S'()'
p113
sg87
S'<module>'
p114
sasS'pyver'
p115
S'Python 2.7.12: /usr/local/bin/uwsgi (prefix: /usr)'
p116
sS'session'
p117
g59
(S's\xef\t\x00\x00<div><table><tr><td style="font-weight:bold;vertical-align:top;">auth</td><td style="vertical-align:top;">:</td><td><div><table><tr><td style="font-weight:bold;vertical-align:top;">expiration</td><td style="vertical-align:top;">:</td><td><div>3600</div></td></tr><tr><td style="font-weight:bold;vertical-align:top;">hmac_key</td><td style="vertical-align:top;">:</td><td><div>8bea4f23-bbf8-4487-b8b8-831b5d37e7f9</div></td></tr><tr><td style="font-weight:bold;vertical-align:top;">last_visit</td><td style="vertical-align:top;">:</td><td><div>datetime.datetime(2021, 4, 13, 2, 56, 47, 486693)</div></td></tr><tr><td style="font-weight:bold;vertical-align:top;">remember_me</td><td style="vertical-align:top;">:</td><td><div>False</div></td></tr><tr><td style="font-weight:bold;vertical-align:top;">user</td><td style="vertical-align:top;">:</td><td><div><table><tr><td style="font-weight:bold;vertical-align:top;">email</td><td style="vertical-align:top;">:</td><td><div>betin@gmail.com</div></td></tr><tr><td style="font-weight:bold;vertical-align:top;">first_name</td><td style="vertical-align:top;">:</td><td><div>Rogoberto</div></td></tr><tr><td style="font-weight:bold;vertical-align:top;">id</td><td style="vertical-align:top;">:</td><td><div>1L</div></td></tr><tr><td style="font-weight:bold;vertical-align:top;">last_name</td><td style="vertical-align:top;">:</td><td><div>Ribeiro</div></td></tr><tr><td style="font-weight:bold;vertical-align:top;">registration_id</td><td style="vertical-align:top;">:</td><td><div></div></td></tr><tr><td style="font-weight:bold;vertical-align:top;">registration_key</td><td style="vertical-align:top;">:</td><td><div></div></td></tr><tr><td style="font-weight:bold;vertical-align:top;">reset_password_key</td><td style="vertical-align:top;">:</td><td><div></div></td></tr></table></div></td></tr><tr><td style="font-weight:bold;vertical-align:top;">user_groups</td><td style="vertical-align:top;">:</td><td><div><table><tr><td style="font-weight:bold;vertical-align:top;">1</td><td style="vertical-align:top;">:</td><td><div>user_1</div></td></tr><tr><td style="font-weight:bold;vertical-align:top;">2</td><td style="vertical-align:top;">:</td><td><div>admin</div></td></tr><tr><td style="font-weight:bold;vertical-align:top;">3</td><td style="vertical-align:top;">:</td><td><div>wiki_editor</div></td></tr></table></div></td></tr></table></div></td></tr><tr><td style="font-weight:bold;vertical-align:top;">flash</td><td style="vertical-align:top;">:</td><td><div>None</div></td></tr></table></div>'
tRp118
sS'etype'
p119
S"<type 'exceptions.NameError'>"
p120
sS'date'
p121
S'Tue Apr 13 02:57:16 2021'
p122
sS'response'
p123
g59
(S's\r\x1e\x00\x00<div><table><tr><td style="font-weight:bold;vertical-align:top;">body</td><td style="vertical-align:top;">:</td><td><div>&lt;cStringIO.StringO object at 0x7fd081b13880&gt;</div></td></tr><tr><td style="font-weight:bold;vertical-align:top;">cookies</td><td style="vertical-align:top;">:</td><td><div><table><tr><td style="font-weight:bold;vertical-align:top;">session_id_aluminum</td><td style="vertical-align:top;">:</td><td><div>191.212.144.51-7520250b-9bb8-4ebb-9c48-c310ac7c0a8f<table><tr><td style="font-weight:bold;vertical-align:top;">comment</td><td style="vertical-align:top;">:</td><td><div></div></td></tr><tr><td style="font-weight:bold;vertical-align:top;">domain</td><td style="vertical-align:top;">:</td><td><div></div></td></tr><tr><td style="font-weight:bold;vertical-align:top;">expires</td><td style="vertical-align:top;">:</td><td><div></div></td></tr><tr><td style="font-weight:bold;vertical-align:top;">httponly</td><td style="vertical-align:top;">:</td><td><div></div></td></tr><tr><td style="font-weight:bold;vertical-align:top;">max-age</td><td style="vertical-align:top;">:</td><td><div></div></td></tr><tr><td style="font-weight:bold;vertical-align:top;">path</td><td style="vertical-align:top;">:</td><td><div>/</div></td></tr><tr><td style="font-weight:bold;vertical-align:top;">secure</td><td style="vertical-align:top;">:</td><td><div></div></td></tr><tr><td style="font-weight:bold;vertical-align:top;">version</td><td style="vertical-align:top;">:</td><td><div></div></td></tr></table></div></td></tr></table></div></td></tr><tr><td style="font-weight:bold;vertical-align:top;">delimiters</td><td style="vertical-align:top;">:</td><td><div><table><tr><td><div>{{</div></td></tr><tr><td><div>}}</div></td></tr></table></div></td></tr><tr><td style="font-weight:bold;vertical-align:top;">files</td><td style="vertical-align:top;">:</td><td><div><table><tr><td><div>/aluminum/static/js/jquery.js</div></td></tr><tr><td><div>/aluminum/static/css/calendar.css</div></td></tr><tr><td><div>/aluminum/static/js/calendar.js</div></td></tr><tr><td><div>/aluminum/static/js/web2py.js</div></td></tr></table></div></td></tr><tr><td style="font-weight:bold;vertical-align:top;">flash</td><td style="vertical-align:top;">:</td><td><div></div></td></tr><tr><td style="font-weight:bold;vertical-align:top;">form_label_separator</td><td style="vertical-align:top;">:</td><td><div></div></td></tr><tr><td style="font-weight:bold;vertical-align:top;">formstyle</td><td style="vertical-align:top;">:</td><td><div>bootstrap4_inline</div></td></tr><tr><td style="font-weight:bold;vertical-align:top;">generic_patterns</td><td style="vertical-align:top;">:</td><td><div><table></table></div></td></tr><tr><td style="font-weight:bold;vertical-align:top;">google_analytics_id</td><td style="vertical-align:top;">:</td><td><div>None</div></td></tr><tr><td style="font-weight:bold;vertical-align:top;">headers</td><td style="vertical-align:top;">:</td><td><div><table><tr><td style="font-weight:bold;vertical-align:top;">X-Powered-By</td><td style="vertical-align:top;">:</td><td><div>web2py</div></td></tr></table></div></td></tr><tr><td style="font-weight:bold;vertical-align:top;">menu</td><td style="vertical-align:top;">:</td><td><div><table><tr><td><div><table><tr><td><div>Principal</div></td></tr><tr><td><div>False</div></td></tr><tr><td><div>/aluminum/default/index</div></td></tr><tr><td><div><table></table></div></td></tr></table></div></td></tr><tr><td><div><table><tr><td><div>Principal</div></td></tr><tr><td><div>False</div></td></tr><tr><td><div>/aluminum/default/index</div></td></tr><tr><td><div><table></table></div></td></tr></table></div></td></tr></table></div></td></tr><tr><td style="font-weight:bold;vertical-align:top;">meta</td><td style="vertical-align:top;">:</td><td><div><table><tr><td style="font-weight:bold;vertical-align:top;">author</td><td style="vertical-align:top;">:</td><td><div>Your Name &lt;you@example.com&gt;</div></td></tr><tr><td style="font-weight:bold;vertical-align:top;">description</td><td style="vertical-align:top;">:</td><td><div>a cool new app</div></td></tr><tr><td style="font-weight:bold;vertical-align:top;">generator</td><td style="vertical-align:top;">:</td><td><div>Web2py Web Framework</div></td></tr><tr><td style="font-weight:bold;vertical-align:top;">keywords</td><td style="vertical-align:top;">:</td><td><div><table><tr><td><div>web2py</div></td></tr><tr><td><div>python</div></td></tr><tr><td><div>framework</div></td></tr></table></div></td></tr></table></div></td></tr><tr><td style="font-weight:bold;vertical-align:top;">models_to_run</td><td style="vertical-align:top;">:</td><td><div><table><tr><td><div>^\\w+\\.py$</div></td></tr><tr><td><div>^acs_projeto/\\w+\\.py$</div></td></tr><tr><td><div>^acs_projeto/acesso_vendas_particao/\\w+\\.py$</div></td></tr></table></div></td></tr><tr><td style="font-weight:bold;vertical-align:top;">postprocessing</td><td style="vertical-align:top;">:</td><td><div><table></table></div></td></tr><tr><td style="font-weight:bold;vertical-align:top;">session_client</td><td style="vertical-align:top;">:</td><td><div>191.212.144.51</div></td></tr><tr><td style="font-weight:bold;vertical-align:top;">session_cookie_compression_level</td><td style="vertical-align:top;">:</td><td><div>None</div></td></tr><tr><td style="font-weight:bold;vertical-align:top;">session_cookie_expires</td><td style="vertical-align:top;">:</td><td><div>None</div></td></tr><tr><td style="font-weight:bold;vertical-align:top;">session_data_name</td><td style="vertical-align:top;">:</td><td><div>session_data_aluminum</div></td></tr><tr><td style="font-weight:bold;vertical-align:top;">session_file</td><td style="vertical-align:top;">:</td><td><div>&lt;open file &#x27;/home/rogoberto/web2py/applications/aluminum/sessions/167/126/191.212.144.51-7520250b-9bb8-4ebb-9c48-c310ac7c0a8f&#x27;, mode &#x27;rb+&#x27; at 0x7fd080e07660&gt;</div></td></tr><tr><td style="font-weight:bold;vertical-align:top;">session_filename</td><td style="vertical-align:top;">:</td><td><div>/home/rogoberto/web2py/applications/aluminum/sessions/191.212.144.51-7520250b-9bb8-4ebb-9c48-c310ac7c0a8f</div></td></tr><tr><td style="font-weight:bold;vertical-align:top;">session_hash</td><td style="vertical-align:top;">:</td><td><div>b55d1af737c021435f00e62ea0dae4e6</div></td></tr><tr><td style="font-weight:bold;vertical-align:top;">session_id</td><td style="vertical-align:top;">:</td><td><div>191.212.144.51-7520250b-9bb8-4ebb-9c48-c310ac7c0a8f</div></td></tr><tr><td style="font-weight:bold;vertical-align:top;">session_id_name</td><td style="vertical-align:top;">:</td><td><div>session_id_aluminum</div></td></tr><tr><td style="font-weight:bold;vertical-align:top;">session_locked</td><td style="vertical-align:top;">:</td><td><div>True</div></td></tr><tr><td style="font-weight:bold;vertical-align:top;">session_masterapp</td><td style="vertical-align:top;">:</td><td><div>aluminum</div></td></tr><tr><td style="font-weight:bold;vertical-align:top;">session_new</td><td style="vertical-align:top;">:</td><td><div>False</div></td></tr><tr><td style="font-weight:bold;vertical-align:top;">session_storage_type</td><td style="vertical-align:top;">:</td><td><div>file</div></td></tr><tr><td style="font-weight:bold;vertical-align:top;">show_toolbar</td><td style="vertical-align:top;">:</td><td><div>False</div></td></tr><tr><td style="font-weight:bold;vertical-align:top;">status</td><td style="vertical-align:top;">:</td><td><div>200</div></td></tr><tr><td style="font-weight:bold;vertical-align:top;">view</td><td style="vertical-align:top;">:</td><td><div>acs_projeto/acesso_vendas_particao.html</div></td></tr></table></div>'
tRp124
sS'locals'
p125
(dp126
S'PY2'
p127
S'True'
p128
sS'OBJECT'
p129
S"<class 'gluon.html.OBJECT'>"
p130
sS'SQLDB'
p131
S"<class 'pydal.base.DAL'>"
p132
sg117
S"<Storage {'auth': <Storage {'remember_me': False...-ca7b-40d5-8cdd-d99fde2c948c'], '_secure': True}>"
p133
sS'LINK'
p134
S"<class 'gluon.html.LINK'>"
p135
sS'BR'
p136
S"<class 'gluon.html.BR'>"
p137
sS'local_import'
p138
S'<function <lambda>>'
p139
sS'OPTGROUP'
p140
S"<class 'gluon.html.OPTGROUP'>"
p141
sS'fichas_devolvidas'
p142
S'0L'
p143
sS'venda'
p144
S'2520.0'
p145
sS'tfichas_devolvidas'
p146
S'0L'
p147
sS'row'
p148
S"<Row {'venda_praso': 2520.0, 'quant_fichas_devol...olvido': 0.0, 'vale_caderno': 0.0, 'id': 12838L}>"
p149
sS'PRE'
p150
S"<class 'gluon.html.PRE'>"
p151
sS'IS_INT_IN_RANGE'
p152
S"<class 'gluon.validators.IS_INT_IN_RANGE'>"
p153
sS'to_bytes'
p154
S'<function to_bytes>'
p155
sS'IS_LOWER'
p156
S"<class 'gluon.validators.IS_LOWER'>"
p157
sS'IS_STRONG'
p158
S"<class 'gluon.validators.IS_STRONG'>"
p159
sS'cache'
p160
S'<gluon.cache.Cache object>'
p161
sS'IS_IN_DB'
p162
S"<class 'gluon.validators.IS_IN_DB'>"
p163
sS'TAG'
p164
S'<gluon.html.__TAG__ object>'
p165
sS'SQLField'
p166
S"<class 'pydal.objects.Field'>"
p167
sS'mail'
p168
S'<gluon.tools.Mail object>'
p169
sS'entrada'
p170
S'0.0'
p171
sS'BODY'
p172
S"<class 'gluon.html.BODY'>"
p173
sS'IS_DATE_IN_RANGE'
p174
S"<class 'gluon.validators.IS_DATE_IN_RANGE'>"
p175
sS'IFRAME'
p176
S"<class 'gluon.html.IFRAME'>"
p177
sS'URL'
p178
S'<function URL>'
p179
sS'__file__'
p180
S"'/home/rogoberto/web2py/applications/aluminum/views/acs_projeto/acesso_vendas_particao.html'"
p181
sS'db'
p182
S'<DAL uri="sqlite://storage.sqlite">'
p183
sS'auth'
p184
S'<gluon.tools.Auth object>'
p185
sS'P'
S"<class 'gluon.html.P'>"
p186
sS'TFOOT'
p187
S"<class 'gluon.html.TFOOT'>"
p188
sS'iteritems'
p189
S'<function <lambda>>'
p190
sS'XHTML'
p191
S"<class 'gluon.html.XHTML'>"
p192
sS'datetime'
p193
S"<module 'datetime' (built-in)>"
p194
sS'ON'
p195
g128
sS'OL'
p196
S"<class 'gluon.html.OL'>"
p197
sS'TEXTAREA'
p198
S"<class 'gluon.html.TEXTAREA'>"
p199
sS'MENU'
p200
S"<class 'gluon.html.MENU'>"
p201
sS'__package__'
p202
S'None'
p203
sS'IS_IMAGE'
p204
S"<class 'gluon.validators.IS_IMAGE'>"
p205
sS'IS_DATETIME_IN_RANGE'
p206
S"<class 'gluon.validators.IS_DATETIME_IN_RANGE'>"
p207
sS'EM'
p208
S"<class 'gluon.html.EM'>"
p209
sS'CODE'
p210
S"<class 'gluon.html.CODE'>"
p211
sS'HTTP'
p212
S"<class 'gluon.http.HTTP'>"
p213
sS'HR'
p214
S"<class 'gluon.html.HR'>"
p215
sS'IS_DATETIME'
p216
S"<class 'gluon.validators.IS_DATETIME'>"
p217
sS'reduce'
p218
S'<built-in function reduce>'
p219
sS'STYLE'
p220
S"<class 'gluon.html.STYLE'>"
p221
sS'LABEL'
p222
S"<class 'gluon.html.LABEL'>"
p223
sS'CLEANUP'
p224
S"<class 'gluon.validators.CLEANUP'>"
p225
sS'BUTTON'
p226
S"<class 'gluon.html.BUTTON'>"
p227
sS'SELECT'
p228
S"<class 'gluon.html.SELECT'>"
p229
sS'CENTER'
p230
S"<class 'gluon.html.CENTER'>"
p231
sS'tvenda'
p232
S'2520.0'
p233
sS'Auth'
p234
S"<class 'gluon.tools.Auth'>"
p235
sS'caderno'
p236
S'0.0'
p237
sS'urlopen'
p238
S'<function urlopen>'
p239
sS'HTML'
p240
S"<class 'gluon.html.HTML'>"
p241
sS'SQLFORM'
p242
S"<class 'gluon.sqlhtml.SQLFORM'>"
p243
sS'_item'
p244
S"(<lazyT 'Home'>, False, '/aluminum/default/index', [])"
p245
sS'LOAD'
p246
S'<function LOAD>'
p247
sS'redirect'
p248
S'<function redirect>'
p249
sS'FIELDSET'
p250
S"<class 'gluon.html.FIELDSET'>"
p251
sS'IS_EQUAL_TO'
p252
S"<class 'gluon.validators.IS_EQUAL_TO'>"
p253
sS'fichas_venda'
p254
S'11L'
p255
sS'embed64'
p256
S'<function embed64>'
p257
sS'rows'
p258
S'<Rows (32)>'
p259
sS'IS_LIST_OF'
p260
S"<class 'gluon.validators.IS_LIST_OF'>"
p261
sS'__name__'
p262
S"'__restricted__'"
p263
sS'EMBED'
p264
S"<class 'gluon.html.EMBED'>"
p265
sS'configuration'
p266
S"{'host': {'names': 'localhost:*, 127.0.0.1:*, *:...': 'sqlite://storage.sqlite', 'pool_size': '10'}}"
p267
sS'FORM'
p268
S"<class 'gluon.html.FORM'>"
p269
sS'H2'
p270
S"<class 'gluon.html.H2'>"
p271
sS'H3'
p272
S"<class 'gluon.html.H3'>"
p273
sS'projeto'
p274
S"<Row {'empresa': 14L, 'total_salario_funcionario..._cobrado': 0.0, 'total_pecas_mercadoria': 1822L}>"
p275
sS'H1'
p276
S"<class 'gluon.html.H1'>"
p277
sS'H6'
p278
S"<class 'gluon.html.H6'>"
p279
sS'H4'
p280
S"<class 'gluon.html.H4'>"
p281
sS'H5'
p282
S"<class 'gluon.html.H5'>"
p283
sS'UL'
p284
S"<class 'gluon.html.UL'>"
p285
sS'IS_UPPER'
p286
S"<class 'gluon.validators.IS_UPPER'>"
p287
sS'xmlescape'
p288
S'<function xmlescape>'
p289
sS'IS_TIME'
p290
S"<class 'gluon.validators.IS_TIME'>"
p291
sS'OPTION'
p292
S"<class 'gluon.html.OPTION'>"
p293
sS'TITLE'
p294
S"<class 'gluon.html.TITLE'>"
p295
sS'CRYPT'
p296
S"<class 'gluon.validators.CRYPT'>"
p297
sS'IS_EMPTY_OR'
p298
S"<class 'gluon.validators.IS_EMPTY_OR'>"
p299
sS'MARKMIN'
p300
S"<class 'gluon.html.MARKMIN'>"
p301
sS'INPUT'
p302
S"<class 'gluon.html.INPUT'>"
p303
sS'STRONG'
p304
S"<class 'gluon.html.STRONG'>"
p305
sS'COL'
p306
S"<class 'gluon.html.COL'>"
p307
sS'__builtins__'
p308
S"{'ArithmeticError': <type 'exceptions.ArithmeticError'>, 'AssertionError': <type 'exceptions.AssertionError'>, 'AttributeError': <type 'exceptions.AttributeError'>, 'BaseException': <type 'exceptions.BaseException'>, 'BufferError': <type 'exceptions.BufferError'>, 'BytesWarning': <type 'exceptions.BytesWarning'>, 'DeprecationWarning': <type 'exceptions.DeprecationWarning'>, 'EOFError': <type 'exceptions.EOFError'>, 'Ellipsis': Ellipsis, 'EnvironmentError': <type 'exceptions.EnvironmentError'>, ...}"
p309
sS'totaldespesa'
p310
S'0'
sS'SCRIPT'
p311
S"<class 'gluon.html.SCRIPT'>"
p312
sS'primiradata'
p313
S'0'
sS'TABLE'
p314
S"<class 'gluon.html.TABLE'>"
p315
sS'IS_IPV4'
p316
S"<class 'gluon.validators.IS_IPV4'>"
p317
sS'IS_LENGTH'
p318
S"<class 'gluon.validators.IS_LENGTH'>"
p319
sS'IS_IPV6'
p320
S"<class 'gluon.validators.IS_IPV6'>"
p321
sS'XML'
p322
S"<class 'gluon.html.XML'>"
p323
sS'ANY_OF'
p324
S"<class 'gluon.validators.ANY_OF'>"
p325
sS'B'
S"<class 'gluon.html.B'>"
p326
sS'IMG'
p327
S"<class 'gluon.html.IMG'>"
p328
sS'SQLTABLE'
p329
S"<class 'gluon.sqlhtml.SQLTABLE'>"
p330
sS'IS_MATCH'
p331
S"<class 'gluon.validators.IS_MATCH'>"
p332
sS'IS_ALPHANUMERIC'
p333
S"<class 'gluon.validators.IS_ALPHANUMERIC'>"
p334
sS'SPAN'
p335
S"<class 'gluon.html.SPAN'>"
p336
sS'IS_JSON'
p337
S"<class 'gluon.validators.IS_JSON'>"
p338
sS'IS_IPADDRESS'
p339
S"<class 'gluon.validators.IS_IPADDRESS'>"
p340
sS'rowsdesp'
p341
S'<Rows (96)>'
p342
sS'IS_SLUG'
p343
S"<class 'gluon.validators.IS_SLUG'>"
p344
sS'tentrada'
p345
S'0.0'
p346
sS'sub_venda'
p347
S'<Row {\'total_saldo_cobrador\': 0.0, \'nome_cobrado...volucao\': <Set ("devolucao"."sub_venda" = 164)>}>'
p348
sS'BEAUTIFY'
p349
S"<class 'gluon.html.BEAUTIFY'>"
p350
sS'META'
p351
S"<class 'gluon.html.META'>"
p352
sS'AppConfig'
p353
S'<function AppConfig>'
p354
sS'IS_DATE'
p355
S"<class 'gluon.validators.IS_DATE'>"
p356
sS'IS_EMAIL'
p357
S"<class 'gluon.validators.IS_EMAIL'>"
p358
sS'IS_NOT_EMPTY'
p359
S"<class 'gluon.validators.IS_NOT_EMPTY'>"
p360
sS'xrange'
p361
S"<type 'xrange'>"
p362
sS'TBODY'
p363
S"<class 'gluon.html.TBODY'>"
p364
sS'CAT'
p365
S"<class 'gluon.html.CAT'>"
p366
sS'Field'
p367
S"<class 'pydal.objects.Field'>"
p368
sS'IS_LIST_OF_EMAILS'
p369
S"<class 'gluon.validators.IS_LIST_OF_EMAILS'>"
p370
sg58
S"<Storage {'function': 'acesso_vendas_particao', ...e, 'is_https': True, 'client': '191.212.144.51'}>"
p371
sS'DIV'
p372
S"<class 'gluon.html.DIV'>"
p373
sS'tcaderno'
p374
S'0.0'
p375
sS'LEGEND'
p376
S"<class 'gluon.html.LEGEND'>"
p377
sS'to_native'
p378
S'<function to_native>'
p379
sS'COLGROUP'
p380
S"<class 'gluon.html.COLGROUP'>"
p381
sS'DAL'
p382
S"<class 'pydal.base.DAL'>"
p383
sS'ASSIGNJS'
p384
S'<function ASSIGNJS>'
p385
sS'TR'
p386
S"<class 'gluon.html.TR'>"
p387
sS'LI'
p388
S"<class 'gluon.html.LI'>"
p389
sS'TH'
p390
S"<class 'gluon.html.TH'>"
p391
sS'TD'
p392
S"<class 'gluon.html.TD'>"
p393
sS'IS_URL'
p394
S"<class 'gluon.validators.IS_URL'>"
p395
sS'A'
S"<class 'gluon.html.A'>"
p396
sS'HEAD'
p397
S"<class 'gluon.html.HEAD'>"
p398
sS'tfichas_venda'
p399
S'11L'
p400
sS'ultimadata'
p401
S'0'
sS'I'
S"<class 'gluon.html.I'>"
p402
sS'Request'
p403
S'<class urllib2.Request>'
p404
sS'IS_NOT_IN_DB'
p405
S"<class 'gluon.validators.IS_NOT_IN_DB'>"
p406
sS'valor_devolvido'
p407
S'0.0'
p408
sS'data'
p409
S'datetime.date(2021, 4, 9)'
p410
sg123
S"<Storage {'body': <cStringIO.StringO object at 0...iew': 'acs_projeto/acesso_vendas_particao.html'}>"
p411
sS'THEAD'
p412
S"<class 'gluon.html.THEAD'>"
p413
sS'a'
S'0'
sS'IS_NULL_OR'
p414
S"<class 'gluon.validators.IS_EMPTY_OR'>"
p415
sS'IS_FLOAT_IN_RANGE'
p416
S"<class 'gluon.validators.IS_FLOAT_IN_RANGE'>"
p417
sS'IS_EXPR'
p418
S"<class 'gluon.validators.IS_EXPR'>"
p419
sS'T'
S'<gluon.languages.translator object>'
p420
sS'IS_IN_SET'
p421
S"<class 'gluon.validators.IS_IN_SET'>"
p422
sS'IS_UPLOAD_FILENAME'
p423
S"<class 'gluon.validators.IS_UPLOAD_FILENAME'>"
p424
sS'TT'
p425
S"<class 'gluon.html.TT'>"
p426
sS'IS_DECIMAL_IN_RANGE'
p427
S"<class 'gluon.validators.IS_DECIMAL_IN_RANGE'>"
p428
sssS'traceback'
p429
S'Traceback (most recent call last):\n  File "/home/rogoberto/web2py/gluon/restricted.py", line 219, in restricted\n    exec(ccode, environment)\n  File "/home/rogoberto/web2py/applications/aluminum/views/acs_projeto/acesso_vendas_particao.html", line 268, in <module>\nNameError: name \'tvalor_devolvido\' is not defined\n'
p430
s.