(dp1
S'output'
p2
S'missing "pass" in view'
p3
sS'layer'
p4
S'ParserContainer'
p5
sS'code'
p6
S'response.write(\'<!DOCTYPE html>\\n<!--[if (gt IE 9)|!(IE)]><!--> <html class="no-js" lang="\', escape=False)\nresponse.write(T.accepted_language or \'en\')\nresponse.write(\'"> <!--<![endif]-->\\n  <head>\\n    <meta charset="utf-8">\\n    <!-- www.phpied.com/conditional-comments-block-downloads/ -->\\n    <!-- Always force latest IE rendering engine\\n         (even in intranet) & Chrome Frame\\n         Remove this if you use the .htaccess -->\\n    <meta http-equiv="X-UA-Compatible" content="IE=edge\', escape=False)\nresponse.write(not request.is_local and \',chrome=1\' or \'\')\nresponse.write(\'">\\n    <!--  Mobile Viewport Fix\\n          j.mp/mobileviewport & davidbcalhoun.com/2010/viewport-metatag\\n          device-width: Occupy full width of the screen in its current orientation\\n          initial-scale = 1.0 retains dimensions instead of zooming out if page height > device height\\n          user-scalable = yes allows the user to zoom in -->\\n    <meta name="viewport" content="width=device-width, initial-scale=1.0">\\n       <title>Aluminum System</title>\\n      <meta name="author" content="Arsenal System">\\n<!--       <meta name="description" content="cr\\xc3\\xa9diario de aluminio, controle seus custos, despesas vendas e cobran\\xc3\\xa7as"> -->\\n<!--       <meta name="keywords" content="Controle Cheque, pagamentos, Sistema"> -->\\n<!--       <meta name="author" content="Arsenal System"> -->\\n      <meta name="description" content="Gerenciamento controle de crediario">\\n    <!-- http://dev.w3.org/html5/markup/meta.name.html -->\\n    <meta name="application-name" content="sistema credi\\xc3\\xa1rio panela">\\n    <!-- Speaking of Google, don\\\'t forget to set your site up:\\n         http://google.com/webmasters -->\\n    <meta name="google-site-verification" content="peneleiro Juazeiro, panela credi\\xc3\\xa1rio, sistema panela">\\n    <!-- include stylesheets -->\\n    <link rel="stylesheet" href="https://cdnjs.cloudflare.com/ajax/libs/font-awesome/4.7.0/css/font-awesome.min.css"/>\\n    <link rel="stylesheet" href="\', escape=False)\nresponse.write(URL(\'static\',\'css/bootstrap.min.css\'))\nresponse.write(\'"/>\\n    <link rel="stylesheet" href="\', escape=False)\nresponse.write(URL(\'static\',\'css/web2py-bootstrap4.css\'))\nresponse.write(\'"/>\\n    <link rel="shortcut icon" href="\', escape=False)\nresponse.write(URL(\'static\',\'images/ico.ico\'))\nresponse.write(\'" type="image/x-icon">\\n    <link rel="apple-touch-icon" href="\', escape=False)\nresponse.write(URL(\'static\',\'images/ico.png\'))\nresponse.write(\'">\\n    <!-- All JavaScript at the bottom, except for Modernizr which enables\\n         HTML5 elements & feature detects -->\\n    <script src="\', escape=False)\nresponse.write(URL(\'static\',\'js/modernizr-2.8.3.min.js\'))\nresponse.write(\'"></script>\\n    <!-- Favicons -->\\n    \', escape=False)\nresponse.write(\'<script type="text/javascript"><!--\\n    // These variables are used by the web2py_ajax_init function in web2py_ajax.js (which is loaded below).\\n    \', escape=False)\nresponse.write(ASSIGNJS(\nw2p_ajax_confirm_message = T(\'Are you sure you want to delete this object?\'),\nw2p_ajax_disable_with_message = T(\'Working...\'),\nw2p_ajax_date_format = T(\'%Y-%m-%d\'),\nw2p_ajax_datetime_format = T(\'%Y-%m-%d %H:%M:%S\'),\najax_error_500 = T.M(\'An error occured, please [[reload %s]] the page\') % URL(args=request.args, vars=request.get_vars)\n))\nresponse.write(\'\\n    //--></script>\\n\', escape=False)\nresponse.files.insert(0,URL(\'static\',\'js/jquery.js\'))\nresponse.files.insert(1,URL(\'static\',\'css/calendar.css\'))\nresponse.files.insert(2,URL(\'static\',\'js/calendar.js\'))\nresponse.files.insert(3,URL(\'static\',\'js/web2py.js\'))\nresponse.include_meta()\nresponse.include_files()\nresponse.write(\'\\n\', escape=False)\nresponse.write(\' <!-- this includes jquery.js, calendar.js/.css and web2py.js -->\\n      \', escape=False)\nif auth.user:\n    response.write(\'\\n    \', escape=False)\n    if auth.user.first_name=="Rogoberto":\n        response.write(\'\\n   \\n    \', escape=False)\n    elif auth.user.first_name=="Meme":\n        response.write(\'\\n    <link rel="stylesheet" href="https://bootswatch.com/4/materia/bootstrap.css"> \\n    \', escape=False)\n        pass\n    response.write(\'\\n    \', escape=False)\n    pass\nresponse.write(\'\\n    \', escape=False)\nresponse.write(\'\\n  \\n  </head>\\n  <body>\\n      \\n        <style  type="text/css">\\n    @media print{\\n        .btn{\\n             display: none;\\n        }\\n        #noprint { display:none; } \\n      a:link{font:15px "verdana"; color:#8B4513; text-decoration:none;}\\n\\na:hover{font:20px "verdana"; color:black; text-decoration:underline;}\\n    }\\n      </style>\\n    <div class="w2p_flash alert alert-dismissable">\', escape=False)\nresponse.write(response.flash or \'\')\nresponse.write(\'</div>\\n    <!-- Navbar ======================================= -->\\n    <nav class="navbar navbar-light navbar-expand-md bg-faded justify-content-center">\\n        <a class="navbar-brand" href="https://rogoberto.pythonanywhere.com/aluminum/#acesso">Aluminum</a>\\n       <button class="navbar-toggler" type="button" data-toggle="collapse" data-target="#navbarNavDropdown" aria-controls="navbarNavDropdown" aria-expanded="false" aria-label="Toggle navigation">\\n         <span class="navbar-toggler-icon"></span>\\n       </button>\\n       <div class="navbar-collapse collapse w-100" id="navbarNavDropdown">\\n         <ul class="navbar-nav w-100 justify-content-center">\\n          \', escape=False)\nfor _item in response.menu or []:\n    response.write(\'\\n          \', escape=False)\n    if (not len(_item)>4) or not _item[3]:\n        response.write(\'\\n          <li class="nav-item \', escape=False)\n        if _item[1]:\n            response.write(\'active\', escape=False)\n            pass\n        response.write(\'">\\n            <a class="nav-link" href="\', escape=False)\n        response.write(_item[2])\n        response.write(\'">\', escape=False)\n        response.write(_item[0])\n        response.write(\'</a>\\n          </li>\\n          \', escape=False)\n    else:\n        response.write(\'\\n          <li class="nav-item dropdown">\\n            <a class="nav-link dropdown-toggle" href="\', escape=False)\n        response.write(_item[2])\n        response.write(\'" data-toggle="dropdown" aria-haspopup="true" aria-expanded="false">\', escape=False)\n        response.write(_item[0])\n        response.write(\'</a>\\n            <div class="dropdown-menu">\\n              \', escape=False)\n        for _subitem in _item[3]:\n            response.write(\'\\n              <a class="dropdown-item" href="\', escape=False)\n            response.write(_subitem[2])\n            response.write(\'">\', escape=False)\n            response.write(_subitem[0])\n            response.write(\'</a>\\n              \', escape=False)\n            pass\n        response.write(\'\\n            </div>\\n          </li>\\n          \', escape=False)\n        pass\n    response.write(\'\\n          \', escape=False)\n    pass\nresponse.write(\'\\n        </ul>\\n\\n        \', escape=False)\nif \'auth\' in globals():\n    response.write(\'\\n        <ul class="nav navbar-nav ml-auto w-100 justify-content-end">\\n          <li class="nav-item dropdown">\\n            <a class="nav-link dropdown-toggle" href="#" data-toggle="dropdown" aria-haspopup="true" aria-expanded="false">\\n              \', escape=False)\n    if auth.user:\n        response.write(auth.user.first_name)\n    else:\n        response.write(\'LOGIN\', escape=False)\n        pass\n    response.write(\'\\n            </a>\\n            <div class="dropdown-menu dropdown-menu-right">\\n              \', escape=False)\n    if auth.user:\n        response.write(\'\\n              <a class="dropdown-item" href="\', escape=False)\n        response.write(URL(\'default\',\'user/profile\'))\n        response.write(\'">\', escape=False)\n        response.write(T(\'Profile\'))\n        response.write(\'</a>\\n              \', escape=False)\n        if \'change_password\' not in auth.settings.actions_disabled:\n            response.write(\'\\n              <a class="dropdown-item" href="\', escape=False)\n            response.write(URL(\'default\',\'user/change_password\'))\n            response.write(\'">\', escape=False)\n            response.write(T(\'Change Password\'))\n            response.write(\'</a>\\n              \', escape=False)\n            pass\n        response.write(\'\\n              <a class="dropdown-item" href="\', escape=False)\n        response.write(URL(\'default\',\'user/logout\'))\n        response.write(\'">\', escape=False)\n        response.write(T(\'Logout\'))\n        response.write(\'</a>\\n              \', escape=False)\n    else:\n        response.write(\'\\n              <a class="dropdown-item" href="\', escape=False)\n        response.write(URL(\'default\',\'user/login\'))\n        response.write(\'">\', escape=False)\n        response.write(T(\'Login\'))\n        response.write(\'</a>\\n              \', escape=False)\n        if \'register\' not in auth.settings.actions_disabled:\n            response.write(\'\\n              <a class="dropdown-item" href="\', escape=False)\n            response.write(URL(\'default\',\'user/register\'))\n            response.write(\'">\', escape=False)\n            response.write(T(\'Sign up\'))\n            response.write(\'</a>\\n              \', escape=False)\n            pass\n        response.write(\'\\n              \', escape=False)\n        if \'retrieve_password\' not in auth.settings.actions_disabled:\n            response.write(\'\\n              <a class="dropdown-item" href="\', escape=False)\n            response.write(URL(\'default\',\'user/retrieve_password\'))\n            response.write(\'">\', escape=False)\n            response.write(T(\'Lost Password\'))\n            response.write(\'</a>\\n              \', escape=False)\n            pass\n        response.write(\'\\n              \', escape=False)\n        pass\n    response.write(\'\\n            </div>\\n          </li>\\n        </ul>\\n        \', escape=False)\n    pass\nresponse.write(\'\\n      </div>\\n    </nav>\\n\\n    <!-- Masthead ===================================== -->\\n    \', escape=False)\nresponse.write(\'\\n<header class="header container-fluid d-none d-print-block">\\n     <div class="row">\\n        <div class="col-md-12">\\n          <div class="copyright pull-left">Aluminum System</div>\\n          <div id="poweredBy" class="pull-right">\\n            Gest\\xc3\\xa3o de vendas e cobran\\xc3\\xa7as artefatos de aluminio\\n            \\n          </div>\\n        </div>\\n      </div>\\n</header>\\n    \', escape=False)\nresponse.write(\'\\n    <!-- Main ========================================= -->\\n    <!-- Begin page content -->\\n    <div class="container-fluid main-container py-5">\\n      \', escape=False)\nresponse.write(\'\\n\\n\', escape=False)\ntotalcaderno=0\nresponse.write(\'\\n\', escape=False)\ntotalprazo=0\nresponse.write(\'\\n\', escape=False)\ntotalfichas=0\nresponse.write(\'\\n\', escape=False)\ntotalentrada=0\nresponse.write(\'\\n\', escape=False)\ntotaldevolucao=0\nresponse.write(\'\\n\', escape=False)\nfichas_devolvidas=0\nresponse.write(\'\\n\\n\', escape=False)\ncaderno=0\nresponse.write(\'\\n\', escape=False)\nprazo=0\nresponse.write(\'\\n\', escape=False)\nfichas=0\nresponse.write(\'\\n\', escape=False)\nentrada=0\nresponse.write(\'\\n\', escape=False)\ndevolucao=0\nresponse.write(\'\\n        <div class="row">\\n        <div class="col-md-12">\\n          <h5 class="">Lista de Vendas ( \', escape=False)\nresponse.write(vendedor.nome.replace("cfrd",""))\nresponse.write(\' )</h5>\\n        </div>\\n      </div>\\n    <div class="row">\\n        <div class="col-md-6">\\n            <a class="btn btn-link" href="\', escape=False)\nresponse.write(URL(\'index\', args=projeto.id))\nresponse.write(\'" style="color:#3b5998"><i class="fa fa-fw fa-1x py-1 fa-arrow-left"></i> Voltar</a>\\n          \', escape=False)\nif not projeto.venda_finalizada:\n    response.write(\'\\n          \', escape=False)\n    if not \'cfrd\' in vendedor.nome:\n        response.write(\'\\n            <a class="btn btn-link" href="\', escape=False)\n        response.write(URL(\'alterar_vendedor\', args=vendedor.id))\n        response.write(\'" style="color:#3b5998"><i class="fa fa-fw fa-1x py-1 fa-cog"></i> Alterar dados do Vendedor</a>\\n          \', escape=False)\n        pass\n    response.write(\'\\n          \\n          \', escape=False)\n    if (usuario.id==11)or(usuario.id==1):\n        response.write(\'\\n                  <td id="noprint" class="text-center">\\n                    \', escape=False)\n        if \'cfrd\' in vendedor.nome:\n            response.write(\'\\n                    <a class="btn btn-link" style="color:#55acee"  href="\', escape=False)\n            response.write(URL(\'conferir\', args=vendedor.id))\n            response.write(\'"><i class="fa fa-fw fa-1x py-1 fa-check" ></i> Bloqueado </a>\\n                    \', escape=False)\n        else:\n            response.write(\'\\n                            <a class="btn btn-link" href="\', escape=False)\n            response.write(URL(\'conferir\', args=vendedor.id))\n            response.write(\'" style="color:#dd4b39"><i class="fa fa-fw fa-1x py-1 fa-square-o"></i> Desbloqueado </a>\\n                    \', escape=False)\n            pass\n        response.write(\'\\n                        </td>\\n                  \', escape=False)\n        pass\n    response.write(\'\\n                  \', escape=False)\n    pass\nresponse.write(\'\\n        </div>\\n    </div>\\n\\n            \', escape=False)\nfor row1 in rows_sub:\n    response.write(\'\\n            <hr class="border bg-danger" >\\n\\n \', escape=False)\n    if (not projeto.venda_finalizada):\n        response.write(\'\\n\', escape=False)\n        if (not row1.cobranca_iniciada):\n            response.write(\'\\n\\n                \', escape=False)\n            if (usuario.id!=2324):\n                response.write(\'\\n<div class="row">\\n    <div class="col-md-6">\\n        <a class="btn btn-link" href="\', escape=False)\n                response.write(URL(\'inserir_venda\', args=[vendedor.id,row1.id]))\n                response.write(\'" style="color:#3b5998" ><i class="fa fa-fw fa-1x py-1 fa-plus"></i> Adicionar venda na rota de \', escape=False)\n                response.write(row1.primeira_cidade)\n                response.write(\'</a>\\n    </div>\\n</div>\\n\', escape=False)\n                pass\n            pass\n        pass\n    response.write(\'\\n\\n          <h5 class="">Lista de Vendas ( \', escape=False)\n    response.write(vendedor.nome.replace("cfrd",""))\n    response.write(\' ) na rota de \', escape=False)\n    response.write(row1.primeira_cidade)\n    response.write(\'</h5>\\n            <div class="table-responsive">\\n            <table class="table table-striped table-borderless">\\n            \', escape=False)\n    a=0\n    response.write(\'\\n                    <thead class="thead-dark">\\n                        <tr>\\n                            <th>#</th>\\n                            <th>Data</th>\\n                            <th>V.Prazo</th>\\n                            <th>Fichas</th>\\n                            <th>Caderno</th>\\n                            <th>Entrada</th>\\n                            <th>Ficha.D</th>\\n                            <th>V. Devolvido</th>\\n                        </tr>\\n                    </thead>\\n                        <tbody>\\n                            \', escape=False)\n    acaderno=0\n    response.write(\'\\n                            \', escape=False)\n    aprazo=0\n    response.write(\'\\n                            \', escape=False)\n    afichas=0\n    response.write(\'\\n                            \', escape=False)\n    afichas_devolvidas=0\n    response.write(\'\\n                            \', escape=False)\n    aentrada=0\n    response.write(\'\\n                            \', escape=False)\n    adevolucao=0\n    response.write(\'\\n                        \', escape=False)\n    for row in rows_vend:\n        response.write(\'\\n                            \', escape=False)\n        if (vendedor.id==234) and (row.sub_venda==111) and (not row.data_venda.day>4) and (row.data_venda.month==7):\n            response.write(\'\\n                                \', escape=False)\n            row.sub_venda=113\n            response.write(\'\\n                                \', escape=False)\n            row.update_record()\n            response.write(\'\\n                            \', escape=False)\n            pass\n        response.write(\'\\n                        \', escape=False)\n        if row.sub_venda == row1.id:\n            response.write(\'\\n                            <tr>\\n                                \', escape=False)\n            a+=1\n            response.write(\'\\n\\n                                \', escape=False)\n            row.venda_praso=row.venda_praso-row.valor_devolvido\n            response.write(\'\\n                                \', escape=False)\n            row.quant_fichas=row.quant_fichas-row.quant_fichas_devolvidas\n            response.write(\'\\n                                \', escape=False)\n            caderno+=row.vale_caderno\n            response.write(\'\\n                                \', escape=False)\n            prazo+=row.venda_praso\n            response.write(\'\\n                                \', escape=False)\n            fichas+=row.quant_fichas\n            response.write(\'\\n                                \', escape=False)\n            fichas_devolvidas+=row.quant_fichas_devolvidas\n            response.write(\'\\n                                \', escape=False)\n            entrada+=row.entradas_venda\n            response.write(\'\\n                                \', escape=False)\n            devolucao+=row.valor_devolvido\n            response.write(\'\\n\\n                                \', escape=False)\n            acaderno+=row.vale_caderno\n            response.write(\'\\n                                \', escape=False)\n            aprazo+=row.venda_praso\n            response.write(\'\\n                                \', escape=False)\n            afichas+=row.quant_fichas\n            response.write(\'\\n                                \', escape=False)\n            afichas_devolvidas+=row.quant_fichas_devolvidas\n            response.write(\'\\n                                \', escape=False)\n            aentrada+=row.entradas_venda\n            response.write(\'\\n                                \', escape=False)\n            adevolucao+=row.valor_devolvido\n            response.write(\'\\n                                <td>\', escape=False)\n            response.write(a)\n            response.write(\'</td>\\n                                <td>\\n                                \', escape=False)\n            if not projeto.venda_finalizada:\n                response.write(\'\\n                                  \', escape=False)\n                if (not row1.cobranca_iniciada):\n                    response.write(\'\\n                                  <a href="\', escape=False)\n                    response.write(URL(\'alterar_venda\', args=row.id))\n                    response.write(\'">\\n                                    \', escape=False)\n                    response.write(row.data_venda.strftime(\'%d/%m/%Y\'))\n                    response.write(\'\\n                                  </a>\\n                                    \', escape=False)\n                else:\n                    response.write(\'\\n                  \', escape=False)\n                    response.write(row.data_venda.strftime(\'%d/%m/%Y\'))\n                    response.write(\'\\n                                    \', escape=False)\n                    pass\n                response.write(\'\\n                                  \', escape=False)\n            else:\n                response.write(\'\\n                                  \', escape=False)\n                response.write(row.data_venda.strftime(\'%d/%m/%Y\'))\n                response.write(\'\\n                                  \', escape=False)\n                pass\n            response.write(\'\\n\\n                                </td>\\n                                <td>R$ \', escape=False)\n            response.write("{:,}".format(round(row.venda_praso,1)).replace(",","."))\n            response.write(\'0</td>\\n                                <td>\', escape=False)\n            response.write(row.quant_fichas)\n            response.write(\'</td>\\n                                <td>R$ \', escape=False)\n            response.write("{:,}".format(round(row.vale_caderno,1)).replace(",","."))\n            response.write(\'0</td>\\n                                <td>R$ \', escape=False)\n            response.write("{:,}".format(round(row.entradas_venda,1)).replace(",","."))\n            response.write(\'0</td>\\n                                <td>\', escape=False)\n            response.write(row.quant_fichas_devolvidas)\n            response.write(\'</td>\\n                                <td>R$ \', escape=False)\n            response.write("{:,}".format(round(row.valor_devolvido,1)).replace(",","."))\n            response.write(\'0</td>\\n                              \', escape=False)\n            if auth.user.id==1:\n                response.write(\'\\n\', escape=False)\n                if (not row1.cobranca_iniciada):\n                    response.write(\'\\n                              <td><a class="btn btn-link" href="\', escape=False)\n                    response.write(URL(\'trocar\', args=row.id))\n                    response.write(\'">Trocar</a></td>\\n                              \', escape=False)\n                    pass\n                response.write(\'\\n                              \', escape=False)\n                pass\n            response.write(\'\\n                            </tr>\\n                            \', escape=False)\n            pass\n        response.write(\'\\n                            \', escape=False)\n        pass\n    response.write(\'\\n                            <th>#</th>\\n                                        <th>Total</th>\\n                                        <th>R$ \', escape=False)\n    response.write("{:,}".format(round(aprazo,1)).replace(",","."))\n    response.write(\'0</th>\\n                                        <th>\', escape=False)\n    response.write(afichas)\n    response.write(\'</th>\\n                                        <th>R$ \', escape=False)\n    response.write("{:,}".format(round(acaderno,1)).replace(",","."))\n    response.write(\'0</th>\\n                                        <th>R$ \', escape=False)\n    response.write("{:,}".format(round(aentrada,1)).replace(",","."))\n    response.write(\'0</th>\\n                                        <th>  \', escape=False)\n    response.write(afichas_devolvidas)\n    response.write(\'</th>\\n                                        <th>R$ \', escape=False)\n    response.write("{:,}".format(round(adevolucao,1)).replace(",","."))\n    response.write(\'0</th>\\n                            </tbody>\\n\\n                    </table>\\n\\n\\n                \', escape=False)\n    totalcaderno+=caderno\n    response.write(\'\\n                \', escape=False)\n    totalprazo+=prazo\n    response.write(\'\\n                \', escape=False)\n    totalfichas+=fichas\n    response.write(\'\\n                \', escape=False)\n    totalentrada+=entrada\n    response.write(\'\\n                \', escape=False)\n    totaldevolucao+=devolucao\n    response.write(\'\\n                </div>\\n            \', escape=False)\n    pass\nresponse.write(\'\\n                <hr>\\n                <div class="table-responsive">\\n\\n                 <table class="table table-bordered table-sm table-striped">\\n\\n                                <thead>\\n                                     <tr>\\n                            <th>V.Prazo</th>\\n                            <th>Fichas</th>\\n                            <th>Caderno</th>\\n                            <th>Entrada</th>\\n                            <th>Ficha.D</th>\\n                            <th>V. Devolvido</th>\\n                        </tr>\\n                                     </thead>\\n                                <tbody>\\n                                    <tr>\\n                                        <th>R$ \', escape=False)\nresponse.write("{:,}".format(round(prazo,1)).replace(",","."))\nresponse.write(\'0</th>\\n                                        <th>\', escape=False)\nresponse.write(fichas)\nresponse.write(\'</th>\\n                                        <th>R$ \', escape=False)\nresponse.write("{:,}".format(round(caderno,1)).replace(",","."))\nresponse.write(\'0</th>\\n                                        <th>R$ \', escape=False)\nresponse.write("{:,}".format(round(entrada,1)).replace(",","."))\nresponse.write(\'0</th>\\n                                        <th>  \', escape=False)\nresponse.write(fichas_devolvidas)\nresponse.write(\'</th>\\n                                        <th>R$ \', escape=False)\nresponse.write("{:,}".format(round(devolucao,1)).replace(",","."))\nresponse.write(\'0</th>\\n                                    </tr>\\n                                </tbody>\\n                            </table>\\n                </div>\\n<hr>\\n<div class="row">\\n        <div class="col-md-6">\\n          <ul class="list-group">\\n            \', escape=False)\ncomissao=row.total_vendas\nresponse.write(\'\\n                          \', escape=False)\nif comissao > 0:\n    response.write(\'\\n                          \', escape=False)\n    comissao=row.total_vendas*row.comissao_venda/100\n    response.write(\'\\n            <li class="list-group-item d-flex justify-content-between align-items-center">\\n              Venda R$ \', escape=False)\n    response.write("{:,.2f}".format(round(prazo,1)).replace(",","#").replace(".",",").replace("#","."))\n    response.write(\'\\n            </li>\\n            \', escape=False)\n    saldo=comissao-row.vale_saida-row.total_vale_caderno\n    response.write(\'\\n            <li class="list-group-item d-flex justify-content-between align-items-center">\\n              Comiss\\xc3\\xa3o R$ \', escape=False)\n    response.write("{:,.2f}".format(round(comissao,1)).replace(",","#").replace(".",",").replace("#","."))\n    response.write(\'\\n            </li>\\n            <li class="list-group-item d-flex justify-content-between align-items-center">\\n              Vale R$ \', escape=False)\n    response.write("{:,.2f}".format(round(vendedor.total_vendas,1)).replace(",","#").replace(".",",").replace("#","."))\n    response.write(\'\\n            </li>\\n            <li class="list-group-item d-flex justify-content-between align-items-center">\\n              Caderno R$ \', escape=False)\n    response.write("{:,.2f}".format(round(caderno,1)).replace(",","#").replace(".",",").replace("#","."))\n    response.write(\'\\n            </li>\\n            \', escape=False)\n    if saldo>0:\n        response.write(\'\\n            <li class="list-group-item d-flex justify-content-between align-items-center">\\n              Saldo R$ \', escape=False)\n        response.write("{:,.2f}".format(round(saldo,1)).replace(",","#").replace(".",",").replace("#","."))\n        response.write(\'\\n            </li>\\n            \', escape=False)\n    else:\n        response.write(\'\\n            <li class="list-group-item d-flex justify-content-between align-items-center">\\n              D\\xc3\\xadvida R$ \', escape=False)\n        response.write("{:,.2f}".format(round(saldo,1)).replace(",","#").replace(".",",").replace("#","."))\n        response.write(\'\\n            </li>\\n            \', escape=False)\n        pass\n    response.write(\'\\n          </ul>\\n        </div>\\n        <div class="col-md-6">\\n          <div class="card">\\n            <div class="card-header">Projeto</div>\\n            <div class="card-body">\\n              <h4>Vendedor</h4>\\n              <p>Some quick example text to build on the card title .</p>\\n            </div>\\n          </div>\\n        </div>\\n      </div>\\n\', escape=False)\n    vendedor.total_entradas=entrada\n    response.write(\'\\n\', escape=False)\n    vendedor.total_fichas=fichas\n    response.write(\'\\n\', escape=False)\n    vendedor.total_vale_caderno=caderno\n    response.write(\'\\n\', escape=False)\n    vendedor.total_vendas=prazo\n    response.write(\'\\n\', escape=False)\n    vendedor.update_record()\n    response.write(\'\\n\', escape=False)\n    response.write(\'\\n      \', escape=False)\n    response.write(response.toolbar() if response.show_toolbar else \'\')\n    response.write(\'\\n    </div>\\n    \', escape=False)\n    response.write(\' <!-- this is default footer -->\\n    <footer id="noprint" class="footer container-fluid ">\\n      <div class="row">\\n        <div class="col-md-12">\\n          <div class="copyright pull-left">\', escape=False)\n    response.write(T(\'Copyright\'))\n    response.write(\' &#169; \', escape=False)\n    response.write(request.now.year)\n    response.write(\'</div>\\n          <div id="poweredBy" class="pull-right">\\n              Suporte <a href="https://api.whatsapp.com/send?phone=5588981126816">(88)98112-6816</a>\\n            </div>\\n        </div>\\n      </div>\\n    </footer>\\n <footer class="footer container-fluid d-none d-print-block">\\n      <div class="row">\\n        <div class="col-md-12">\\n          <div class="copyright pull-left">Suporte - (88)98112-6816</div>\\n          <div id="poweredBy" class="pull-right">\\n             \', escape=False)\n    if auth.user:\n        response.write(auth.user.first_name)\n        response.write(\' \', escape=False)\n        response.write(auth.user.last_name)\n    else:\n        response.write(\'Aluminum System\', escape=False)\n        pass\n    response.write(\'\\n          </div>\\n        </div>\\n      </div>\\n    </footer>\\n    \', escape=False)\n    response.write(\'\\n    <!-- The javascript =============================== -->\\n    <script src="\', escape=False)\n    response.write(URL(\'static\',\'js/bootstrap.bundle.min.js\'))\n    response.write(\'"></script>\\n    <script src="\', escape=False)\n    response.write(URL(\'static\',\'js/web2py-bootstrap4.js\'))\n    response.write(\'"></script>\\n    \', escape=False)\n    response.write(\'\\n    \', escape=False)\n    if response.google_analytics_id:\n        response.write(\'\\n    <!-- Analytics ==================================== -->\\n    <script src="\', escape=False)\n        response.write(URL(\'static\',\'js/analytics.min.js\'))\n        response.write(\'"></script>\\n    <script type="text/javascript">\\n      analytics.initialize({\\n      \\\'Google Analytics\\\':{trackingId:\\\'\', escape=False)\n        response.write(response.google_analytics_id)\n        response.write("\'}\\n      });\\n    </script>\\n    ", escape=False)\n        pass\n    response.write(\'\\n  </body>\\n</html>\\n\', escape=False)'
p7
sS'snapshot'
p8
(dp9
sS'traceback'
p10
S'None\n'
p11
s.