(dp1
S'output'
p2
S"<type 'exceptions.AttributeError'> 'NoneType' object has no attribute 'descricao'"
p3
sS'layer'
p4
S'/home/rogoberto/web2py/applications/aluminum/views/acs_relatorio/prestacao_venda.html'
p5
sS'code'
p6
S'response.write(\'<!DOCTYPE html>\\n<!--[if (gt IE 9)|!(IE)]><!--> <html class="no-js" lang="\', escape=False)\nresponse.write(T.accepted_language or \'en\')\nresponse.write(\'"> <!--<![endif]-->\\n  <head>\\n    <meta charset="utf-8">\\n    <!-- www.phpied.com/conditional-comments-block-downloads/ -->\\n    <!-- Always force latest IE rendering engine\\n         (even in intranet) & Chrome Frame\\n         Remove this if you use the .htaccess -->\\n    <meta http-equiv="X-UA-Compatible" content="IE=edge\', escape=False)\nresponse.write(not request.is_local and \',chrome=1\' or \'\')\nresponse.write(\'">\\n    <!--  Mobile Viewport Fix\\n          j.mp/mobileviewport & davidbcalhoun.com/2010/viewport-metatag\\n          device-width: Occupy full width of the screen in its current orientation\\n          initial-scale = 1.0 retains dimensions instead of zooming out if page height > device height\\n          user-scalable = yes allows the user to zoom in -->\\n    <meta name="viewport" content="width=device-width, initial-scale=1.0">\\n       <title>Aluminum System</title>\\n      <meta name="author" content="Arsenal System">\\n<!--       <meta name="description" content="cr\\xc3\\xa9diario de aluminio, controle seus custos, despesas vendas e cobran\\xc3\\xa7as"> -->\\n<!--       <meta name="keywords" content="Controle Cheque, pagamentos, Sistema"> -->\\n<!--       <meta name="author" content="Arsenal System"> -->\\n      <meta name="description" content="Gerenciamento controle de crediario">\\n    <!-- http://dev.w3.org/html5/markup/meta.name.html -->\\n    <meta name="application-name" content="sistema credi\\xc3\\xa1rio panela">\\n    <!-- Speaking of Google, don\\\'t forget to set your site up:\\n         http://google.com/webmasters -->\\n    <meta name="google-site-verification" content="peneleiro Juazeiro, panela credi\\xc3\\xa1rio, sistema panela">\\n    <!-- include stylesheets -->\\n    <link rel="stylesheet" href="https://cdnjs.cloudflare.com/ajax/libs/font-awesome/4.7.0/css/font-awesome.min.css"/>\\n    <link rel="stylesheet" href="\', escape=False)\nresponse.write(URL(\'static\',\'css/bootstrap.min.css\'))\nresponse.write(\'"/>\\n    <link rel="stylesheet" href="\', escape=False)\nresponse.write(URL(\'static\',\'css/web2py-bootstrap4.css\'))\nresponse.write(\'"/>\\n    <link rel="shortcut icon" href="\', escape=False)\nresponse.write(URL(\'static\',\'images/ico.ico\'))\nresponse.write(\'" type="image/x-icon">\\n    <link rel="apple-touch-icon" href="\', escape=False)\nresponse.write(URL(\'static\',\'images/ico.png\'))\nresponse.write(\'">\\n    <!-- All JavaScript at the bottom, except for Modernizr which enables\\n         HTML5 elements & feature detects -->\\n    <script src="\', escape=False)\nresponse.write(URL(\'static\',\'js/modernizr-2.8.3.min.js\'))\nresponse.write(\'"></script>\\n    <!-- Favicons -->\\n    \', escape=False)\nresponse.write(\'<script type="text/javascript"><!--\\n    // These variables are used by the web2py_ajax_init function in web2py_ajax.js (which is loaded below).\\n    \', escape=False)\nresponse.write(ASSIGNJS(\nw2p_ajax_confirm_message = T(\'Are you sure you want to delete this object?\'),\nw2p_ajax_disable_with_message = T(\'Working...\'),\nw2p_ajax_date_format = T(\'%Y-%m-%d\'),\nw2p_ajax_datetime_format = T(\'%Y-%m-%d %H:%M:%S\'),\najax_error_500 = T.M(\'An error occured, please [[reload %s]] the page\') % URL(args=request.args, vars=request.get_vars)\n))\nresponse.write(\'\\n    //--></script>\\n\', escape=False)\nresponse.files.insert(0,URL(\'static\',\'js/jquery.js\'))\nresponse.files.insert(1,URL(\'static\',\'css/calendar.css\'))\nresponse.files.insert(2,URL(\'static\',\'js/calendar.js\'))\nresponse.files.insert(3,URL(\'static\',\'js/web2py.js\'))\nresponse.include_meta()\nresponse.include_files()\nresponse.write(\'\\n\', escape=False)\nresponse.write(\' <!-- this includes jquery.js, calendar.js/.css and web2py.js -->\\n      \', escape=False)\nif auth.user:\n    response.write(\'\\n    \', escape=False)\n    if auth.user.first_name=="Rogoberto":\n        response.write(\'\\n   \\n    \', escape=False)\n    elif auth.user.first_name=="Meme":\n        response.write(\'\\n    <link rel="stylesheet" href="https://bootswatch.com/4/materia/bootstrap.css"> \\n    \', escape=False)\n        pass\n    response.write(\'\\n    \', escape=False)\n    pass\nresponse.write(\'\\n    \', escape=False)\nresponse.write(\'\\n  \\n  </head>\\n  <body>\\n      \\n        <style  type="text/css">\\n    @media print{\\n        .btn{\\n             display: none;\\n        }\\n        #noprint { display:none; } \\n      a:link{font:15px "verdana"; color:#8B4513; text-decoration:none;}\\n\\na:hover{font:20px "verdana"; color:black; text-decoration:underline;}\\n    }\\n      </style>\\n    <div class="w2p_flash alert alert-dismissable">\', escape=False)\nresponse.write(response.flash or \'\')\nresponse.write(\'</div>\\n    <!-- Navbar ======================================= -->\\n    <nav class="navbar navbar-light navbar-expand-md bg-faded justify-content-center">\\n        <a class="navbar-brand" href="https://rogoberto.pythonanywhere.com/aluminum/#acesso">Aluminum</a>\\n       <button class="navbar-toggler" type="button" data-toggle="collapse" data-target="#navbarNavDropdown" aria-controls="navbarNavDropdown" aria-expanded="false" aria-label="Toggle navigation">\\n         <span class="navbar-toggler-icon"></span>\\n       </button>\\n       <div class="navbar-collapse collapse w-100" id="navbarNavDropdown">\\n         <ul class="navbar-nav w-100 justify-content-center">\\n          \', escape=False)\nfor _item in response.menu or []:\n    response.write(\'\\n          \', escape=False)\n    if (not len(_item)>4) or not _item[3]:\n        response.write(\'\\n          <li class="nav-item \', escape=False)\n        if _item[1]:\n            response.write(\'active\', escape=False)\n            pass\n        response.write(\'">\\n            <a class="nav-link" href="\', escape=False)\n        response.write(_item[2])\n        response.write(\'">\', escape=False)\n        response.write(_item[0])\n        response.write(\'</a>\\n          </li>\\n          \', escape=False)\n    else:\n        response.write(\'\\n          <li class="nav-item dropdown">\\n            <a class="nav-link dropdown-toggle" href="\', escape=False)\n        response.write(_item[2])\n        response.write(\'" data-toggle="dropdown" aria-haspopup="true" aria-expanded="false">\', escape=False)\n        response.write(_item[0])\n        response.write(\'</a>\\n            <div class="dropdown-menu">\\n              \', escape=False)\n        for _subitem in _item[3]:\n            response.write(\'\\n              <a class="dropdown-item" href="\', escape=False)\n            response.write(_subitem[2])\n            response.write(\'">\', escape=False)\n            response.write(_subitem[0])\n            response.write(\'</a>\\n              \', escape=False)\n            pass\n        response.write(\'\\n            </div>\\n          </li>\\n          \', escape=False)\n        pass\n    response.write(\'\\n          \', escape=False)\n    pass\nresponse.write(\'\\n        </ul>\\n\\n        \', escape=False)\nif \'auth\' in globals():\n    response.write(\'\\n        <ul class="nav navbar-nav ml-auto w-100 justify-content-end">\\n          <li class="nav-item dropdown">\\n            <a class="nav-link dropdown-toggle" href="#" data-toggle="dropdown" aria-haspopup="true" aria-expanded="false">\\n              \', escape=False)\n    if auth.user:\n        response.write(auth.user.first_name)\n    else:\n        response.write(\'LOGIN\', escape=False)\n        pass\n    response.write(\'\\n            </a>\\n            <div class="dropdown-menu dropdown-menu-right">\\n              \', escape=False)\n    if auth.user:\n        response.write(\'\\n              <a class="dropdown-item" href="\', escape=False)\n        response.write(URL(\'default\',\'user/profile\'))\n        response.write(\'">\', escape=False)\n        response.write(T(\'Profile\'))\n        response.write(\'</a>\\n              \', escape=False)\n        if \'change_password\' not in auth.settings.actions_disabled:\n            response.write(\'\\n              <a class="dropdown-item" href="\', escape=False)\n            response.write(URL(\'default\',\'user/change_password\'))\n            response.write(\'">\', escape=False)\n            response.write(T(\'Change Password\'))\n            response.write(\'</a>\\n              \', escape=False)\n            pass\n        response.write(\'\\n              <a class="dropdown-item" href="\', escape=False)\n        response.write(URL(\'default\',\'user/logout\'))\n        response.write(\'">\', escape=False)\n        response.write(T(\'Logout\'))\n        response.write(\'</a>\\n              \', escape=False)\n    else:\n        response.write(\'\\n              <a class="dropdown-item" href="\', escape=False)\n        response.write(URL(\'default\',\'user/login\'))\n        response.write(\'">\', escape=False)\n        response.write(T(\'Login\'))\n        response.write(\'</a>\\n              \', escape=False)\n        if \'register\' not in auth.settings.actions_disabled:\n            response.write(\'\\n              <a class="dropdown-item" href="\', escape=False)\n            response.write(URL(\'default\',\'user/register\'))\n            response.write(\'">\', escape=False)\n            response.write(T(\'Sign up\'))\n            response.write(\'</a>\\n              \', escape=False)\n            pass\n        response.write(\'\\n              \', escape=False)\n        if \'retrieve_password\' not in auth.settings.actions_disabled:\n            response.write(\'\\n              <a class="dropdown-item" href="\', escape=False)\n            response.write(URL(\'default\',\'user/retrieve_password\'))\n            response.write(\'">\', escape=False)\n            response.write(T(\'Lost Password\'))\n            response.write(\'</a>\\n              \', escape=False)\n            pass\n        response.write(\'\\n              \', escape=False)\n        pass\n    response.write(\'\\n            </div>\\n          </li>\\n        </ul>\\n        \', escape=False)\n    pass\nresponse.write(\'\\n      </div>\\n    </nav>\\n\\n    <!-- Masthead ===================================== -->\\n    \', escape=False)\nresponse.write(\'\\n<header class="header container-fluid d-none d-print-block">\\n     <div class="row">\\n        <div class="col-md-12">\\n          <div class="copyright pull-left">Aluminum System</div>\\n          <div id="poweredBy" class="pull-right">\\n            Gest\\xc3\\xa3o de vendas e cobran\\xc3\\xa7as artefatos de aluminio\\n            \\n          </div>\\n        </div>\\n      </div>\\n</header>\\n    \', escape=False)\nresponse.write(\'\\n    <!-- Main ========================================= -->\\n    <!-- Begin page content -->\\n    <div class="container-fluid main-container py-5">\\n      \', escape=False)\nresponse.write(\'\\n\\n\\n<div class="py-5" >\\n    <div class="container">\\n        <div class="row">\\n        <div class="col-md-12">\\n          <h5 class="">Presta\\xc3\\xa7\\xc3\\xa3o de Contas ( \', escape=False)\nresponse.write(projeto.descricao)\nresponse.write(\' )</h5>\\n        </div>\\n      </div>\\n      <div class="row">\\n        <div class="col-md-12">\\n          <a class="btn btn-link" href="\', escape=False)\nresponse.write(URL(\'acs_projeto\',\'index\', args=projeto.id))\nresponse.write(\'" style="color:#3b5998"><i class="fa fa-fw fa-1x py-1 fa-arrow-left"></i> Voltar</a>\\n          <a class="btn btn-link" href="\', escape=False)\nresponse.write(URL(\'alterar_ent_said\', args=projeto.id))\nresponse.write(\'" style="color:#3b5998"><i class="fa fa-fw fa-1x py-1 fa-cog"></i> Alterar Dados Principais</a>\\n        </div>\\n      </div>\\n        <div class="row">\\n            <div class="col-md-6">\\n                <p class="d-flex justify-content-between mb-3"> <span><b>Informa\\xc3\\xa7\\xc3\\xb5es Mercadoria</b></span> </p>\\n                <ul class="list-group">\\n                    <li class="list-group-item d-flex justify-content-between">\\n                        <div>\', escape=False)\nvenda_vista=0.0\nresponse.write(\'\\n                            <h6 class="my-0"><b>Total Mercadoria&nbsp;</b></h6> <small class="text-muted">\', escape=False)\nresponse.write(projeto.total_pecas_mercadoria)\nresponse.write(\' Pe\\xc3\\xa7as</small>\\n                        </div> <span class="text-muted">R$ \', escape=False)\nresponse.write("{:,}".format(round(projeto.total_preco_mercadoria)).replace(",","."))\nresponse.write(\'0</span>\\n                    </li>\\n                    \', escape=False)\nvenda_vista=projeto.total_preco_mercadoria\nresponse.write(\'\\n                    <li class="list-group-item d-flex justify-content-between">\\n                        <div>\\n                            <h6 class="my-0"><i class="fa text-primary fa-arrow-right"></i> <b>Total Retorno</b></h6> <small class="text-muted">\', escape=False)\nresponse.write(projeto.total_pecas_retorno)\nresponse.write(\' Pe\\xc3\\xa7as</small>\\n                        </div> <span class="text-muted">R$ \', escape=False)\nresponse.write("{:,}".format(round(projeto.total_preco_retorno)).replace(",","."))\nresponse.write(\'0</span>\\n                    </li>\\n                    \', escape=False)\nvenda_vista-=projeto.total_preco_retorno\nresponse.write(\'\\n                    <li class="list-group-item d-flex justify-content-between">\\n                        <div>\\n                            <h6 class="my-0"><i class="fa text-warning fa-arrow-right"></i> <b>Total Gratifica\\xc3\\xa7\\xc3\\xa3o</b></h6> <small class="text-muted">\', escape=False)\nresponse.write(projeto.total_pecas_gratificacao)\nresponse.write(\' Pe\\xc3\\xa7as</small>\\n                        </div> <span class="text-muted">R$ \', escape=False)\nresponse.write("{:,}".format(round(projeto.total_preco_gratificacao)).replace(",","."))\nresponse.write(\'0</span>\\n                    </li>\\n                    \', escape=False)\nvenda_vista-=projeto.total_preco_gratificacao\nresponse.write(\'\\n                    <li class="list-group-item d-flex justify-content-between">\\n                        <div>\\n                            <h6 class="my-0"><i class="fa text-danger fa-arrow-right"></i> <b>Total Refugo</b></h6> <small class="text-muted">\', escape=False)\nresponse.write(projeto.total_pecas_refugo)\nresponse.write(\' Pe\\xc3\\xa7as</small>\\n                        </div> <span class="text-muted">R$ \', escape=False)\nresponse.write("{:,}".format(round(projeto.total_preco_refugo)).replace(",","."))\nresponse.write(\'0</span>\\n                    </li>\\n                    \', escape=False)\nvenda_vista-=projeto.total_preco_refugo\nresponse.write(\'\\n                    <li class="list-group-item d-flex justify-content-between">\\n                        <div>\\n                            <h6 class="my-0"><b>Total Venda \\xc3\\xa0 Prazo</b></h6> <small class="text-muted">\', escape=False)\nresponse.write(projeto.quant_fichas_venda)\nresponse.write(\' Fichas</small>\\n                        </div> <span class="text-muted">R$ \', escape=False)\nresponse.write("{:,}".format(round(projeto.total_venda_prazo)).replace(",","."))\nresponse.write(\'0</span>\\n                    </li>\\n                    \', escape=False)\nvenda_vista-=projeto.total_venda_prazo\nresponse.write(\'\\n                    <li class="list-group-item d-flex justify-content-between">\\n                        <div>\\n\\n                            <h6 class="my-0"><b>Total Venda \\xc3\\xa0 Vista</b></h6> <small class="text-muted">R$ \', escape=False)\nresponse.write("{:,}".format(round(projeto.total_venda_vista)).replace(",","."))\nresponse.write(\'0</small>\\n                        </div> <span class="text-muted">R$ \', escape=False)\nresponse.write("{:,}".format(round(projeto.total_venda_vista*2)).replace(",","."))\nresponse.write(\'0</span>\\n                    </li>\\n                    \', escape=False)\nvenda_vista-=(projeto.total_venda_vista*2)\nresponse.write(\'\\n                    \', escape=False)\nmedia_pecas=0\nresponse.write(\'\\n                    \', escape=False)\nif (projeto.total_preco_mercadoria!=0) and (projeto.total_pecas_mercadoria!=0):\n    response.write(\'\\n                    \', escape=False)\n    media_pecas=projeto.total_preco_mercadoria/projeto.total_pecas_mercadoria\n    response.write(\'\\n                    \', escape=False)\n    pass\nresponse.write(\'\\n                    \', escape=False)\nif venda_vista!=0:\n    response.write(\'\\n                    <li class="list-group-item d-flex justify-content-between">\\n                        \\n                            \', escape=False)\n    if venda_vista>0 and media_pecas>0:\n        response.write(\'\\n                            \', escape=False)\n        media_pecas=venda_vista/media_pecas\n        response.write(\'\\n                            \', escape=False)\n        pass\n    response.write(\'\\n                            \', escape=False)\n    if venda_vista>0:\n        response.write(\'\\n                        <div class="text-danger">\\n                            <h6 class="my-0"><b>Difer\\xc3\\xaan\\xc3\\xa7a Mercadoria</b></h6> \\n                            <small class="text-muted">M\\xc3\\xa9dia de \', escape=False)\n        response.write("{:,}".format(round(media_pecas,0)).replace(".0",""))\n        response.write(\' Pe\\xc3\\xa7as Faltaram</small>\\n                        </div> <span class="text-muted">R$ \', escape=False)\n        response.write("{:,}".format(round(venda_vista)).replace(",","."))\n        response.write(\'0</span>\\n                        \\n                        \', escape=False)\n    else:\n        response.write(\'\\n                        \\n                            <div class="text-danger">\\n                            <h6 class="my-0 text-danger"><b>Erro!! </b><span class="text-dark">(R$ \', escape=False)\n        response.write("{:,}".format(round((venda_vista-projeto.total_preco_mercadoria)*-1)).replace(",","."))\n        response.write(\'0)</span></h6> \\n                            <small class="text-danger">Apresentando mais mercadoria do que levou</small>\\n                        </div> \\n                        <h6 class="text-danger">R$ \', escape=False)\n        response.write("{:,}".format(round(venda_vista)).replace(",","."))\n        response.write(\'0</h6>\\n                        \\n                        \', escape=False)\n        pass\n    response.write(\'\\n                    </li>\\n                    \', escape=False)\n    pass\nresponse.write(\'\\n                    <br>\\n                    <p class="d-flex justify-content-between mb-3"> <span><b>Dinheiro da Viagem</b></span> </p>\\n                    <li class="list-group-item d-flex justify-content-between bg-light">\\n                        <div class="text-success">\\n                            <h6 class="my-0"><b>Venda \\xc3\\xa0 Vista</b></h6> <small>R$ \', escape=False)\nresponse.write("{:,}".format(round(projeto.total_venda_vista*2)).replace(",","."))\nresponse.write(\'0 Mercadoria&nbsp;</small>\\n\\n                        </div> <span class="text-success">R$ \', escape=False)\nresponse.write("{:,}".format(round(projeto.total_venda_vista)).replace(",","."))\nresponse.write(\'0</span>\\n                    </li>\\n\\n                    <li class="list-group-item d-flex justify-content-between">\\n                        <div>\', escape=False)\nvenda_vista=projeto.total_venda_vista+projeto.adiantamento\nresponse.write(\'\\n                            <h6 class="my-0">Adiantamento</h6>\\n                        </div> <span class="text-muted">R$ \', escape=False)\nresponse.write("{:,}".format(round(projeto.adiantamento)).replace(",","."))\nresponse.write(\'0</span>\\n                    </li>\\n                    \', escape=False)\nif projeto.total_entradas_venda>0:\n    response.write(\'\\n                    <li class="list-group-item d-flex justify-content-between">\\n                        <div>\', escape=False)\n    venda_vista+=projeto.total_entradas_venda\n    response.write(\'\\n                            <h6 class="my-0">Entradas da Venda</h6>\\n                        </div> <span class="text-muted">R$ \', escape=False)\n    response.write("{:,}".format(round(projeto.total_entradas_venda)).replace(",","."))\n    response.write(\'0</span>\\n                    </li>\\n                    \', escape=False)\n    pass\nresponse.write(\'\\n                    \', escape=False)\nif projeto.total_acrescentado_dinheiro>0:\n    response.write(\'\\n                    <li class="list-group-item d-flex justify-content-between">\\n                        <div>\', escape=False)\n    venda_vista+=projeto.total_acrescentado_dinheiro\n    response.write(\'\\n                            <h6 class="my-0">Dinheiro acrescentado</h6>\\n                        </div> <span class="text-muted">R$ \', escape=False)\n    response.write("{:,}".format(round(projeto.total_acrescentado_dinheiro)).replace(",","."))\n    response.write(\'0</span>\\n                    </li>\\n                    \', escape=False)\n    pass\nresponse.write(\'\\n                    <li class="list-group-item d-flex justify-content-between"> <span><b>Total do Dinheiro da Viagem</b></span> <b contenteditable="true">R$ \', escape=False)\nresponse.write("{:,}".format(round(venda_vista)).replace(",","."))\nresponse.write(\'0</b> </li>\\n                </ul>\\n                <br>\\n                <p class="d-flex justify-content-between mb-3"> <span><b>Valor Apresentado</b></span> </p>\\n                <ul class="list-group">\\n                    <li class="list-group-item d-flex justify-content-between">\\n                        <div>\\n                            \', escape=False)\npercent=0\nresponse.write(\'\\n                            \', escape=False)\nif projeto.total_despesa_venda>0 and projeto.total_venda_prazo>0:\n    response.write(\'\\n                            \', escape=False)\n    percent=projeto.total_despesa_venda/projeto.total_venda_prazo*100\n    response.write(\'\\n                            \', escape=False)\n    pass\nresponse.write(\'\\n                            <h6 class="my-0 text-danger"><b>Total Despesa</b></h6><b> <small class="text-danger">\', escape=False)\nresponse.write("{:,}".format(round(percent,1)).replace(",","."))\nresponse.write(\'%</small>\\n                            </b>\', escape=False)\ndinheiro_presente=projeto.total_despesa_venda\nresponse.write(\'\\n                        </div><b> <span class="text-danger">R$ \', escape=False)\nresponse.write("{:,}".format(round(projeto.total_despesa_venda,1)).replace(",","."))\nresponse.write(\'0</span></b>\\n                    </li>\\n                    <li class="list-group-item d-flex justify-content-between">\\n                        <div>\\n                            <h6 class="my-0">Vale da Viagem Vendedor</h6> \\n                        </div><b> <span class="text-muted">R$ \', escape=False)\nresponse.write("{:,}".format(round(projeto.total_caderno_vendedor)).replace(",","."))\nresponse.write(\'0</span></b>\\n                </li>\', escape=False)\ndinheiro_presente+=projeto.total_caderno_vendedor\nresponse.write(\'\\n        \\n    <li class="list-group-item d-flex justify-content-between">\\n        <div>\\n            <h6 class="my-0">Vale da Viagem Funcionario</h6> \\n        </div> <span class="text-muted">R$ \', escape=False)\nresponse.write("{:,}".format(round(projeto.total_caderno_funcionario)).replace(",","."))\nresponse.write(\'0</span>\\n</li>\', escape=False)\ndinheiro_presente+=projeto.total_caderno_funcionario\nresponse.write(\'\\n\\n<li class="list-group-item d-flex justify-content-between">\\n    <div>\\n        <h6 class="my-0">Vale da Viagem Chefe</h6> \\n    </div> <span class="text-muted">R$ \', escape=False)\nresponse.write("{:,}".format(round(projeto.total_caderno_chefe)).replace(",","."))\nresponse.write(\'0</span>\\n</li>\', escape=False)\ndinheiro_presente+=projeto.total_caderno_chefe\nresponse.write(\'\\n\\n\', escape=False)\nif projeto.total_devolucao_dinheiro>0:\n    response.write(\'\\n<li class="list-group-item d-flex justify-content-between">\\n    <div>\\n        \', escape=False)\n    if projeto.empresa==3:\n        response.write(\'\\n                  <h6 class="my-0">Dep\\xc3\\xb3sitos</h6>\\n                    \', escape=False)\n    else:\n        response.write(\'\\n                  <h6 class="my-0">Dinheiro Devolvido</h6>\\n                    \', escape=False)\n        pass\n    response.write(\'\\n    </div> <span class="text-muted">R$ \', escape=False)\n    response.write("{:,}".format(round(projeto.total_devolucao_dinheiro)).replace(",","."))\n    response.write(\'0</span>\\n</li>\', escape=False)\n    dinheiro_presente+=projeto.total_devolucao_dinheiro\n    response.write(\'\\n\', escape=False)\n    pass\nresponse.write(\'\\n    <li class="list-group-item d-flex justify-content-between"> <span><b>Dinheiro Apresentado</b></span> <b contenteditable="true">R$ \', escape=False)\nresponse.write("{:,}".format(round(dinheiro_presente)).replace(",","."))\nresponse.write(\'0</b> </li>\\n\\n\\n<br>\\n\', escape=False)\ndiferencaprest=venda_vista-dinheiro_presente\nresponse.write(\'\\n<li class="list-group-item d-flex justify-content-between bg-light">\\n  \', escape=False)\nif diferencaprest>=0:\n    response.write(\'\\n  <div class="text-success">\\n    <h6 class="my-0">\\n      <b class="text-danger">Difer\\xc3\\xaan\\xc3\\xa7a da Presta\\xc3\\xa7\\xc3\\xa3o</b>\\n    </h6>\\n  </div>\\n  <span class="text-danger">R$ \', escape=False)\n    response.write("{:,}".format(round(diferencaprest)).replace(",","."))\n    response.write(\'0</span>\\n  \', escape=False)\nelse:\n    response.write(\'\\n  <div class="text-success">\\n    <h3 class="my-0">\\n      <b class="text-danger">Esta errado - Sobrando dinheiro</b>\\n    </h3>\\n</div>\\n        \', escape=False)\n    pass\nresponse.write(\'\\n      </li>\\n</ul><br>\\n</div>\\n\\n\\n\\n\\n\\n\\n\\n\\n\\n\\n\\n\\n<div class="col-md-6">\\n    <p class="d-flex justify-content-between mb-3"> <span><b>Saldos e Comiss\\xc3\\xb5es</b></span> </p>\\n    <ul class="list-group">\\n        <li class="list-group-item d-flex justify-content-between">\\n            <div>\', escape=False)\nsaldoq=0\nresponse.write(\'\\n                <h6 class="my-0">Comiss\\xc3\\xa3o Venda \\xc3\\xa0 Prazo</h6> <small class="text-muted">R$ \', escape=False)\nresponse.write("{:,}".format(round(projeto.total_venda_prazo)).replace(",","."))\nresponse.write(\'0 - \', escape=False)\nresponse.write(projeto.comissao_praso)\nresponse.write(\'%</small>\\n                \', escape=False)\ncomissaop=0\nresponse.write(\'\\n                \', escape=False)\nif projeto.total_venda_prazo>0:\n    response.write(\'\\n                \', escape=False)\n    comissaop=projeto.total_venda_prazo*projeto.comissao_praso/100\n    response.write(\'\\n                \', escape=False)\n    pass\nresponse.write(\'\\n            </div> <span class="text-muted">R$ \', escape=False)\nresponse.write("{:,}".format(round(comissaop)).replace(",","."))\nresponse.write(\'0</span>\\n        </li>\', escape=False)\nsaldoq+=comissaop\nresponse.write(\'\\n        \', escape=False)\ncomissaov=0\nresponse.write(\'\\n        \', escape=False)\nif projeto.comissao_vista>0:\n    response.write(\'\\n        <li class="list-group-item d-flex justify-content-between">\\n            <div>\\n                <h6 class="my-0">Comiss\\xc3\\xa3o Venda \\xc3\\xa0 Vista</h6> <small class="text-muted">R$ \', escape=False)\n    response.write("{:,}".format(round(projeto.total_venda_vista)).replace(",","."))\n    response.write(\'0 - \', escape=False)\n    response.write(projeto.comissao_vista)\n    response.write(\'%</small>\\n                \', escape=False)\n    comissaov=0\n    response.write(\'\\n                \', escape=False)\n    if projeto.total_venda_vista>0:\n        response.write(\'\\n                \', escape=False)\n        comissaov=projeto.total_venda_vista*projeto.comissao_vista/100\n        response.write(\'\\n                \', escape=False)\n        pass\n    response.write(\'\\n                \', escape=False)\n    saldoq+=comissaov\n    response.write(\'\\n            </div> <span class="text-muted">R$ \', escape=False)\n    response.write("{:,}".format(round(comissaov)).replace(",","."))\n    response.write(\'0</span>\\n        </li>\\n        \', escape=False)\n    pass\nresponse.write(\'\\n        <li class="list-group-item d-flex justify-content-between bg-light">\\n            <div class="text-success">\\n                <h6 class="my-0">Total Comiss\\xc3\\xa3o<br></h6> \\n            </div> <span class="text-success">R$ \', escape=False)\nresponse.write("{:,}".format(round(saldoq)).replace(",","."))\nresponse.write(\'0</span>\\n        </li>\\n        <br>\\n        \\n        <li class="list-group-item d-flex justify-content-between">\\n            <div>\\n                <h6 class="my-0">Vale Saida</h6> <small class="text-muted">Dinheiro pego com a empresa</small>\\n            </div> <span class="text-muted">R$ \', escape=False)\nresponse.write("{:,}".format(round(projeto.vale_saida)).replace(",","."))\nresponse.write(\'0</span>\\n        </li>\\n         <li class="list-group-item d-flex justify-content-between">\\n            <div>\\n                <h6 class="my-0">Vale Caderno</h6> <small class="text-muted">Dinheiro pego na viagem</small>\\n            </div> <span class="text-muted">R$ \', escape=False)\nresponse.write("{:,}".format(round(projeto.total_caderno_chefe)).replace(",","."))\nresponse.write(\'0</span>\\n        </li>\', escape=False)\nsaldoq-=projeto.vale_saida+projeto.total_caderno_chefe\nresponse.write(\'\\n       <li class="list-group-item d-flex justify-content-between">\\n            <div>\\n                <h6 class="my-0">Difer\\xc3\\xaan\\xc3\\xa7a Presta\\xc3\\xa7\\xc3\\xa3o</h6> \\n            </div> <span class="text-muted">R$ \', escape=False)\nresponse.write("{:,}".format(round(diferencaprest)).replace(",","."))\nresponse.write(\'0</span>\\n        </li>\', escape=False)\nsaldoq-=diferencaprest\nresponse.write(\'\\n        <li class="list-group-item d-flex justify-content-between bg-light">\\n            \', escape=False)\nif saldoq>0:\n    response.write(\'\\n            <div class="text-success">\\n                <h6 class="my-0"><b class="text-success">Saldo Chefe</b></h6>\\n            </div> <span class="text-success">R$ \', escape=False)\n    response.write("{:,}".format(round(saldoq)).replace(",","."))\n    response.write(\'0</span>\\n            \', escape=False)\n    projeto.total_saldo_chefe=saldoq\n    response.write(\'\\n            \', escape=False)\n    projeto.total_debito_chefe=0\n    response.write(\'\\n\\n            \\n            \', escape=False)\nelse:\n    response.write(\'\\n            <div class="text-danger">\\n                <h6 class="my-0"><b class="text-danger">Saldo Negativo</b></h6>\\n            </div> <span class="text-danger">R$ \', escape=False)\n    response.write("{:,}".format(round(saldoq)).replace(",","."))\n    response.write(\'0</span>\\n            \', escape=False)\n    projeto.total_debito_chefe=saldoq\n    response.write(\'\\n            \', escape=False)\n    projeto.total_saldo_chefe=0\n    response.write(\'\\n            \', escape=False)\n    pass\nresponse.write(\'\\n\', escape=False)\nprojeto.update_record()\nresponse.write(\'\\n        </li>\\n        \\n    </ul>\\n</div></div></div></div>\\n\', escape=False)\nresponse.write(\'\\n      \', escape=False)\nresponse.write(response.toolbar() if response.show_toolbar else \'\')\nresponse.write(\'\\n    </div>\\n    \', escape=False)\nresponse.write(\' <!-- this is default footer -->\\n    <footer id="noprint" class="footer container-fluid ">\\n      <div class="row">\\n        <div class="col-md-12">\\n          <div class="copyright pull-left">\', escape=False)\nresponse.write(T(\'Copyright\'))\nresponse.write(\' &#169; \', escape=False)\nresponse.write(request.now.year)\nresponse.write(\'</div>\\n          <div id="poweredBy" class="pull-right">\\n              Suporte <a href="https://api.whatsapp.com/send?phone=5588981126816">(88)98112-6816</a>\\n            </div>\\n        </div>\\n      </div>\\n    </footer>\\n <footer class="footer container-fluid d-none d-print-block">\\n      <div class="row">\\n        <div class="col-md-12">\\n          <div class="copyright pull-left">Suporte - (88)98112-6816</div>\\n          <div id="poweredBy" class="pull-right">\\n             \', escape=False)\nif auth.user:\n    response.write(auth.user.first_name)\n    response.write(\' \', escape=False)\n    response.write(auth.user.last_name)\nelse:\n    response.write(\'Aluminum System\', escape=False)\n    pass\nresponse.write(\'\\n          </div>\\n        </div>\\n      </div>\\n    </footer>\\n    \', escape=False)\nresponse.write(\'\\n    <!-- The javascript =============================== -->\\n    <script src="\', escape=False)\nresponse.write(URL(\'static\',\'js/bootstrap.bundle.min.js\'))\nresponse.write(\'"></script>\\n    <script src="\', escape=False)\nresponse.write(URL(\'static\',\'js/web2py-bootstrap4.js\'))\nresponse.write(\'"></script>\\n    \', escape=False)\nresponse.write(\'\\n    \', escape=False)\nif response.google_analytics_id:\n    response.write(\'\\n    <!-- Analytics ==================================== -->\\n    <script src="\', escape=False)\n    response.write(URL(\'static\',\'js/analytics.min.js\'))\n    response.write(\'"></script>\\n    <script type="text/javascript">\\n      analytics.initialize({\\n      \\\'Google Analytics\\\':{trackingId:\\\'\', escape=False)\n    response.write(response.google_analytics_id)\n    response.write("\'}\\n      });\\n    </script>\\n    ", escape=False)\n    pass\nresponse.write(\'\\n  </body>\\n</html>\\n\', escape=False)'
p7
sS'snapshot'
p8
(dp9
S'exception'
p10
(dp11
S'__getslice__'
p12
S"<method-wrapper '__getslice__' of exceptions.AttributeError object>"
p13
sS'__str__'
p14
S"<method-wrapper '__str__' of exceptions.AttributeError object>"
p15
sS'__reduce__'
p16
S'<built-in method __reduce__ of exceptions.AttributeError object>'
p17
sS'__dict__'
p18
S'{}'
p19
sS'message'
p20
S'"\'NoneType\' object has no attribute \'descricao\'"'
p21
sS'__sizeof__'
p22
S'<built-in method __sizeof__ of exceptions.AttributeError object>'
p23
sS'__init__'
p24
S"<method-wrapper '__init__' of exceptions.AttributeError object>"
p25
sS'__setattr__'
p26
S"<method-wrapper '__setattr__' of exceptions.AttributeError object>"
p27
sS'__reduce_ex__'
p28
S'<built-in method __reduce_ex__ of exceptions.AttributeError object>'
p29
sS'__new__'
p30
S'<built-in method __new__ of type object>'
p31
sS'__format__'
p32
S'<built-in method __format__ of exceptions.AttributeError object>'
p33
sS'__class__'
p34
S"<type 'exceptions.AttributeError'>"
p35
sS'__doc__'
p36
S"'Attribute not found.'"
p37
sS'__getitem__'
p38
S"<method-wrapper '__getitem__' of exceptions.AttributeError object>"
p39
sS'__setstate__'
p40
S'<built-in method __setstate__ of exceptions.AttributeError object>'
p41
sS'__getattribute__'
p42
S"<method-wrapper '__getattribute__' of exceptions.AttributeError object>"
p43
sS'args'
p44
S'("\'NoneType\' object has no attribute \'descricao\'",)'
p45
sS'__subclasshook__'
p46
S'<built-in method __subclasshook__ of type object>'
p47
sS'__unicode__'
p48
S'<built-in method __unicode__ of exceptions.AttributeError object>'
p49
sS'__delattr__'
p50
S"<method-wrapper '__delattr__' of exceptions.AttributeError object>"
p51
sS'__repr__'
p52
S"<method-wrapper '__repr__' of exceptions.AttributeError object>"
p53
sS'__hash__'
p54
S"<method-wrapper '__hash__' of exceptions.AttributeError object>"
p55
ssS'evalue'
p56
S"'NoneType' object has no attribute 'descricao'"
p57
sS'request'
p58
cgluon.html
XML_unpickle
p59
(S's\xffW\x00\x00<div><table><tr><td style="font-weight:bold;vertical-align:top;">ajax</td><td style="vertical-align:top;">:</td><td><div>False</div></td></tr><tr><td style="font-weight:bold;vertical-align:top;">application</td><td style="vertical-align:top;">:</td><td><div>aluminum</div></td></tr><tr><td style="font-weight:bold;vertical-align:top;">args</td><td style="vertical-align:top;">:</td><td><div><table><tr><td><div>127</div></td></tr></table></div></td></tr><tr><td style="font-weight:bold;vertical-align:top;">cid</td><td style="vertical-align:top;">:</td><td><div>None</div></td></tr><tr><td style="font-weight:bold;vertical-align:top;">client</td><td style="vertical-align:top;">:</td><td><div>191.212.144.51</div></td></tr><tr><td style="font-weight:bold;vertical-align:top;">controller</td><td style="vertical-align:top;">:</td><td><div>acs_relatorio</div></td></tr><tr><td style="font-weight:bold;vertical-align:top;">cookies</td><td style="vertical-align:top;">:</td><td><div><table><tr><td style="font-weight:bold;vertical-align:top;">session_id_aluminum</td><td style="vertical-align:top;">:</td><td><div>191.212.144.51-06b63545-38fc-4d75-a67e-e354aeb249c6<table><tr><td style="font-weight:bold;vertical-align:top;">comment</td><td style="vertical-align:top;">:</td><td><div></div></td></tr><tr><td style="font-weight:bold;vertical-align:top;">domain</td><td style="vertical-align:top;">:</td><td><div></div></td></tr><tr><td style="font-weight:bold;vertical-align:top;">expires</td><td style="vertical-align:top;">:</td><td><div></div></td></tr><tr><td style="font-weight:bold;vertical-align:top;">httponly</td><td style="vertical-align:top;">:</td><td><div></div></td></tr><tr><td style="font-weight:bold;vertical-align:top;">max-age</td><td style="vertical-align:top;">:</td><td><div></div></td></tr><tr><td style="font-weight:bold;vertical-align:top;">path</td><td style="vertical-align:top;">:</td><td><div></div></td></tr><tr><td style="font-weight:bold;vertical-align:top;">secure</td><td style="vertical-align:top;">:</td><td><div></div></td></tr><tr><td style="font-weight:bold;vertical-align:top;">version</td><td style="vertical-align:top;">:</td><td><div></div></td></tr></table></div></td></tr></table></div></td></tr><tr><td style="font-weight:bold;vertical-align:top;">env</td><td style="vertical-align:top;">:</td><td><div><table><tr><td style="font-weight:bold;vertical-align:top;">CONTENT_LENGTH</td><td style="vertical-align:top;">:</td><td><div></div></td></tr><tr><td style="font-weight:bold;vertical-align:top;">CONTENT_TYPE</td><td style="vertical-align:top;">:</td><td><div></div></td></tr><tr><td style="font-weight:bold;vertical-align:top;">DOCUMENT_ROOT</td><td style="vertical-align:top;">:</td><td><div>/usr/local/openresty/nginx/html</div></td></tr><tr><td style="font-weight:bold;vertical-align:top;">HTTPS</td><td style="vertical-align:top;">:</td><td><div>on</div></td></tr><tr><td style="font-weight:bold;vertical-align:top;">HTTP_ACCEPT</td><td style="vertical-align:top;">:</td><td><div>text/html,application/xhtml+xml,application/xml;q=0.9,image/avif,image/webp,image/apng,*/*;q=0.8,application/signed-exchange;v=b3;q=0.9</div></td></tr><tr><td style="font-weight:bold;vertical-align:top;">HTTP_ACCEPT_ENCODING</td><td style="vertical-align:top;">:</td><td><div>gzip, deflate, br</div></td></tr><tr><td style="font-weight:bold;vertical-align:top;">HTTP_ACCEPT_LANGUAGE</td><td style="vertical-align:top;">:</td><td><div>pt-BR,pt;q=0.9,en-US;q=0.8,en;q=0.7</div></td></tr><tr><td style="font-weight:bold;vertical-align:top;">HTTP_CONNECTION</td><td style="vertical-align:top;">:</td><td><div>close</div></td></tr><tr><td style="font-weight:bold;vertical-align:top;">HTTP_COOKIE</td><td style="vertical-align:top;">:</td><td><div>_ga=GA1.3.1734041121.1623959776; _gid=GA1.3.78942205.1625177343; session_id_aluminum=191.212.144.51-06b63545-38fc-4d75-a67e-e354aeb249c6</div></td></tr><tr><td style="font-weight:bold;vertical-align:top;">HTTP_HOST</td><td style="vertical-align:top;">:</td><td><div>rogoberto.pythonanywhere.com</div></td></tr><tr><td style="font-weight:bold;vertical-align:top;">HTTP_REFERER</td><td style="vertical-align:top;">:</td><td><div>https://rogoberto.pythonanywhere.com/aluminum/acs_relatorio/alterar_ent_said/127</div></td></tr><tr><td style="font-weight:bold;vertical-align:top;">HTTP_SAVE_DATA</td><td style="vertical-align:top;">:</td><td><div>on</div></td></tr><tr><td style="font-weight:bold;vertical-align:top;">HTTP_SEC_CH_UA</td><td style="vertical-align:top;">:</td><td><div>&quot; Not;A Brand&quot;;v=&quot;99&quot;, &quot;Google Chrome&quot;;v=&quot;91&quot;, &quot;Chromium&quot;;v=&quot;91&quot;</div></td></tr><tr><td style="font-weight:bold;vertical-align:top;">HTTP_SEC_CH_UA_MOBILE</td><td style="vertical-align:top;">:</td><td><div>?1</div></td></tr><tr><td style="font-weight:bold;vertical-align:top;">HTTP_SEC_FETCH_DEST</td><td style="vertical-align:top;">:</td><td><div>document</div></td></tr><tr><td style="font-weight:bold;vertical-align:top;">HTTP_SEC_FETCH_MODE</td><td style="vertical-align:top;">:</td><td><div>navigate</div></td></tr><tr><td style="font-weight:bold;vertical-align:top;">HTTP_SEC_FETCH_SITE</td><td style="vertical-align:top;">:</td><td><div>same-origin</div></td></tr><tr><td style="font-weight:bold;vertical-align:top;">HTTP_UPGRADE_INSECURE_REQUESTS</td><td style="vertical-align:top;">:</td><td><div>1</div></td></tr><tr><td style="font-weight:bold;vertical-align:top;">HTTP_USER_AGENT</td><td style="vertical-align:top;">:</td><td><div>Mozilla/5.0 (Linux; Android 11; M2101K7AG) AppleWebKit/537.36 (KHTML, like Gecko) Chrome/91.0.4472.120 Mobile Safari/537.36</div></td></tr><tr><td style="font-weight:bold;vertical-align:top;">HTTP_X_FORWARDED_FOR</td><td style="vertical-align:top;">:</td><td><div>191.212.144.51</div></td></tr><tr><td style="font-weight:bold;vertical-align:top;">HTTP_X_REAL_IP</td><td style="vertical-align:top;">:</td><td><div>191.212.144.51</div></td></tr><tr><td style="font-weight:bold;vertical-align:top;">PATH_INFO</td><td style="vertical-align:top;">:</td><td><div>/aluminum/acs_relatorio/prestacao_venda/127</div></td></tr><tr><td style="font-weight:bold;vertical-align:top;">QUERY_STRING</td><td style="vertical-align:top;">:</td><td><div></div></td></tr><tr><td style="font-weight:bold;vertical-align:top;">REMOTE_ADDR</td><td style="vertical-align:top;">:</td><td><div>10.0.0.224</div></td></tr><tr><td style="font-weight:bold;vertical-align:top;">REMOTE_PORT</td><td style="vertical-align:top;">:</td><td><div>60684</div></td></tr><tr><td style="font-weight:bold;vertical-align:top;">REQUEST_METHOD</td><td style="vertical-align:top;">:</td><td><div>GET</div></td></tr><tr><td style="font-weight:bold;vertical-align:top;">REQUEST_URI</td><td style="vertical-align:top;">:</td><td><div>/aluminum/acs_relatorio/prestacao_venda/127</div></td></tr><tr><td style="font-weight:bold;vertical-align:top;">SCRIPT_NAME</td><td style="vertical-align:top;">:</td><td><div></div></td></tr><tr><td style="font-weight:bold;vertical-align:top;">SERVER_NAME</td><td style="vertical-align:top;">:</td><td><div>rogoberto.pythonanywhere.com</div></td></tr><tr><td style="font-weight:bold;vertical-align:top;">SERVER_PORT</td><td style="vertical-align:top;">:</td><td><div>443</div></td></tr><tr><td style="font-weight:bold;vertical-align:top;">SERVER_PROTOCOL</td><td style="vertical-align:top;">:</td><td><div>HTTP/1.1</div></td></tr><tr><td style="font-weight:bold;vertical-align:top;">app_folders</td><td style="vertical-align:top;">:</td><td><div>set([&#x27;/home/rogoberto/web2py/applications/welcome/&#x27;, &#x27;/home/rogoberto/web2py/applications/agrosystem/&#x27;, &#x27;/home/rogoberto/web2py/applications/prodigy/&#x27;, &#x27;/home/rogoberto/web2py/applications/aluminum/&#x27;])</div></td></tr><tr><td style="font-weight:bold;vertical-align:top;">applications_parent</td><td style="vertical-align:top;">:</td><td><div>/home/rogoberto/web2py</div></td></tr><tr><td style="font-weight:bold;vertical-align:top;">content_length</td><td style="vertical-align:top;">:</td><td><div></div></td></tr><tr><td style="font-weight:bold;vertical-align:top;">content_type</td><td style="vertical-align:top;">:</td><td><div></div></td></tr><tr><td style="font-weight:bold;vertical-align:top;">db_sessions</td><td style="vertical-align:top;">:</td><td><div>set([])</div></td></tr><tr><td style="font-weight:bold;vertical-align:top;">debugging</td><td style="vertical-align:top;">:</td><td><div>False</div></td></tr><tr><td style="font-weight:bold;vertical-align:top;">document_root</td><td style="vertical-align:top;">:</td><td><div>/usr/local/openresty/nginx/html</div></td></tr><tr><td style="font-weight:bold;vertical-align:top;">gluon_parent</td><td style="vertical-align:top;">:</td><td><div>/home/rogoberto/web2py</div></td></tr><tr><td style="font-weight:bold;vertical-align:top;">http_accept</td><td style="vertical-align:top;">:</td><td><div>text/html,application/xhtml+xml,application/xml;q=0.9,image/avif,image/webp,image/apng,*/*;q=0.8,application/signed-exchange;v=b3;q=0.9</div></td></tr><tr><td style="font-weight:bold;vertical-align:top;">http_accept_encoding</td><td style="vertical-align:top;">:</td><td><div>gzip, deflate, br</div></td></tr><tr><td style="font-weight:bold;vertical-align:top;">http_accept_language</td><td style="vertical-align:top;">:</td><td><div>pt-BR,pt;q=0.9,en-US;q=0.8,en;q=0.7</div></td></tr><tr><td style="font-weight:bold;vertical-align:top;">http_connection</td><td style="vertical-align:top;">:</td><td><div>close</div></td></tr><tr><td style="font-weight:bold;vertical-align:top;">http_cookie</td><td style="vertical-align:top;">:</td><td><div>_ga=GA1.3.1734041121.1623959776; _gid=GA1.3.78942205.1625177343; session_id_aluminum=191.212.144.51-06b63545-38fc-4d75-a67e-e354aeb249c6</div></td></tr><tr><td style="font-weight:bold;vertical-align:top;">http_host</td><td style="vertical-align:top;">:</td><td><div>rogoberto.pythonanywhere.com</div></td></tr><tr><td style="font-weight:bold;vertical-align:top;">http_referer</td><td style="vertical-align:top;">:</td><td><div>https://rogoberto.pythonanywhere.com/aluminum/acs_relatorio/alterar_ent_said/127</div></td></tr><tr><td style="font-weight:bold;vertical-align:top;">http_save_data</td><td style="vertical-align:top;">:</td><td><div>on</div></td></tr><tr><td style="font-weight:bold;vertical-align:top;">http_sec_ch_ua</td><td style="vertical-align:top;">:</td><td><div>&quot; Not;A Brand&quot;;v=&quot;99&quot;, &quot;Google Chrome&quot;;v=&quot;91&quot;, &quot;Chromium&quot;;v=&quot;91&quot;</div></td></tr><tr><td style="font-weight:bold;vertical-align:top;">http_sec_ch_ua_mobile</td><td style="vertical-align:top;">:</td><td><div>?1</div></td></tr><tr><td style="font-weight:bold;vertical-align:top;">http_sec_fetch_dest</td><td style="vertical-align:top;">:</td><td><div>document</div></td></tr><tr><td style="font-weight:bold;vertical-align:top;">http_sec_fetch_mode</td><td style="vertical-align:top;">:</td><td><div>navigate</div></td></tr><tr><td style="font-weight:bold;vertical-align:top;">http_sec_fetch_site</td><td style="vertical-align:top;">:</td><td><div>same-origin</div></td></tr><tr><td style="font-weight:bold;vertical-align:top;">http_upgrade_insecure_requests</td><td style="vertical-align:top;">:</td><td><div>1</div></td></tr><tr><td style="font-weight:bold;vertical-align:top;">http_user_agent</td><td style="vertical-align:top;">:</td><td><div>Mozilla/5.0 (Linux; Android 11; M2101K7AG) AppleWebKit/537.36 (KHTML, like Gecko) Chrome/91.0.4472.120 Mobile Safari/537.36</div></td></tr><tr><td style="font-weight:bold;vertical-align:top;">http_x_forwarded_for</td><td style="vertical-align:top;">:</td><td><div>191.212.144.51</div></td></tr><tr><td style="font-weight:bold;vertical-align:top;">http_x_real_ip</td><td style="vertical-align:top;">:</td><td><div>191.212.144.51</div></td></tr><tr><td style="font-weight:bold;vertical-align:top;">https</td><td style="vertical-align:top;">:</td><td><div>on</div></td></tr><tr><td style="font-weight:bold;vertical-align:top;">is_jython</td><td style="vertical-align:top;">:</td><td><div>False</div></td></tr><tr><td style="font-weight:bold;vertical-align:top;">is_py2</td><td style="vertical-align:top;">:</td><td><div>True</div></td></tr><tr><td style="font-weight:bold;vertical-align:top;">is_pypy</td><td style="vertical-align:top;">:</td><td><div>False</div></td></tr><tr><td style="font-weight:bold;vertical-align:top;">is_source</td><td style="vertical-align:top;">:</td><td><div>True</div></td></tr><tr><td style="font-weight:bold;vertical-align:top;">local_hosts</td><td style="vertical-align:top;">:</td><td><div><table><tr><td><div>35.173.69.207</div></td></tr><tr><td><div>::ffff:127.0.0.1</div></td></tr><tr><td><div>::1</div></td></tr><tr><td><div>rogoberto.pythonanywhere.com</div></td></tr><tr><td><div>127.0.0.1</div></td></tr><tr><td><div>blue-liveweb5</div></td></tr><tr><td><div>localhost</div></td></tr></table></div></td></tr><tr><td style="font-weight:bold;vertical-align:top;">path_info</td><td style="vertical-align:top;">:</td><td><div>/aluminum/acs_relatorio/prestacao_venda/127</div></td></tr><tr><td style="font-weight:bold;vertical-align:top;">query_string</td><td style="vertical-align:top;">:</td><td><div></div></td></tr><tr><td style="font-weight:bold;vertical-align:top;">remote_addr</td><td style="vertical-align:top;">:</td><td><div>10.0.0.224</div></td></tr><tr><td style="font-weight:bold;vertical-align:top;">remote_port</td><td style="vertical-align:top;">:</td><td><div>60684</div></td></tr><tr><td style="font-weight:bold;vertical-align:top;">request_method</td><td style="vertical-align:top;">:</td><td><div>GET</div></td></tr><tr><td style="font-weight:bold;vertical-align:top;">request_uri</td><td style="vertical-align:top;">:</td><td><div>/aluminum/acs_relatorio/prestacao_venda/127</div></td></tr><tr><td style="font-weight:bold;vertical-align:top;">script_name</td><td style="vertical-align:top;">:</td><td><div></div></td></tr><tr><td style="font-weight:bold;vertical-align:top;">server_name</td><td style="vertical-align:top;">:</td><td><div>rogoberto.pythonanywhere.com</div></td></tr><tr><td style="font-weight:bold;vertical-align:top;">server_port</td><td style="vertical-align:top;">:</td><td><div>443</div></td></tr><tr><td style="font-weight:bold;vertical-align:top;">server_protocol</td><td style="vertical-align:top;">:</td><td><div>HTTP/1.1</div></td></tr><tr><td style="font-weight:bold;vertical-align:top;">uwsgi.node</td><td style="vertical-align:top;">:</td><td><div>blue-liveweb5</div></td></tr><tr><td style="font-weight:bold;vertical-align:top;">uwsgi.version</td><td style="vertical-align:top;">:</td><td><div>2.0.17.1</div></td></tr><tr><td style="font-weight:bold;vertical-align:top;">uwsgi_node</td><td style="vertical-align:top;">:</td><td><div>blue-liveweb5</div></td></tr><tr><td style="font-weight:bold;vertical-align:top;">uwsgi_version</td><td style="vertical-align:top;">:</td><td><div>2.0.17.1</div></td></tr><tr><td style="font-weight:bold;vertical-align:top;">web2py_original_uri</td><td style="vertical-align:top;">:</td><td><div>/aluminum/acs_relatorio/prestacao_venda/127</div></td></tr><tr><td style="font-weight:bold;vertical-align:top;">web2py_path</td><td style="vertical-align:top;">:</td><td><div>/home/rogoberto/web2py</div></td></tr><tr><td style="font-weight:bold;vertical-align:top;">web2py_version</td><td style="vertical-align:top;">:</td><td><div>2.17.1-stable+timestamp.2018.08.06.01.02.56</div></td></tr><tr><td style="font-weight:bold;vertical-align:top;">wsgi.errors</td><td style="vertical-align:top;">:</td><td><div>&lt;uwsgi_file__bin_user_wsgi_wrapper.ErrorLogFile object at 0x7f40428abc10&gt;</div></td></tr><tr><td style="font-weight:bold;vertical-align:top;">wsgi.file_wrapper</td><td style="vertical-align:top;">:</td><td><div>&lt;built-in function uwsgi_sendfile&gt;</div></td></tr><tr><td style="font-weight:bold;vertical-align:top;">wsgi.input</td><td style="vertical-align:top;">:</td><td><div>&lt;uwsgi._Input object at 0x7f4043cb0b10&gt;</div></td></tr><tr><td style="font-weight:bold;vertical-align:top;">wsgi.multiprocess</td><td style="vertical-align:top;">:</td><td><div>True</div></td></tr><tr><td style="font-weight:bold;vertical-align:top;">wsgi.multithread</td><td style="vertical-align:top;">:</td><td><div>False</div></td></tr><tr><td style="font-weight:bold;vertical-align:top;">wsgi.run_once</td><td style="vertical-align:top;">:</td><td><div>False</div></td></tr><tr><td style="font-weight:bold;vertical-align:top;">wsgi.url_scheme</td><td style="vertical-align:top;">:</td><td><div>https</div></td></tr><tr><td style="font-weight:bold;vertical-align:top;">wsgi.version</td><td style="vertical-align:top;">:</td><td><div><table><tr><td><div>1</div></td></tr><tr><td><div>0</div></td></tr></table></div></td></tr><tr><td style="font-weight:bold;vertical-align:top;">wsgi_errors</td><td style="vertical-align:top;">:</td><td><div>&lt;uwsgi_file__bin_user_wsgi_wrapper.ErrorLogFile object at 0x7f40428abc10&gt;</div></td></tr><tr><td style="font-weight:bold;vertical-align:top;">wsgi_file_wrapper</td><td style="vertical-align:top;">:</td><td><div>&lt;built-in function uwsgi_sendfile&gt;</div></td></tr><tr><td style="font-weight:bold;vertical-align:top;">wsgi_input</td><td style="vertical-align:top;">:</td><td><div>&lt;uwsgi._Input object at 0x7f4043cb0b10&gt;</div></td></tr><tr><td style="font-weight:bold;vertical-align:top;">wsgi_multiprocess</td><td style="vertical-align:top;">:</td><td><div>True</div></td></tr><tr><td style="font-weight:bold;vertical-align:top;">wsgi_multithread</td><td style="vertical-align:top;">:</td><td><div>False</div></td></tr><tr><td style="font-weight:bold;vertical-align:top;">wsgi_run_once</td><td style="vertical-align:top;">:</td><td><div>False</div></td></tr><tr><td style="font-weight:bold;vertical-align:top;">wsgi_url_scheme</td><td style="vertical-align:top;">:</td><td><div>https</div></td></tr><tr><td style="font-weight:bold;vertical-align:top;">wsgi_version</td><td style="vertical-align:top;">:</td><td><div><table><tr><td><div>1</div></td></tr><tr><td><div>0</div></td></tr></table></div></td></tr></table></div></td></tr><tr><td style="font-weight:bold;vertical-align:top;">extension</td><td style="vertical-align:top;">:</td><td><div>html</div></td></tr><tr><td style="font-weight:bold;vertical-align:top;">folder</td><td style="vertical-align:top;">:</td><td><div>/home/rogoberto/web2py/applications/aluminum/</div></td></tr><tr><td style="font-weight:bold;vertical-align:top;">function</td><td style="vertical-align:top;">:</td><td><div>prestacao_venda</div></td></tr><tr><td style="font-weight:bold;vertical-align:top;">global_settings</td><td style="vertical-align:top;">:</td><td><div><table><tr><td style="font-weight:bold;vertical-align:top;">app_folders</td><td style="vertical-align:top;">:</td><td><div>set([&#x27;/home/rogoberto/web2py/applications/welcome/&#x27;, &#x27;/home/rogoberto/web2py/applications/agrosystem/&#x27;, &#x27;/home/rogoberto/web2py/applications/prodigy/&#x27;, &#x27;/home/rogoberto/web2py/applications/aluminum/&#x27;])</div></td></tr><tr><td style="font-weight:bold;vertical-align:top;">applications_parent</td><td style="vertical-align:top;">:</td><td><div>/home/rogoberto/web2py</div></td></tr><tr><td style="font-weight:bold;vertical-align:top;">db_sessions</td><td style="vertical-align:top;">:</td><td><div>set([])</div></td></tr><tr><td style="font-weight:bold;vertical-align:top;">debugging</td><td style="vertical-align:top;">:</td><td><div>False</div></td></tr><tr><td style="font-weight:bold;vertical-align:top;">gluon_parent</td><td style="vertical-align:top;">:</td><td><div>/home/rogoberto/web2py</div></td></tr><tr><td style="font-weight:bold;vertical-align:top;">is_jython</td><td style="vertical-align:top;">:</td><td><div>False</div></td></tr><tr><td style="font-weight:bold;vertical-align:top;">is_py2</td><td style="vertical-align:top;">:</td><td><div>True</div></td></tr><tr><td style="font-weight:bold;vertical-align:top;">is_pypy</td><td style="vertical-align:top;">:</td><td><div>False</div></td></tr><tr><td style="font-weight:bold;vertical-align:top;">is_source</td><td style="vertical-align:top;">:</td><td><div>True</div></td></tr><tr><td style="font-weight:bold;vertical-align:top;">local_hosts</td><td style="vertical-align:top;">:</td><td><div><table><tr><td><div>35.173.69.207</div></td></tr><tr><td><div>::ffff:127.0.0.1</div></td></tr><tr><td><div>::1</div></td></tr><tr><td><div>rogoberto.pythonanywhere.com</div></td></tr><tr><td><div>127.0.0.1</div></td></tr><tr><td><div>blue-liveweb5</div></td></tr><tr><td><div>localhost</div></td></tr></table></div></td></tr><tr><td style="font-weight:bold;vertical-align:top;">web2py_version</td><td style="vertical-align:top;">:</td><td><div>2.17.1-stable+timestamp.2018.08.06.01.02.56</div></td></tr></table></div></td></tr><tr><td style="font-weight:bold;vertical-align:top;">is_https</td><td style="vertical-align:top;">:</td><td><div>True</div></td></tr><tr><td style="font-weight:bold;vertical-align:top;">is_local</td><td style="vertical-align:top;">:</td><td><div>False</div></td></tr><tr><td style="font-weight:bold;vertical-align:top;">is_restful</td><td style="vertical-align:top;">:</td><td><div>False</div></td></tr><tr><td style="font-weight:bold;vertical-align:top;">is_scheduler</td><td style="vertical-align:top;">:</td><td><div>False</div></td></tr><tr><td style="font-weight:bold;vertical-align:top;">is_shell</td><td style="vertical-align:top;">:</td><td><div>False</div></td></tr><tr><td style="font-weight:bold;vertical-align:top;">method</td><td style="vertical-align:top;">:</td><td><div>GET</div></td></tr><tr><td style="font-weight:bold;vertical-align:top;">now</td><td style="vertical-align:top;">:</td><td><div>datetime.datetime(2021, 7, 1, 22, 12, 30, 11907)</div></td></tr><tr><td style="font-weight:bold;vertical-align:top;">url</td><td style="vertical-align:top;">:</td><td><div>/aluminum/acs_relatorio/prestacao_venda/127</div></td></tr><tr><td style="font-weight:bold;vertical-align:top;">utcnow</td><td style="vertical-align:top;">:</td><td><div>datetime.datetime(2021, 7, 1, 22, 12, 30, 11920)</div></td></tr><tr><td style="font-weight:bold;vertical-align:top;">wsgi</td><td style="vertical-align:top;">:</td><td><div>&lt;gluon.main.LazyWSGI object at 0x7f4041553ad0&gt;</div></td></tr></table></div>'
tRp60
sS'frames'
p61
(lp62
(dp63
S'file'
p64
S'/home/rogoberto/web2py/gluon/restricted.py'
p65
sS'dump'
p66
(dp67
S'environment'
p68
S"{'A': <class 'gluon.html.A'>, 'ANY_OF': <class 'gluon.validators.ANY_OF'>, 'ASSIGNJS': <function ASSIGNJS>, 'AppConfig': <function AppConfig>, 'Auth': <class 'gluon.tools.Auth'>, 'B': <class 'gluon.html.B'>, 'BEAUTIFY': <class 'gluon.html.BEAUTIFY'>, 'BODY': <class 'gluon.html.BODY'>, 'BR': <class 'gluon.html.BR'>, 'BUTTON': <class 'gluon.html.BUTTON'>, ...}"
p69
sS'ccode'
p70
S'<code object <module> at 0x7f404139eeb0, file "/...iews/acs_relatorio/prestacao_venda.html", line 1>'
p71
ssS'lnum'
p72
I219
sS'lines'
p73
(dp74
I214
S'    if environment is None:'
p75
sI215
S'        environment = {}'
p76
sI216
S"    environment['__file__'] = layer"
p77
sI217
S"    environment['__name__'] = '__restricted__'"
p78
sI218
S'    try:'
p79
sI219
S'        exec(ccode, environment)'
p80
sI220
S'    except HTTP:'
p81
sI221
S'        raise'
p82
sI222
S'    except RestrictedError:'
p83
sI223
S'        # do not encapsulate (obfuscate) the original RestrictedError'
p84
ssS'call'
p85
S'(ccode=<code object <module> at 0x7f404139eeb0, file "/...iews/acs_relatorio/prestacao_venda.html", line 1>, environment={\'A\': <class \'gluon.html.A\'>, \'ANY_OF\': <class \'gluon.validators.ANY_OF\'>, \'ASSIGNJS\': <function ASSIGNJS>, \'AppConfig\': <function AppConfig>, \'Auth\': <class \'gluon.tools.Auth\'>, \'B\': <class \'gluon.html.B\'>, \'BEAUTIFY\': <class \'gluon.html.BEAUTIFY\'>, \'BODY\': <class \'gluon.html.BODY\'>, \'BR\': <class \'gluon.html.BR\'>, \'BUTTON\': <class \'gluon.html.BUTTON\'>, ...}, layer=\'/home/rogoberto/web2py/applications/aluminum/views/acs_relatorio/prestacao_venda.html\', scode=r"response.write(\'<!DOCTYPE html>\\n<!--[if (gt IE ...nse.write(\'\\n  </body>\\n</html>\\n\', escape=False)")'
p86
sS'func'
p87
S'restricted'
p88
sa(dp89
g64
S'/home/rogoberto/web2py/applications/aluminum/views/acs_relatorio/prestacao_venda.html'
p90
sg66
(dp91
S'b'
S'undefined'
p92
sS'span'
p93
g92
sS'projeto.total_caderno_vendedor'
p94
g92
sS'projeto'
p95
S'None'
p96
sS'R'
g92
sS'div'
p97
g92
sS'builtinround'
p98
S'<built-in function round>'
p99
ssg72
I131
sg73
(dp100
I128
S'response.write(\'\\n<header class="header container-fluid d-none d-print-block">\\n     <div class="row">\\n        <div class="col-md-12">\\n          <div class="copyright pull-left">Aluminum System</div>\\n          <div id="poweredBy" class="pull-right">\\n            Gest\\xc3\\xa3o de vendas e cobran\\xc3\\xa7as artefatos de aluminio\\n            \\n          </div>\\n        </div>\\n      </div>\\n</header>\\n    \', escape=False)'
p101
sI129
S'response.write(\'\\n    <!-- Main ========================================= -->\\n    <!-- Begin page content -->\\n    <div class="container-fluid main-container py-5">\\n      \', escape=False)'
p102
sI130
S'response.write(\'\\n\\n\\n<div class="py-5" >\\n    <div class="container">\\n        <div class="row">\\n        <div class="col-md-12">\\n          <h5 class="">Presta\\xc3\\xa7\\xc3\\xa3o de Contas ( \', escape=False)'
p103
sI131
S'response.write(projeto.descricao)'
p104
sI132
S'response.write(\' )</h5>\\n        </div>\\n      </div>\\n      <div class="row">\\n        <div class="col-md-12">\\n          <a class="btn btn-link" href="\', escape=False)'
p105
sI133
S"response.write(URL('acs_projeto','index', args=projeto.id))"
p106
sI134
S'response.write(\'" style="color:#3b5998"><i class="fa fa-fw fa-1x py-1 fa-arrow-left"></i> Voltar</a>\\n          <a class="btn btn-link" href="\', escape=False)'
p107
sI135
S"response.write(URL('alterar_ent_said', args=projeto.id))"
p108
sI136
S'response.write(\'" style="color:#3b5998"><i class="fa fa-fw fa-1x py-1 fa-cog"></i> Alterar Dados Principais</a>\\n        </div>\\n      </div>\\n        <div class="row">\\n            <div class="col-md-6">\\n                <p class="d-flex justify-content-between mb-3"> <span><b>Informa\\xc3\\xa7\\xc3\\xb5es Mercadoria</b></span> </p>\\n                <ul class="list-group">\\n                    <li class="list-group-item d-flex justify-content-between">\\n                        <div>\', escape=False)'
p109
sI137
S'venda_vista=0.0'
p110
sI138
S'response.write(\'\\n                            <h6 class="my-0"><b>Total Mercadoria&nbsp;</b></h6> <small class="text-muted">\', escape=False)'
p111
sI139
S'response.write(projeto.total_pecas_mercadoria)'
p112
sI140
S'response.write(\' Pe\\xc3\\xa7as</small>\\n                        </div> <span class="text-muted">R$ \', escape=False)'
p113
sI141
S'response.write("{:,}".format(round(projeto.total_preco_mercadoria)).replace(",","."))'
p114
sI122
S'            pass'
p115
sI123
S"        response.write('\\n              ', escape=False)"
p116
sI124
S'        pass'
p117
sI125
S"    response.write('\\n            </div>\\n          </li>\\n        </ul>\\n        ', escape=False)"
p118
sI126
S'    pass'
p119
sI127
S"response.write('\\n      </div>\\n    </nav>\\n\\n    <!-- Masthead ===================================== -->\\n    ', escape=False)"
p120
ssg85
S'()'
p121
sg87
S'<module>'
p122
sasS'pyver'
p123
S'Python 2.7.12: /usr/local/bin/uwsgi (prefix: /usr)'
p124
sS'session'
p125
g59
(S's\xf0\t\x00\x00<div><table><tr><td style="font-weight:bold;vertical-align:top;">auth</td><td style="vertical-align:top;">:</td><td><div><table><tr><td style="font-weight:bold;vertical-align:top;">expiration</td><td style="vertical-align:top;">:</td><td><div>2592000</div></td></tr><tr><td style="font-weight:bold;vertical-align:top;">hmac_key</td><td style="vertical-align:top;">:</td><td><div>9109d859-b2ea-411d-b886-e9c7a92835fd</div></td></tr><tr><td style="font-weight:bold;vertical-align:top;">last_visit</td><td style="vertical-align:top;">:</td><td><div>datetime.datetime(2021, 7, 1, 22, 9, 10, 478042)</div></td></tr><tr><td style="font-weight:bold;vertical-align:top;">remember_me</td><td style="vertical-align:top;">:</td><td><div>True</div></td></tr><tr><td style="font-weight:bold;vertical-align:top;">user</td><td style="vertical-align:top;">:</td><td><div><table><tr><td style="font-weight:bold;vertical-align:top;">email</td><td style="vertical-align:top;">:</td><td><div>betin@gmail.com</div></td></tr><tr><td style="font-weight:bold;vertical-align:top;">first_name</td><td style="vertical-align:top;">:</td><td><div>Rogoberto</div></td></tr><tr><td style="font-weight:bold;vertical-align:top;">id</td><td style="vertical-align:top;">:</td><td><div>1L</div></td></tr><tr><td style="font-weight:bold;vertical-align:top;">last_name</td><td style="vertical-align:top;">:</td><td><div>Ribeiro</div></td></tr><tr><td style="font-weight:bold;vertical-align:top;">registration_id</td><td style="vertical-align:top;">:</td><td><div></div></td></tr><tr><td style="font-weight:bold;vertical-align:top;">registration_key</td><td style="vertical-align:top;">:</td><td><div></div></td></tr><tr><td style="font-weight:bold;vertical-align:top;">reset_password_key</td><td style="vertical-align:top;">:</td><td><div></div></td></tr></table></div></td></tr><tr><td style="font-weight:bold;vertical-align:top;">user_groups</td><td style="vertical-align:top;">:</td><td><div><table><tr><td style="font-weight:bold;vertical-align:top;">1</td><td style="vertical-align:top;">:</td><td><div>user_1</div></td></tr><tr><td style="font-weight:bold;vertical-align:top;">2</td><td style="vertical-align:top;">:</td><td><div>admin</div></td></tr><tr><td style="font-weight:bold;vertical-align:top;">3</td><td style="vertical-align:top;">:</td><td><div>wiki_editor</div></td></tr></table></div></td></tr></table></div></td></tr><tr><td style="font-weight:bold;vertical-align:top;">flash</td><td style="vertical-align:top;">:</td><td><div>None</div></td></tr></table></div>'
tRp126
sS'etype'
p127
S"<type 'exceptions.AttributeError'>"
p128
sS'date'
p129
S'Thu Jul  1 22:12:30 2021'
p130
sS'response'
p131
g59
(S's\xe3\x1f\x00\x00<div><table><tr><td style="font-weight:bold;vertical-align:top;">body</td><td style="vertical-align:top;">:</td><td><div>&lt;cStringIO.StringO object at 0x7f4041756e68&gt;</div></td></tr><tr><td style="font-weight:bold;vertical-align:top;">cookies</td><td style="vertical-align:top;">:</td><td><div><table><tr><td style="font-weight:bold;vertical-align:top;">session_id_aluminum</td><td style="vertical-align:top;">:</td><td><div>191.212.144.51-06b63545-38fc-4d75-a67e-e354aeb249c6<table><tr><td style="font-weight:bold;vertical-align:top;">comment</td><td style="vertical-align:top;">:</td><td><div></div></td></tr><tr><td style="font-weight:bold;vertical-align:top;">domain</td><td style="vertical-align:top;">:</td><td><div></div></td></tr><tr><td style="font-weight:bold;vertical-align:top;">expires</td><td style="vertical-align:top;">:</td><td><div></div></td></tr><tr><td style="font-weight:bold;vertical-align:top;">httponly</td><td style="vertical-align:top;">:</td><td><div></div></td></tr><tr><td style="font-weight:bold;vertical-align:top;">max-age</td><td style="vertical-align:top;">:</td><td><div></div></td></tr><tr><td style="font-weight:bold;vertical-align:top;">path</td><td style="vertical-align:top;">:</td><td><div>/</div></td></tr><tr><td style="font-weight:bold;vertical-align:top;">secure</td><td style="vertical-align:top;">:</td><td><div></div></td></tr><tr><td style="font-weight:bold;vertical-align:top;">version</td><td style="vertical-align:top;">:</td><td><div></div></td></tr></table></div></td></tr></table></div></td></tr><tr><td style="font-weight:bold;vertical-align:top;">delimiters</td><td style="vertical-align:top;">:</td><td><div><table><tr><td><div>{{</div></td></tr><tr><td><div>}}</div></td></tr></table></div></td></tr><tr><td style="font-weight:bold;vertical-align:top;">files</td><td style="vertical-align:top;">:</td><td><div><table><tr><td><div>/aluminum/static/js/jquery.js</div></td></tr><tr><td><div>/aluminum/static/css/calendar.css</div></td></tr><tr><td><div>/aluminum/static/js/calendar.js</div></td></tr><tr><td><div>/aluminum/static/js/web2py.js</div></td></tr></table></div></td></tr><tr><td style="font-weight:bold;vertical-align:top;">flash</td><td style="vertical-align:top;">:</td><td><div>Projeto atualizado</div></td></tr><tr><td style="font-weight:bold;vertical-align:top;">form_label_separator</td><td style="vertical-align:top;">:</td><td><div></div></td></tr><tr><td style="font-weight:bold;vertical-align:top;">formstyle</td><td style="vertical-align:top;">:</td><td><div>bootstrap4_inline</div></td></tr><tr><td style="font-weight:bold;vertical-align:top;">generic_patterns</td><td style="vertical-align:top;">:</td><td><div><table></table></div></td></tr><tr><td style="font-weight:bold;vertical-align:top;">google_analytics_id</td><td style="vertical-align:top;">:</td><td><div>None</div></td></tr><tr><td style="font-weight:bold;vertical-align:top;">headers</td><td style="vertical-align:top;">:</td><td><div><table><tr><td style="font-weight:bold;vertical-align:top;">X-Powered-By</td><td style="vertical-align:top;">:</td><td><div>web2py</div></td></tr></table></div></td></tr><tr><td style="font-weight:bold;vertical-align:top;">menu</td><td style="vertical-align:top;">:</td><td><div><table><tr><td><div><table><tr><td><div>Principal</div></td></tr><tr><td><div>False</div></td></tr><tr><td><div>/aluminum</div></td></tr><tr><td><div><table></table></div></td></tr></table></div></td></tr><tr><td><div><table><tr><td><div>Empresa</div></td></tr><tr><td><div>False</div></td></tr><tr><td><div>/aluminum/acs_principal</div></td></tr><tr><td><div><table></table></div></td></tr></table></div></td></tr><tr><td><div><table><tr><td><div>Projetos</div></td></tr><tr><td><div>False</div></td></tr><tr><td><div>/aluminum/acs_principal/lista_projetos</div></td></tr><tr><td><div><table></table></div></td></tr></table></div></td></tr><tr><td><div><table><tr><td><div>Cobran\xc3\xa7as</div></td></tr><tr><td><div>False</div></td></tr><tr><td><div>/aluminum/acs_principal/lista_cobrancas</div></td></tr><tr><td><div><table></table></div></td></tr></table></div></td></tr></table></div></td></tr><tr><td style="font-weight:bold;vertical-align:top;">meta</td><td style="vertical-align:top;">:</td><td><div><table><tr><td style="font-weight:bold;vertical-align:top;">author</td><td style="vertical-align:top;">:</td><td><div>Your Name &lt;you@example.com&gt;</div></td></tr><tr><td style="font-weight:bold;vertical-align:top;">description</td><td style="vertical-align:top;">:</td><td><div>Controle suas venda e cobrancas.</div></td></tr><tr><td style="font-weight:bold;vertical-align:top;">generator</td><td style="vertical-align:top;">:</td><td><div>Web2py Web Framework</div></td></tr><tr><td style="font-weight:bold;vertical-align:top;">keywords</td><td style="vertical-align:top;">:</td><td><div><table><tr><td><div>web2py</div></td></tr><tr><td><div>python</div></td></tr><tr><td><div>framework</div></td></tr></table></div></td></tr></table></div></td></tr><tr><td style="font-weight:bold;vertical-align:top;">models_to_run</td><td style="vertical-align:top;">:</td><td><div><table><tr><td><div>^\\w+\\.py$</div></td></tr><tr><td><div>^acs_relatorio/\\w+\\.py$</div></td></tr><tr><td><div>^acs_relatorio/prestacao_venda/\\w+\\.py$</div></td></tr></table></div></td></tr><tr><td style="font-weight:bold;vertical-align:top;">postprocessing</td><td style="vertical-align:top;">:</td><td><div><table></table></div></td></tr><tr><td style="font-weight:bold;vertical-align:top;">session_client</td><td style="vertical-align:top;">:</td><td><div>191.212.144.51</div></td></tr><tr><td style="font-weight:bold;vertical-align:top;">session_cookie_compression_level</td><td style="vertical-align:top;">:</td><td><div>None</div></td></tr><tr><td style="font-weight:bold;vertical-align:top;">session_cookie_expires</td><td style="vertical-align:top;">:</td><td><div>2592000</div></td></tr><tr><td style="font-weight:bold;vertical-align:top;">session_data_name</td><td style="vertical-align:top;">:</td><td><div>session_data_aluminum</div></td></tr><tr><td style="font-weight:bold;vertical-align:top;">session_file</td><td style="vertical-align:top;">:</td><td><div>&lt;open file &#x27;/home/rogoberto/web2py/applications/aluminum/sessions/12f/1d1/191.212.144.51-06b63545-38fc-4d75-a67e-e354aeb249c6&#x27;, mode &#x27;rb+&#x27; at 0x7f4041cc2a50&gt;</div></td></tr><tr><td style="font-weight:bold;vertical-align:top;">session_filename</td><td style="vertical-align:top;">:</td><td><div>/home/rogoberto/web2py/applications/aluminum/sessions/191.212.144.51-06b63545-38fc-4d75-a67e-e354aeb249c6</div></td></tr><tr><td style="font-weight:bold;vertical-align:top;">session_hash</td><td style="vertical-align:top;">:</td><td><div>37f425055294c11b1a43aa699c3645fa</div></td></tr><tr><td style="font-weight:bold;vertical-align:top;">session_id</td><td style="vertical-align:top;">:</td><td><div>191.212.144.51-06b63545-38fc-4d75-a67e-e354aeb249c6</div></td></tr><tr><td style="font-weight:bold;vertical-align:top;">session_id_name</td><td style="vertical-align:top;">:</td><td><div>session_id_aluminum</div></td></tr><tr><td style="font-weight:bold;vertical-align:top;">session_locked</td><td style="vertical-align:top;">:</td><td><div>True</div></td></tr><tr><td style="font-weight:bold;vertical-align:top;">session_masterapp</td><td style="vertical-align:top;">:</td><td><div>aluminum</div></td></tr><tr><td style="font-weight:bold;vertical-align:top;">session_new</td><td style="vertical-align:top;">:</td><td><div>False</div></td></tr><tr><td style="font-weight:bold;vertical-align:top;">session_storage_type</td><td style="vertical-align:top;">:</td><td><div>file</div></td></tr><tr><td style="font-weight:bold;vertical-align:top;">show_toolbar</td><td style="vertical-align:top;">:</td><td><div>False</div></td></tr><tr><td style="font-weight:bold;vertical-align:top;">status</td><td style="vertical-align:top;">:</td><td><div>200</div></td></tr><tr><td style="font-weight:bold;vertical-align:top;">view</td><td style="vertical-align:top;">:</td><td><div>acs_relatorio/prestacao_venda.html</div></td></tr></table></div>'
tRp132
sS'locals'
p133
(dp134
S'PY2'
p135
S'True'
p136
sS'OBJECT'
p137
S"<class 'gluon.html.OBJECT'>"
p138
sS'SQLDB'
p139
S"<class 'pydal.base.DAL'>"
p140
sg125
S"<Storage {'_formkey[projeto/146]': ['2486048a-a7...gin]': ['f2ef94c5-3e2d-46b2-93f4-4ada3aee649e']}>"
p141
sS'LINK'
p142
S"<class 'gluon.html.LINK'>"
p143
sS'BR'
p144
S"<class 'gluon.html.BR'>"
p145
sS'local_import'
p146
S'<function <lambda>>'
p147
sS'OPTGROUP'
p148
S"<class 'gluon.html.OPTGROUP'>"
p149
sS'__package__'
p150
S'None'
p151
sS'PRE'
p152
S"<class 'gluon.html.PRE'>"
p153
sS'IS_INT_IN_RANGE'
p154
S"<class 'gluon.validators.IS_INT_IN_RANGE'>"
p155
sS'to_bytes'
p156
S'<function to_bytes>'
p157
sS'IS_LOWER'
p158
S"<class 'gluon.validators.IS_LOWER'>"
p159
sS'IS_STRONG'
p160
S"<class 'gluon.validators.IS_STRONG'>"
p161
sS'cache'
p162
S'<gluon.cache.Cache object>'
p163
sS'IS_IN_DB'
p164
S"<class 'gluon.validators.IS_IN_DB'>"
p165
sS'TAG'
p166
S'<gluon.html.__TAG__ object>'
p167
sS'SQLField'
p168
S"<class 'pydal.objects.Field'>"
p169
sS'mail'
p170
S'<gluon.tools.Mail object>'
p171
sS'BODY'
p172
S"<class 'gluon.html.BODY'>"
p173
sS'IS_DATE_IN_RANGE'
p174
S"<class 'gluon.validators.IS_DATE_IN_RANGE'>"
p175
sS'IFRAME'
p176
S"<class 'gluon.html.IFRAME'>"
p177
sS'URL'
p178
S'<function URL>'
p179
sS'__file__'
p180
S"'/home/rogoberto/web2py/applications/aluminum/views/acs_relatorio/prestacao_venda.html'"
p181
sS'db'
p182
S'<DAL uri="sqlite://storage.sqlite">'
p183
sS'auth'
p184
S'<gluon.tools.Auth object>'
p185
sS'P'
S"<class 'gluon.html.P'>"
p186
sS'TFOOT'
p187
S"<class 'gluon.html.TFOOT'>"
p188
sS'iteritems'
p189
S'<function <lambda>>'
p190
sS'XHTML'
p191
S"<class 'gluon.html.XHTML'>"
p192
sS'datetime'
p193
S"<module 'datetime' (built-in)>"
p194
sS'ON'
p195
g136
sS'OL'
p196
S"<class 'gluon.html.OL'>"
p197
sS'TEXTAREA'
p198
S"<class 'gluon.html.TEXTAREA'>"
p199
sS'MENU'
p200
S"<class 'gluon.html.MENU'>"
p201
sS'IS_IMAGE'
p202
S"<class 'gluon.validators.IS_IMAGE'>"
p203
sS'EM'
p204
S"<class 'gluon.html.EM'>"
p205
sS'CODE'
p206
S"<class 'gluon.html.CODE'>"
p207
sS'HTTP'
p208
S"<class 'gluon.http.HTTP'>"
p209
sS'HR'
p210
S"<class 'gluon.html.HR'>"
p211
sS'IS_DATETIME'
p212
S"<class 'gluon.validators.IS_DATETIME'>"
p213
sS'reduce'
p214
S'<built-in function reduce>'
p215
sS'STYLE'
p216
S"<class 'gluon.html.STYLE'>"
p217
sS'LABEL'
p218
S"<class 'gluon.html.LABEL'>"
p219
sS'CLEANUP'
p220
S"<class 'gluon.validators.CLEANUP'>"
p221
sS'BUTTON'
p222
S"<class 'gluon.html.BUTTON'>"
p223
sS'SELECT'
p224
S"<class 'gluon.html.SELECT'>"
p225
sS'CENTER'
p226
S"<class 'gluon.html.CENTER'>"
p227
sS'Auth'
p228
S"<class 'gluon.tools.Auth'>"
p229
sS'urlopen'
p230
S'<function urlopen>'
p231
sS'HTML'
p232
S"<class 'gluon.html.HTML'>"
p233
sS'SQLFORM'
p234
S"<class 'gluon.sqlhtml.SQLFORM'>"
p235
sS'_item'
p236
S"(<lazyT 'Cobran\xc3\xa7as'>, False, '/aluminum/acs_principal/lista_cobrancas', [])"
p237
sS'LOAD'
p238
S'<function LOAD>'
p239
sS'redirect'
p240
S'<function redirect>'
p241
sS'FIELDSET'
p242
S"<class 'gluon.html.FIELDSET'>"
p243
sS'IS_EQUAL_TO'
p244
S"<class 'gluon.validators.IS_EQUAL_TO'>"
p245
sS'embed64'
p246
S'<function embed64>'
p247
sS'IS_LIST_OF'
p248
S"<class 'gluon.validators.IS_LIST_OF'>"
p249
sS'INPUT'
p250
S"<class 'gluon.html.INPUT'>"
p251
sS'EMBED'
p252
S"<class 'gluon.html.EMBED'>"
p253
sS'configuration'
p254
S"{'host': {'names': 'localhost:*, 127.0.0.1:*, *:...': 'sqlite://storage.sqlite', 'pool_size': '10'}}"
p255
sS'H2'
p256
S"<class 'gluon.html.H2'>"
p257
sS'H3'
p258
S"<class 'gluon.html.H3'>"
p259
sS'projeto'
p260
S'None'
p261
sS'H1'
p262
S"<class 'gluon.html.H1'>"
p263
sS'H6'
p264
S"<class 'gluon.html.H6'>"
p265
sS'H4'
p266
S"<class 'gluon.html.H4'>"
p267
sS'H5'
p268
S"<class 'gluon.html.H5'>"
p269
sS'UL'
p270
S"<class 'gluon.html.UL'>"
p271
sS'IS_UPPER'
p272
S"<class 'gluon.validators.IS_UPPER'>"
p273
sS'xmlescape'
p274
S'<function xmlescape>'
p275
sS'IS_TIME'
p276
S"<class 'gluon.validators.IS_TIME'>"
p277
sS'OPTION'
p278
S"<class 'gluon.html.OPTION'>"
p279
sS'TITLE'
p280
S"<class 'gluon.html.TITLE'>"
p281
sS'CRYPT'
p282
S"<class 'gluon.validators.CRYPT'>"
p283
sS'IS_EMPTY_OR'
p284
S"<class 'gluon.validators.IS_EMPTY_OR'>"
p285
sS'MARKMIN'
p286
S"<class 'gluon.html.MARKMIN'>"
p287
sS'__name__'
p288
S"'__restricted__'"
p289
sS'STRONG'
p290
S"<class 'gluon.html.STRONG'>"
p291
sS'COL'
p292
S"<class 'gluon.html.COL'>"
p293
sS'__builtins__'
p294
S"{'ArithmeticError': <type 'exceptions.ArithmeticError'>, 'AssertionError': <type 'exceptions.AssertionError'>, 'AttributeError': <type 'exceptions.AttributeError'>, 'BaseException': <type 'exceptions.BaseException'>, 'BufferError': <type 'exceptions.BufferError'>, 'BytesWarning': <type 'exceptions.BytesWarning'>, 'DeprecationWarning': <type 'exceptions.DeprecationWarning'>, 'EOFError': <type 'exceptions.EOFError'>, 'Ellipsis': Ellipsis, 'EnvironmentError': <type 'exceptions.EnvironmentError'>, ...}"
p295
sS'SCRIPT'
p296
S"<class 'gluon.html.SCRIPT'>"
p297
sS'TABLE'
p298
S"<class 'gluon.html.TABLE'>"
p299
sS'IS_IPV4'
p300
S"<class 'gluon.validators.IS_IPV4'>"
p301
sS'IS_LENGTH'
p302
S"<class 'gluon.validators.IS_LENGTH'>"
p303
sS'IS_IPV6'
p304
S"<class 'gluon.validators.IS_IPV6'>"
p305
sS'XML'
p306
S"<class 'gluon.html.XML'>"
p307
sS'B'
S"<class 'gluon.html.B'>"
p308
sS'IMG'
p309
S"<class 'gluon.html.IMG'>"
p310
sS'SQLTABLE'
p311
S"<class 'gluon.sqlhtml.SQLTABLE'>"
p312
sS'IS_MATCH'
p313
S"<class 'gluon.validators.IS_MATCH'>"
p314
sS'IS_ALPHANUMERIC'
p315
S"<class 'gluon.validators.IS_ALPHANUMERIC'>"
p316
sS'SPAN'
p317
S"<class 'gluon.html.SPAN'>"
p318
sS'IS_JSON'
p319
S"<class 'gluon.validators.IS_JSON'>"
p320
sS'IS_IPADDRESS'
p321
S"<class 'gluon.validators.IS_IPADDRESS'>"
p322
sS'IS_SLUG'
p323
S"<class 'gluon.validators.IS_SLUG'>"
p324
sS'BEAUTIFY'
p325
S"<class 'gluon.html.BEAUTIFY'>"
p326
sS'META'
p327
S"<class 'gluon.html.META'>"
p328
sS'AppConfig'
p329
S'<function AppConfig>'
p330
sS'IS_DATE'
p331
S"<class 'gluon.validators.IS_DATE'>"
p332
sS'IS_EMAIL'
p333
S"<class 'gluon.validators.IS_EMAIL'>"
p334
sS'IS_NOT_EMPTY'
p335
S"<class 'gluon.validators.IS_NOT_EMPTY'>"
p336
sS'xrange'
p337
S"<type 'xrange'>"
p338
sS'TBODY'
p339
S"<class 'gluon.html.TBODY'>"
p340
sS'CAT'
p341
S"<class 'gluon.html.CAT'>"
p342
sS'Field'
p343
S"<class 'pydal.objects.Field'>"
p344
sS'IS_LIST_OF_EMAILS'
p345
S"<class 'gluon.validators.IS_LIST_OF_EMAILS'>"
p346
sg58
S"<Storage {'_vars': None, 'function': 'prestacao_...web2py/applications/aluminum/', 'method': 'GET'}>"
p347
sS'DIV'
p348
S"<class 'gluon.html.DIV'>"
p349
sS'LEGEND'
p350
S"<class 'gluon.html.LEGEND'>"
p351
sS'to_native'
p352
S'<function to_native>'
p353
sS'COLGROUP'
p354
S"<class 'gluon.html.COLGROUP'>"
p355
sS'DAL'
p356
S"<class 'pydal.base.DAL'>"
p357
sS'ASSIGNJS'
p358
S'<function ASSIGNJS>'
p359
sS'TR'
p360
S"<class 'gluon.html.TR'>"
p361
sS'LI'
p362
S"<class 'gluon.html.LI'>"
p363
sS'TH'
p364
S"<class 'gluon.html.TH'>"
p365
sS'TD'
p366
S"<class 'gluon.html.TD'>"
p367
sS'IS_URL'
p368
S"<class 'gluon.validators.IS_URL'>"
p369
sS'A'
S"<class 'gluon.html.A'>"
p370
sS'HEAD'
p371
S"<class 'gluon.html.HEAD'>"
p372
sS'IS_DATETIME_IN_RANGE'
p373
S"<class 'gluon.validators.IS_DATETIME_IN_RANGE'>"
p374
sS'FORM'
p375
S"<class 'gluon.html.FORM'>"
p376
sS'I'
S"<class 'gluon.html.I'>"
p377
sS'Request'
p378
S'<class urllib2.Request>'
p379
sS'IS_NOT_IN_DB'
p380
S"<class 'gluon.validators.IS_NOT_IN_DB'>"
p381
sg131
S"<Storage {'body': <cStringIO.StringO object at 0...>, 'view': 'acs_relatorio/prestacao_venda.html'}>"
p382
sS'THEAD'
p383
S"<class 'gluon.html.THEAD'>"
p384
sS'ANY_OF'
p385
S"<class 'gluon.validators.ANY_OF'>"
p386
sS'IS_NULL_OR'
p387
S"<class 'gluon.validators.IS_EMPTY_OR'>"
p388
sS'IS_FLOAT_IN_RANGE'
p389
S"<class 'gluon.validators.IS_FLOAT_IN_RANGE'>"
p390
sS'IS_EXPR'
p391
S"<class 'gluon.validators.IS_EXPR'>"
p392
sS'T'
S'<gluon.languages.translator object>'
p393
sS'IS_IN_SET'
p394
S"<class 'gluon.validators.IS_IN_SET'>"
p395
sS'IS_UPLOAD_FILENAME'
p396
S"<class 'gluon.validators.IS_UPLOAD_FILENAME'>"
p397
sS'TT'
p398
S"<class 'gluon.html.TT'>"
p399
sS'IS_DECIMAL_IN_RANGE'
p400
S"<class 'gluon.validators.IS_DECIMAL_IN_RANGE'>"
p401
sssS'traceback'
p402
S'Traceback (most recent call last):\n  File "/home/rogoberto/web2py/gluon/restricted.py", line 219, in restricted\n    exec(ccode, environment)\n  File "/home/rogoberto/web2py/applications/aluminum/views/acs_relatorio/prestacao_venda.html", line 131, in <module>\n    </div><b> <span class="text-muted">R$ {{="{:,}".format(round(projeto.total_caderno_vendedor)).replace(",",".")}}0</span></b>\nAttributeError: \'NoneType\' object has no attribute \'descricao\'\n'
p403
s.