(dp1
S'output'
p2
S"<type 'exceptions.NameError'> name 'media_recebido' is not defined"
p3
sS'layer'
p4
S'/home/rogoberto/web2py/applications/aluminum/views/acs_cobranca/index.html'
p5
sS'code'
p6
S'response.write(\'<!DOCTYPE html>\\n<!--[if (gt IE 9)|!(IE)]><!--> <html class="no-js" lang="\', escape=False)\nresponse.write(T.accepted_language or \'en\')\nresponse.write(\'"> <!--<![endif]-->\\n  <head>\\n    <meta charset="utf-8">\\n    <!-- www.phpied.com/conditional-comments-block-downloads/ -->\\n    <!-- Always force latest IE rendering engine\\n         (even in intranet) & Chrome Frame\\n         Remove this if you use the .htaccess -->\\n    <meta http-equiv="X-UA-Compatible" content="IE=edge\', escape=False)\nresponse.write(not request.is_local and \',chrome=1\' or \'\')\nresponse.write(\'">\\n    <!--  Mobile Viewport Fix\\n          j.mp/mobileviewport & davidbcalhoun.com/2010/viewport-metatag\\n          device-width: Occupy full width of the screen in its current orientation\\n          initial-scale = 1.0 retains dimensions instead of zooming out if page height > device height\\n          user-scalable = yes allows the user to zoom in -->\\n    <meta name="viewport" content="width=device-width, initial-scale=1.0">\\n       <title>Aluminum System</title>\\n      <meta name="author" content="Arsenal System">\\n      <meta name="description" content="cr\\xc3\\xa9diario de aluminio, controle seus custos, despesas vendas e cobran\\xc3\\xa7as">\\n      <meta name="keywords" content="Controle Cheque, pagamentos, Sistema">\\n    <!-- http://dev.w3.org/html5/markup/meta.name.html -->\\n    <meta name="application-name" content="sistema credi\\xc3\\xa1rio panela">\\n    <!-- Speaking of Google, don\\\'t forget to set your site up:\\n         http://google.com/webmasters -->\\n    <meta name="google-site-verification" content="peneleiro Juazeiro, panela credi\\xc3\\xa1rio, sistema panela">\\n    <!-- include stylesheets -->\\n    <link rel="stylesheet" href="https://cdnjs.cloudflare.com/ajax/libs/font-awesome/4.7.0/css/font-awesome.min.css"/>\\n    <link rel="stylesheet" href="\', escape=False)\nresponse.write(URL(\'static\',\'css/bootstrap.min.css\'))\nresponse.write(\'"/>\\n    <link rel="stylesheet" href="\', escape=False)\nresponse.write(URL(\'static\',\'css/web2py-bootstrap4.css\'))\nresponse.write(\'"/>\\n    <link rel="shortcut icon" href="\', escape=False)\nresponse.write(URL(\'static\',\'images/ico.ico\'))\nresponse.write(\'" type="image/x-icon">\\n    <link rel="apple-touch-icon" href="\', escape=False)\nresponse.write(URL(\'static\',\'images/ico.png\'))\nresponse.write(\'">\\n    <!-- All JavaScript at the bottom, except for Modernizr which enables\\n         HTML5 elements & feature detects -->\\n    <script src="\', escape=False)\nresponse.write(URL(\'static\',\'js/modernizr-2.8.3.min.js\'))\nresponse.write(\'"></script>\\n    <!-- Favicons -->\\n    \', escape=False)\nresponse.write(\'<script type="text/javascript"><!--\\n    // These variables are used by the web2py_ajax_init function in web2py_ajax.js (which is loaded below).\\n    \', escape=False)\nresponse.write(ASSIGNJS(\nw2p_ajax_confirm_message = T(\'Are you sure you want to delete this object?\'),\nw2p_ajax_disable_with_message = T(\'Working...\'),\nw2p_ajax_date_format = T(\'%Y-%m-%d\'),\nw2p_ajax_datetime_format = T(\'%Y-%m-%d %H:%M:%S\'),\najax_error_500 = T.M(\'An error occured, please [[reload %s]] the page\') % URL(args=request.args, vars=request.get_vars)\n))\nresponse.write(\'\\n    //--></script>\\n\', escape=False)\nresponse.files.insert(0,URL(\'static\',\'js/jquery.js\'))\nresponse.files.insert(1,URL(\'static\',\'css/calendar.css\'))\nresponse.files.insert(2,URL(\'static\',\'js/calendar.js\'))\nresponse.files.insert(3,URL(\'static\',\'js/web2py.js\'))\nresponse.include_meta()\nresponse.include_files()\nresponse.write(\'\\n\', escape=False)\nresponse.write(\' <!-- this includes jquery.js, calendar.js/.css and web2py.js -->\\n      \', escape=False)\nif auth.user:\n    response.write(\'\\n    \', escape=False)\n    if auth.user.first_name=="Rogoberto":\n        response.write(\'\\n   \\n    \', escape=False)\n    elif auth.user.first_name=="Meme":\n        response.write(\'\\n    <link rel="stylesheet" href="https://bootswatch.com/4/materia/bootstrap.css"> \\n    \', escape=False)\n        pass\n    response.write(\'\\n    \', escape=False)\n    pass\nresponse.write(\'\\n    \', escape=False)\nresponse.write(\'\\n  \\n  </head>\\n  <body>\\n      \\n        <style  type="text/css">\\n    @media print{\\n        .btn{\\n             display: none;\\n        }\\n        #noprint { display:none; } \\n      a:link{font:15px "verdana"; color:#8B4513; text-decoration:none;}\\n\\na:hover{font:20px "verdana"; color:black; text-decoration:underline;}\\n    }\\n      </style>\\n    <div class="w2p_flash alert alert-dismissable">\', escape=False)\nresponse.write(response.flash or \'\')\nresponse.write(\'</div>\\n    <!-- Navbar ======================================= -->\\n    <nav class="navbar navbar-light navbar-expand-md bg-faded justify-content-center">\\n        <a class="navbar-brand" href="https://rogoberto.pythonanywhere.com/aluminum/#acesso">Aluminum</a>\\n       <button class="navbar-toggler" type="button" data-toggle="collapse" data-target="#navbarNavDropdown" aria-controls="navbarNavDropdown" aria-expanded="false" aria-label="Toggle navigation">\\n         <span class="navbar-toggler-icon"></span>\\n       </button>\\n       <div class="navbar-collapse collapse w-100" id="navbarNavDropdown">\\n         <ul class="navbar-nav w-100 justify-content-center">\\n          \', escape=False)\nfor _item in response.menu or []:\n    response.write(\'\\n          \', escape=False)\n    if (not len(_item)>4) or not _item[3]:\n        response.write(\'\\n          <li class="nav-item \', escape=False)\n        if _item[1]:\n            response.write(\'active\', escape=False)\n            pass\n        response.write(\'">\\n            <a class="nav-link" href="\', escape=False)\n        response.write(_item[2])\n        response.write(\'">\', escape=False)\n        response.write(_item[0])\n        response.write(\'</a>\\n          </li>\\n          \', escape=False)\n    else:\n        response.write(\'\\n          <li class="nav-item dropdown">\\n            <a class="nav-link dropdown-toggle" href="\', escape=False)\n        response.write(_item[2])\n        response.write(\'" data-toggle="dropdown" aria-haspopup="true" aria-expanded="false">\', escape=False)\n        response.write(_item[0])\n        response.write(\'</a>\\n            <div class="dropdown-menu">\\n              \', escape=False)\n        for _subitem in _item[3]:\n            response.write(\'\\n              <a class="dropdown-item" href="\', escape=False)\n            response.write(_subitem[2])\n            response.write(\'">\', escape=False)\n            response.write(_subitem[0])\n            response.write(\'</a>\\n              \', escape=False)\n            pass\n        response.write(\'\\n            </div>\\n          </li>\\n          \', escape=False)\n        pass\n    response.write(\'\\n          \', escape=False)\n    pass\nresponse.write(\'\\n        </ul>\\n\\n        \', escape=False)\nif \'auth\' in globals():\n    response.write(\'\\n        <ul class="nav navbar-nav ml-auto w-100 justify-content-end">\\n          <li class="nav-item dropdown">\\n            <a class="nav-link dropdown-toggle" href="#" data-toggle="dropdown" aria-haspopup="true" aria-expanded="false">\\n              \', escape=False)\n    if auth.user:\n        response.write(auth.user.first_name)\n    else:\n        response.write(\'LOGIN\', escape=False)\n        pass\n    response.write(\'\\n            </a>\\n            <div class="dropdown-menu dropdown-menu-right">\\n              \', escape=False)\n    if auth.user:\n        response.write(\'\\n              <a class="dropdown-item" href="\', escape=False)\n        response.write(URL(\'default\',\'user/profile\'))\n        response.write(\'">\', escape=False)\n        response.write(T(\'Profile\'))\n        response.write(\'</a>\\n              \', escape=False)\n        if \'change_password\' not in auth.settings.actions_disabled:\n            response.write(\'\\n              <a class="dropdown-item" href="\', escape=False)\n            response.write(URL(\'default\',\'user/change_password\'))\n            response.write(\'">\', escape=False)\n            response.write(T(\'Change Password\'))\n            response.write(\'</a>\\n              \', escape=False)\n            pass\n        response.write(\'\\n              <a class="dropdown-item" href="\', escape=False)\n        response.write(URL(\'default\',\'user/logout\'))\n        response.write(\'">\', escape=False)\n        response.write(T(\'Logout\'))\n        response.write(\'</a>\\n              \', escape=False)\n    else:\n        response.write(\'\\n              <a class="dropdown-item" href="\', escape=False)\n        response.write(URL(\'default\',\'user/login\'))\n        response.write(\'">\', escape=False)\n        response.write(T(\'Login\'))\n        response.write(\'</a>\\n              \', escape=False)\n        if \'register\' not in auth.settings.actions_disabled:\n            response.write(\'\\n              <a class="dropdown-item" href="\', escape=False)\n            response.write(URL(\'default\',\'user/register\'))\n            response.write(\'">\', escape=False)\n            response.write(T(\'Sign up\'))\n            response.write(\'</a>\\n              \', escape=False)\n            pass\n        response.write(\'\\n              \', escape=False)\n        if \'retrieve_password\' not in auth.settings.actions_disabled:\n            response.write(\'\\n              <a class="dropdown-item" href="\', escape=False)\n            response.write(URL(\'default\',\'user/retrieve_password\'))\n            response.write(\'">\', escape=False)\n            response.write(T(\'Lost Password\'))\n            response.write(\'</a>\\n              \', escape=False)\n            pass\n        response.write(\'\\n              \', escape=False)\n        pass\n    response.write(\'\\n            </div>\\n          </li>\\n        </ul>\\n        \', escape=False)\n    pass\nresponse.write(\'\\n      </div>\\n    </nav>\\n\\n    <!-- Masthead ===================================== -->\\n    \', escape=False)\nresponse.write(\'\\n<header class="header container-fluid d-none d-print-block">\\n     <div class="row">\\n        <div class="col-md-12">\\n          <div class="copyright pull-left">Aluminum System</div>\\n          <div id="poweredBy" class="pull-right">\\n            Gest\\xc3\\xa3o de vendas e cobran\\xc3\\xa7as artefatos de aluminio\\n            \\n          </div>\\n        </div>\\n      </div>\\n</header>\\n    \', escape=False)\nresponse.write(\'\\n    <!-- Main ========================================= -->\\n    <!-- Begin page content -->\\n    <div class="container-fluid main-container py-5">\\n      \', escape=False)\nresponse.write(\'\\n\', escape=False)\nfrom datetime import date\nresponse.write(\'\\n\\n\', escape=False)\na=1\nresponse.write(\'\\n\', escape=False)\nvalor=0\nresponse.write(\'\\n\', escape=False)\nrecebido=0\nresponse.write(\'\\n\', escape=False)\ndespesa=0\nresponse.write(\'\\n\', escape=False)\ndeposito=0\nresponse.write(\'\\n\', escape=False)\ncaderno=0\nresponse.write(\'\\n\', escape=False)\nfichas=0\nresponse.write(\'\\n\', escape=False)\ntotal_adiantamento=0\nresponse.write(\'\\n\', escape=False)\ntotal_vale_cobrador=0\nresponse.write(\'\\n\', escape=False)\nsaldo=0\nresponse.write(\'\\n\', escape=False)\ndebito=0\nresponse.write(\'\\n\', escape=False)\ntotal_custo_devolucao_nova=0\nresponse.write(\'\\n\', escape=False)\ntotal_custo_devolucao_aproveitamento=0\nresponse.write(\'\\n<div class="py-5">\\n    <div class="container">\\n        <div class="row">\\n        <div class="col-md-12">\\n          <h5 class="">Listagem de Rotas de Cobran\\xc3\\xa7a ( \', escape=False)\nresponse.write(projeto.descricao)\nresponse.write(\' )</h5>\\n        </div>\\n      </div>\\n      <div class="row">\\n        <div class="col-md-12">\\n          <a class="btn btn-link " href="\', escape=False)\nresponse.write(URL(\'acs_projeto\',\'index\', args=projeto.id))\nresponse.write(\'" style="color:#3b5998"><i class="fa fa-fw fa-1x py-1 fa-arrow-left"></i> Voltar</a>\\n          \', escape=False)\nif usuario.id!=156567:\n    response.write(\'\\n          <a class="btn btn-link  m-1 border-info rounded-top" href="\', escape=False)\n    response.write(URL(\'acs_relatorio\',\'investimento\', args=projeto.id))\n    response.write(\'" style="color:#3b5998"><i class="fa fa-fw fa-1x py-1 fa-shield"></i> Ver Relatorio de Investimento</a>\\n          \', escape=False)\n    pass\nresponse.write(\'\\n        </div>\\n      </div>\\n      <div class="row">\\n        \\n        \', escape=False)\nif auth.user.id==154253432:\n    response.write(\'\\n          \', escape=False)\n    for row in rows:\n        response.write(\'\\n        <div class="col-lg-4 col-md-6 p-3" >\\n          <div class="card bg-light">\\n            <div class="card-body p-4">\\n              <div class="row">\\n                <div class="col-6">\\n                  \', escape=False)\n        if row.auth_user:\n            response.write(\'\\n                  <h6 class="mb-0">\', escape=False)\n            response.write(row.auth_user.first_name)\n            response.write(\' \', escape=False)\n            response.write(row.auth_user.last_name)\n            response.write(\'</h6>\\n                  \', escape=False)\n        else:\n            response.write(\'\\n                  <h6>\\n                    Verificar Cobrador\\n                  </h6>\\n                  \', escape=False)\n            pass\n        response.write(\'\\n                </div>\\n                <div class="col-6 text-right">\\n                  <h6 class="mb-0"> <b>R$ \', escape=False)\n        response.write("{:,.2f}".format(round(row.total_venda_praso,1)).replace(",","#").replace(".",",").replace("#","."))\n        response.write(\'</b> </h6>\\n                  <h7>\', escape=False)\n        response.write(row.total_fichas)\n        response.write(\' Fichas</h7>\\n                </div>\\n              </div>\\n              <p class="my-3">\', escape=False)\n        response.write(row.data_inicio_cobranca.strftime(\'%d/%m/%Y\'))\n        response.write(\'<br>\', escape=False)\n        response.write(row.primeira_cidade)\n        response.write(\'</p>\\n              \\n              <ul class="pl-3">\\n                <li>\\n                  Recebido- <b>\\n                  R$ \', escape=False)\n        response.write("{:,}".format(round(row.total_recebido,1)).replace(",","#").replace(".",",").replace("#","."))\n        response.write(\'0\\n                  </b>\\n                </li>\\n                <li>Despesa - <b>\\n                  R$ \', escape=False)\n        response.write("{:,}".format(round(row.total_despesa,1)).replace(",","#").replace(".",",").replace("#","."))\n        response.write(\'0\\n                  </b>\\n                  \', escape=False)\n        if row.total_despesa>0 and row.total_recebido>0:\n            response.write(\'\\n                  (\', escape=False)\n            response.write("{:,}".format(round(row.total_despesa/row.total_recebido*100,1)).replace(",","#").replace(".",",").replace("#","."))\n            response.write(\'%)\\n                  \', escape=False)\n            pass\n        response.write(\'\\n                </li>\\n                <li>Deposito- <b>R$ \', escape=False)\n        response.write("{:,}".format(round(row.total_deposito,1)).replace(",","#").replace(".",",").replace("#","."))\n        response.write(\'0</b></li>\\n                  \', escape=False)\n        if row.total_recebido>0 and row.total_venda_praso:\n            response.write(\'\\n                  <hr>\\n                <li><b>\', escape=False)\n            response.write("{:,}".format(round(row.total_recebido/row.total_venda_praso*100,1)).replace(",","#").replace(".",",").replace("#","."))\n            response.write(\'%</b></li>\\n                  \', escape=False)\n            pass\n        response.write(\'\\n                \\n              </ul>\\n              \\n        \', escape=False)\n        if not row.cobranca_finalizada:\n            response.write(\'\\n                  \', escape=False)\n            diferenca=date.today()-row.data_inicio_cobranca\n            response.write(\'\\n              \', escape=False)\n            if True:\n                response.write(\'\\n              \', escape=False)\n                if row.total_deposito>0 and row.total_recebido>0 and row.total_despesa>0:\n                    response.write(\'\\n              \', escape=False)\n                    if diferenca.days>5 and not diferenca.days>150:\n                        response.write(\'\\n                  \', escape=False)\n                        response.write(diferenca.days)\n                        response.write(\' Dias\\n              \', escape=False)\n                        media_dia=row.total_recebido/diferenca.days\n                        response.write(\'\\n                  m\\xc3\\xa9dias: \\n              <br> R$ \', escape=False)\n                        response.write("{:,}".format(round(media_dia,1)).replace(",","#").replace(".",",").replace("#","."))\n                        response.write(\'0 Cobrado/Dia\\n              \', escape=False)\n                        media_dia=row.total_deposito/diferenca.days\n                        response.write(\'\\n              <br> R$ \', escape=False)\n                        response.write("{:,}".format(round(media_dia,1)).replace(",","#").replace(".",",").replace("#","."))\n                        response.write(\'0 Depositos/Dia\\n              \', escape=False)\n                        media_dia=row.total_despesa/diferenca.days\n                        response.write(\'\\n              <br> R$ \', escape=False)\n                        response.write("{:,}".format(round(media_dia,1)).replace(",","#").replace(".",",").replace("#","."))\n                        response.write(\'0 Despesa/Dia\\n              <hr>\\n              \', escape=False)\n                        media_dia=row.total_recebido/diferenca.days\n                        response.write(\'\\n              \', escape=False)\n                        setperc=row.total_venda_praso*0.60\n                        response.write(\'\\n              <br><b>60%</b> - em \', escape=False)\n                        response.write(int(round(setperc/media_dia, 0)))\n                        response.write(\' Dias\\n               \', escape=False)\n                        media_dia=row.total_recebido/diferenca.days\n                        response.write(\'\\n              \', escape=False)\n                        setperc=row.total_venda_praso*0.65\n                        response.write(\'\\n              <br><b>65%</b> - em \', escape=False)\n                        response.write(int(round(setperc/media_dia, 0)))\n                        response.write(\' Dias\\n              \\n              \', escape=False)\n                        media_dia=row.total_recebido/diferenca.days\n                        response.write(\'\\n              \', escape=False)\n                        setperc=row.total_venda_praso*0.7\n                        response.write(\'\\n              <br><b>70%</b> - em \', escape=False)\n                        response.write(int(round(setperc/media_dia, 0)))\n                        response.write(\' Dias\\n              \\n              \', escape=False)\n                        media_dia=row.total_recebido/diferenca.days\n                        response.write(\'\\n              \', escape=False)\n                        setperc=row.total_venda_praso*0.75\n                        response.write(\'\\n              <br><b>75%</b> - em \', escape=False)\n                        response.write(int(round(setperc/media_dia, 0)))\n                        response.write(\' Dias\\n              \', escape=False)\n                        media_dia=row.total_recebido/diferenca.days\n                        response.write(\'\\n              \', escape=False)\n                        setperc=row.total_venda_praso*0.8\n                        response.write(\'\\n              <br><b>80%</b> - em \', escape=False)\n                        response.write(int(round(setperc/media_dia, 0)))\n                        response.write(\' Dias\\n              \', escape=False)\n                        pass\n                    response.write(\'\\n              \', escape=False)\n                    pass\n                response.write(\'\\n        \', escape=False)\n                pass\n            response.write(\'\\n              \', escape=False)\n        else:\n            response.write(\'\\n              <a class="btn btn-success disabled mt-3" href="#">Cobran\\xc3\\xa7a Finalizada</a>\\n              \', escape=False)\n            pass\n        response.write(\'\\n                <hr>\\n              <a class="btn btn-primary mt-3" href="\', escape=False)\n        response.write(URL(\'relatorio_cobranca\', args=[row.id]))\n        response.write(\'">Acessar Cobran\\xc3\\xa7a</a>\\n            </div>\\n          </div>\\n        </div>\\n          \', escape=False)\n        if row.total_saldo_cobrador>0:\n            response.write(\'\\n                  \', escape=False)\n            saldo+=row.total_saldo_cobrador\n            response.write(\'\\n                  \', escape=False)\n        else:\n            response.write(\'\\n                  \', escape=False)\n            debito+=row.total_saldo_cobrador\n            response.write(\'\\n                  \', escape=False)\n            pass\n        response.write(\'\\n                  \', escape=False)\n        if row.total_venda_praso>0:\n            response.write(\'\\n                \', escape=False)\n            valor+=row.total_venda_praso\n            response.write(\'\\n                  \', escape=False)\n            pass\n        response.write(\'\\n              \', escape=False)\n        total_vale_cobrador+=row.total_vale_saida_cobrador\n        response.write(\'\\n\', escape=False)\n        total_adiantamento+=row.adiantamento_cobranca\n        response.write(\'\\n\', escape=False)\n        recebido+=row.total_recebido\n        response.write(\'\\n                  \', escape=False)\n        despesa+=row.total_despesa\n        response.write(\'\\n\', escape=False)\n        deposito+=row.total_deposito\n        response.write(\'\\n\', escape=False)\n        caderno+=row.total_caderno_cobrador\n        response.write(\'\\n                  \', escape=False)\n        if row.total_fichas>0:\n            response.write(\'\\n                  \', escape=False)\n            fichas+=row.total_fichas\n            response.write(\'\\n                  \', escape=False)\n            pass\n        response.write(\'\\n          \\n\', escape=False)\n        total_custo_devolucao_nova+=row.total_custo_devolucao_nova\n        response.write(\'\\n\', escape=False)\n        total_custo_devolucao_aproveitamento+=row.total_custo_devolucao_aproveitamento\n        response.write(\'\\n          \\n        \', escape=False)\n        pass\n    response.write(\'\\n        \\n        \\n        \', escape=False)\nelse:\n    response.write(\'\\n\', escape=False)\n    for row in rows:\n        response.write(\'\\n        <div class="col-md-4">\\n          <ul class="list-group text-left my-1">\\n            <li class="list-group-item d-flex justify-content-between">\\n              <div>\\n                <h6 class="my-0">\\n                  \', escape=False)\n        if row.auth_user:\n            response.write(\'\\n                  <b>\', escape=False)\n            response.write(row.auth_user.first_name)\n            response.write(\' \', escape=False)\n            response.write(row.auth_user.last_name)\n            response.write(\'</b>\\n                  \', escape=False)\n        else:\n            response.write(\'\\n                  <b>Verificar Seu Cobrador</b>\\n                  \', escape=False)\n            pass\n        response.write(\'\\n                </h6>\\n                <small class="text-muted">\', escape=False)\n        response.write(row.primeira_cidade)\n        response.write(\'</small>\\n              </div>\\n              <div>\\n                <h6 class="my-0">\\n                  <b>R$ \', escape=False)\n        response.write("{:,.2f}".format(round(row.total_venda_praso,1)).replace(",","#").replace(".",",").replace("#","."))\n        response.write(\'</b>\\n                </h6>\\n                <small class="text-muted">\', escape=False)\n        response.write(row.total_fichas)\n        response.write(\' Fichas</small>\\n              </div>\\n            </li>\\n            \', escape=False)\n        percento_recebido=0\n        response.write(\'\\n            \', escape=False)\n        if row.total_recebido>0 and row.total_venda_praso>0:\n            response.write(\'\\n            \', escape=False)\n            percento_recebido=row.total_recebido/row.total_venda_praso*100\n            response.write(\'\\n            \', escape=False)\n            pass\n        response.write(\'\\n            <li class="list-group-item d-flex justify-content-between" >\\n              <div>\\n                <h6 class="my-0">\\n                  <b>Recebido</b>\\n                </h6>\\n                <small class="text-muted">\\n                  \', escape=False)\n        response.write("{:,.1f}".format(round(percento_recebido,1)).replace(",","#").replace(".",",").replace("#","."))\n        response.write(\'%\\n                </small>\\n              </div>\\n              <span class="text-muted">\\n                R$ \', escape=False)\n        response.write("{:,.2f}".format(round(row.total_recebido,1)).replace(",","#").replace(".",",").replace("#","."))\n        response.write(\'\\n              </span>\\n            </li>\\n            \', escape=False)\n        percento_despesa=0\n        response.write(\'\\n            \', escape=False)\n        if row.total_despesa>0 and row.total_recebido>0:\n            response.write(\'\\n            \', escape=False)\n            percento_despesa=row.total_despesa/row.total_recebido*100\n            response.write(\'\\n            \', escape=False)\n            pass\n        response.write(\'\\n            <li class="list-group-item d-flex justify-content-between">\\n              <div>\\n                <h6 class="my-0 text-danger">\\n                  <b>Despesa</b>\\n                </h6> \\n                <small class="text-danger">\\n                  \', escape=False)\n        response.write("{:,.1f}".format(round(percento_despesa,1)).replace(",","#").replace(".",",").replace("#","."))\n        response.write(\'%\\n                </small>\\n              </div> <span class="text-danger">\\n              R$ \', escape=False)\n        response.write("{:,.2f}".format(round(row.total_despesa,1)).replace(",","#").replace(".",",").replace("#","."))\n        response.write(\'\\n              </span>\\n            </li>\\n            \', escape=False)\n        percento_deposito=0\n        response.write(\'\\n            \', escape=False)\n        if row.total_deposito>0 and row.total_venda_praso>0:\n            response.write(\'\\n            \', escape=False)\n            percento_deposito=row.total_deposito/row.total_venda_praso*100\n            response.write(\'\\n            \', escape=False)\n            pass\n        response.write(\'\\n            <li class="list-group-item d-flex justify-content-between bg-light">\\n              <div class="text-success">\\n                <h6 class="my-0"><b>Depositado</b></h6>\\n                <small>\', escape=False)\n        response.write("{:,.1f}".format(round(percento_deposito,1)).replace(",","#").replace(".",",").replace("#","."))\n        response.write(\'%</small>\\n              </div> \\n              <span class="text-success">\\n                <b>R$ \', escape=False)\n        response.write("{:,.2f}".format(round(row.total_deposito,1)).replace(",","#").replace(".",",").replace("#","."))\n        response.write(\'</b>\\n              </span>\\n            </li>\\n            \', escape=False)\n        chegada=date.fromordinal(row.data_inicio_cobranca.toordinal()+75)\n        response.write(\'\\n            \', escape=False)\n        hj = date.today()\n        response.write(\'\\n            \', escape=False)\n        dias_trabalhados=(hj-row.data_inicio_cobranca).days\n        response.write(\'\\n            <li class="list-group-item d-flex justify-content-between">\\n              <div>\\n                <h6 class="my-0">Data Sa\\xc3\\xadda</h6>\\n                \', escape=False)\n        if (not row.cobranca_finalizada):\n            response.write(\'\\n                  \', escape=False)\n            if row.total_recebido>0:\n                response.write(\'\\n                    <small class="text-muted">Chegada -\', escape=False)\n                response.write(chegada.strftime(\'%d/%m/%Y\'))\n                response.write(\'</small>\\n                  \', escape=False)\n            else:\n                response.write(\'\\n                    <small class="text-muted">Aguardando...</small>\\n                  \', escape=False)\n                pass\n            response.write(\'\\n                \', escape=False)\n        else:\n            response.write(\'\\n                <small class="text-muted">Cobran\\xc3\\xa7a Finalizada</small>\\n                \', escape=False)\n            pass\n        response.write(\'\\n              </div>\\n              <div class="text-muted">\\n                <h6 class="my-0 text-right">\', escape=False)\n        response.write(row.data_inicio_cobranca.strftime(\'%d/%m/%Y\'))\n        response.write(\'</h6>\\n                \', escape=False)\n        if (not row.cobranca_finalizada) :\n            response.write(\'\\n                  \', escape=False)\n            if row.total_recebido>0:\n                response.write(\'\\n                    <small class="text-muted text-right">\', escape=False)\n                response.write(dias_trabalhados)\n                response.write(\'-Dias/hj</small>\\n                  \', escape=False)\n            else:\n                response.write(\'\\n                    <small class="text-muted">Aguardando...</small>\\n                  \', escape=False)\n                pass\n            response.write(\'\\n                \', escape=False)\n        else:\n            response.write(\'\\n                  <small class="text-muted">Cobran\\xc3\\xa7a Finalizada</small>\\n                \', escape=False)\n            pass\n        response.write(\'\\n              </div>\\n            </li>\\n        \', escape=False)\n        if not row.cobranca_finalizada:\n            response.write(\'\\n            \', escape=False)\n            if dias_trabalhados>0 and row.total_recebido>0 and row.total_deposito>0 and row.total_despesa>0:\n                response.write(\'\\n            \', escape=False)\n                media_recebido=row.total_recebido/dias_trabalhados\n                response.write(\'\\n            <li class="list-group-item d-flex justify-content-between" style="">\\n              <div>\\n                <h6 class="my-0">\\n                  <b>M\\xc3\\xa9dia Recebimento</b>\\n                </h6>\\n                <small class="text-dark">Quantas Pessoas?</small>\\n              </div>\\n              <div>\\n                <h6 class="my-0">\\n                <b>R$ \', escape=False)\n                response.write("{:,.2f}".format(round(media_recebido,1)).replace(",","#").replace(".",",").replace("#","."))\n                response.write(\'</b>\\n                </h6>\\n              </div>\\n            </li>\\n            \', escape=False)\n                pass\n            response.write(\'\\n            \', escape=False)\n            if dias_trabalhados>0 and row.total_despesa>0:\n                response.write(\'\\n            \', escape=False)\n                media_despesa=row.total_despesa/dias_trabalhados\n                response.write(\'\\n            <li class="list-group-item d-flex justify-content-between" style="">\\n              <div>\\n                <h6 class="my-0">\\n                  <b>M\\xc3\\xa9dia Despesa</b>\\n                </h6>\\n                <small class="text-dark">Quantas Pessoas?</small>\\n              </div>\\n              <div>\\n                <h6 class="my-0">\\n                <b>R$ \', escape=False)\n                response.write("{:,.2f}".format(round(media_despesa,1)).replace(",","#").replace(".",",").replace("#","."))\n                response.write(\'</b>\\n                </h6>\\n              </div>\\n            </li>\\n            \', escape=False)\n                pass\n            response.write(\'\\n            \\n            \', escape=False)\n            if dias_trabalhados>0 and row.total_deposito>0:\n                response.write(\'\\n            \', escape=False)\n                media_deposito=row.total_deposito/dias_trabalhados\n                response.write(\'\\n            <li class="list-group-item d-flex justify-content-between bg-light">\\n              <div class="text-success">\\n                <h6 class="my-0">M\\xc3\\xa9dia Deposito</h6>\\n                \', escape=False)\n                if row.total_venda_praso>=600000:\n                    response.write(\'\\n<!--                 \', escape=False)\n                    q_pessoas=row.total_venda_praso/3\n                    response.write(\' -->\\n                <small class="text-success">R$ \', escape=False)\n                    response.write("{:,.2f}".format(round(media_deposito/3,1)).replace(",","#").replace(".",",").replace("#","."))\n                    response.write(\' Por pessoas</small>\\n                \', escape=False)\n                elif  row.total_venda_praso>300000:\n                    response.write(\'\\n<!--                 \', escape=False)\n                    q_pessoas=row.total_venda_praso/2\n                    response.write(\' -->\\n                <small class="text-success">R$ \', escape=False)\n                    response.write("{:,.2f}".format(round(media_deposito/2,1)).replace(",","#").replace(".",",").replace("#","."))\n                    response.write(\' Por pessoas</small>\\n                \', escape=False)\n                else:\n                    response.write(\'\\n                <small class="text-success">R$ \', escape=False)\n                    response.write("{:,.2f}".format(round(media_deposito,1)).replace(",","#").replace(".",",").replace("#","."))\n                    response.write(\' Por pessoa</small>\\n                \', escape=False)\n                    pass\n                response.write(\'\\n              </div>\\n              <div>\\n                <b class="text-success">R$ \', escape=False)\n                response.write("{:,.2f}".format(round(media_deposito,1)).replace(",","#").replace(".",",").replace("#","."))\n                response.write(\'</b>\\n              </div>\\n            </li>\\n            \', escape=False)\n                setenta=row.total_venda_praso*0.7\n                response.write(\'\\n            \', escape=False)\n                if media_recebido>0 and setenta>0:\n                    response.write(\'\\n            \', escape=False)\n                    projecao=setenta/media_recebido\n                    response.write(\'\\n            <li class="list-group-item d-flex justify-content-between">\\n              <div class="text-dark">\\n                <h6 class="my-0"><small>\', escape=False)\n                    response.write(int(projecao))\n                    response.write(\' Dias</small></h6>\\n                \', escape=False)\n                    if dias_trabalhados>35 and projecao>80:\n                        response.write(\'\\n                <small class="text-danger">Cobra\\xc3\\xa7a Ruim ou Atrasada</small>\\n                \', escape=False)\n                    elif projecao>120:\n                        response.write(\'\\n                <small class="text-danger">Cobra\\xc3\\xa7a Ruim ou Atrasada</small>\\n                \', escape=False)\n                    else:\n                        response.write(\'\\n                <small class="text-dark">Aguarde a quita\\xc3\\xa7\\xc3\\xa3o</small>\\n                \', escape=False)\n                        pass\n                    response.write(\'\\n              </div>\\n              <div>\\n                <b class="text-dark"> <b>70%</b> </b>\\n              </div>\\n              \\n            \\n            \\n            </li>\\n            \', escape=False)\n                    pass\n                response.write(\'\\n             \', escape=False)\n                setentacinco=row.total_venda_praso*0.75\n                response.write(\'\\n            \', escape=False)\n                if media_recebido>0 and setentacinco>0:\n                    response.write(\'\\n            \', escape=False)\n                    projecao=setentacinco/media_recebido\n                    response.write(\'\\n            <li class="list-group-item d-flex justify-content-between"> \\n               <div class="text-dark">\\n                <h6 class="my-0"><small>\', escape=False)\n                    response.write(int(projecao))\n                    response.write(\' Dias</small></h6>\\n                \', escape=False)\n                    if dias_trabalhados>35 and projecao>95:\n                        response.write(\'\\n                <small class="text-danger">Compare outra cobran\\xc3\\xa7a</small>\\n                \', escape=False)\n                    elif projecao>135:\n                        response.write(\'\\n                <small class="text-danger">Compare outra cobran\\xc3\\xa7a</small>\\n                \', escape=False)\n                    else:\n                        response.write(\'\\n                <small class="text-dark">Aguarde a quita\\xc3\\xa7\\xc3\\xa3o</small>\\n                \', escape=False)\n                        pass\n                    response.write(\'\\n              </div>\\n              <div>\\n                <b class="text-dark"> <b>75%</b> </b>\\n              </div>\\n            </li>\\n            \', escape=False)\n                    pass\n                response.write(\'\\n             \', escape=False)\n                oitenta=row.total_venda_praso*0.80\n                response.write(\'\\n            \', escape=False)\n                if media_recebido>0 and oitenta>0:\n                    response.write(\'\\n            \', escape=False)\n                    projecao=oitenta/media_recebido\n                    response.write(\'\\n            <li class="list-group-item d-flex justify-content-between"> \\n              \\n               <div class="text-dark">\\n                <h6 class="my-0"><small>\', escape=False)\n                    response.write(int(projecao))\n                    response.write(\' Dias</small></h6>\\n                \', escape=False)\n                    if dias_trabalhados>35 and projecao>95:\n                        response.write(\'\\n                <small class="text-danger">Melhorar Fiscaliza\\xc3\\xa7\\xc3\\xa3o</small>\\n                \', escape=False)\n                    elif projecao>135:\n                        response.write(\'\\n                <small class="text-danger">Melhore a Fiscaliza\\xc3\\xa7\\xc3\\xa3o</small>\\n                \', escape=False)\n                    else:\n                        response.write(\'\\n                <small class="text-dark">Aguarde a quita\\xc3\\xa7\\xc3\\xa3o</small>\\n                \', escape=False)\n                        pass\n                    response.write(\'\\n              </div>\\n              <div>\\n                <b class="text-dark"> <b>80%</b> </b>\\n              </div>\\n            \', escape=False)\n                    pass\n                response.write(\'\\n        \', escape=False)\n                pass\n            response.write(\'\\n        \', escape=False)\n            pass\n        response.write(\'\\n          </ul>\\n          <div class="col-md-12 col-12 my-1">\\n            <a class="btn btn-primary my-1 btn-block" href="\', escape=False)\n        response.write(URL(\'relatorio_cobranca\', args=[row.id]))\n        response.write(\'">\\n              <i class="fa fa-arrow-circle-right fa-fw"></i>&nbsp;Acessar</a>\\n          </div>\\n        </div>\\n        \', escape=False)\n        pass\n    response.write(\'\\n        \\n        \', escape=False)\n    pass\nresponse.write(\'\\n        \', escape=False)\npass\nresponse.write(\'\\n      </div>\\n    </div>\\n  </div>\\n\\n\', escape=False)\nprojeto.total_saldo_cobradores=saldo\nresponse.write(\'\\n\', escape=False)\nprojeto.total_debito_cobradores=debito\nresponse.write(\'\\n\\n\', escape=False)\nprojeto.total_custo_devolucao_nova=total_custo_devolucao_nova\nresponse.write(\'\\n\', escape=False)\nprojeto.total_custo_devolucao_aproveitamento=total_custo_devolucao_aproveitamento\nresponse.write(\'\\n\\n\', escape=False)\nprojeto.total_fichas=fichas\nresponse.write(\'\\n\', escape=False)\nprojeto.total_vale_caderno_cobrador=caderno\nresponse.write(\'\\n\', escape=False)\nprojeto.total_deposito_cobranca=deposito\nresponse.write(\'\\n\', escape=False)\nprojeto.total_despesa_cobranca=despesa\nresponse.write(\'\\n\', escape=False)\nprojeto.total_cobrado=recebido\nresponse.write(\'\\n\', escape=False)\nprojeto.total_adiantamento_cobranca=total_adiantamento\nresponse.write(\'\\n\', escape=False)\nprojeto.total_vale_cobrador=total_vale_cobrador\nresponse.write(\'\\n\', escape=False)\nprojeto.update_record()\nresponse.write(\'\\n\', escape=False)\nresponse.write(\'\\n      \', escape=False)\nresponse.write(response.toolbar() if response.show_toolbar else \'\')\nresponse.write(\'\\n    </div>\\n    \', escape=False)\nresponse.write(\' <!-- this is default footer -->\\n    <footer id="noprint" class="footer container-fluid ">\\n      <div class="row">\\n        <div class="col-md-12">\\n          <div class="copyright pull-left">\', escape=False)\nresponse.write(T(\'Copyright\'))\nresponse.write(\' &#169; \', escape=False)\nresponse.write(request.now.year)\nresponse.write(\'</div>\\n          <div id="poweredBy" class="pull-right">\\n              Suporte <a href="https://api.whatsapp.com/send?phone=5588981126816">(88)98112-6816</a>\\n            </div>\\n        </div>\\n      </div>\\n    </footer>\\n <footer class="footer container-fluid d-none d-print-block">\\n      <div class="row">\\n        <div class="col-md-12">\\n          <div class="copyright pull-left">Suporte - (88)98112-6816</div>\\n          <div id="poweredBy" class="pull-right">\\n             \', escape=False)\nif auth.user:\n    response.write(auth.user.first_name)\n    response.write(\' \', escape=False)\n    response.write(auth.user.last_name)\nelse:\n    response.write(\'Aluminum System\', escape=False)\n    pass\nresponse.write(\'\\n          </div>\\n        </div>\\n      </div>\\n    </footer>\\n    \', escape=False)\nresponse.write(\'\\n    <!-- The javascript =============================== -->\\n    <script src="\', escape=False)\nresponse.write(URL(\'static\',\'js/bootstrap.bundle.min.js\'))\nresponse.write(\'"></script>\\n    <script src="\', escape=False)\nresponse.write(URL(\'static\',\'js/web2py-bootstrap4.js\'))\nresponse.write(\'"></script>\\n    \', escape=False)\nresponse.write(\'\\n    \', escape=False)\nif response.google_analytics_id:\n    response.write(\'\\n    <!-- Analytics ==================================== -->\\n    <script src="\', escape=False)\n    response.write(URL(\'static\',\'js/analytics.min.js\'))\n    response.write(\'"></script>\\n    <script type="text/javascript">\\n      analytics.initialize({\\n      \\\'Google Analytics\\\':{trackingId:\\\'\', escape=False)\n    response.write(response.google_analytics_id)\n    response.write("\'}\\n      });\\n    </script>\\n    ", escape=False)\n    pass\nresponse.write(\'\\n  </body>\\n</html>\\n\', escape=False)'
p7
sS'snapshot'
p8
(dp9
S'exception'
p10
(dp11
S'__getslice__'
p12
S"<method-wrapper '__getslice__' of exceptions.NameError object>"
p13
sS'__str__'
p14
S"<method-wrapper '__str__' of exceptions.NameError object>"
p15
sS'__reduce__'
p16
S'<built-in method __reduce__ of exceptions.NameError object>'
p17
sS'__dict__'
p18
S'{}'
p19
sS'message'
p20
S'"name \'media_recebido\' is not defined"'
p21
sS'__sizeof__'
p22
S'<built-in method __sizeof__ of exceptions.NameError object>'
p23
sS'__init__'
p24
S"<method-wrapper '__init__' of exceptions.NameError object>"
p25
sS'__setattr__'
p26
S"<method-wrapper '__setattr__' of exceptions.NameError object>"
p27
sS'__reduce_ex__'
p28
S'<built-in method __reduce_ex__ of exceptions.NameError object>'
p29
sS'__new__'
p30
S'<built-in method __new__ of type object>'
p31
sS'__format__'
p32
S'<built-in method __format__ of exceptions.NameError object>'
p33
sS'__class__'
p34
S"<type 'exceptions.NameError'>"
p35
sS'__doc__'
p36
S"'Name not found globally.'"
p37
sS'__getitem__'
p38
S"<method-wrapper '__getitem__' of exceptions.NameError object>"
p39
sS'__setstate__'
p40
S'<built-in method __setstate__ of exceptions.NameError object>'
p41
sS'__getattribute__'
p42
S"<method-wrapper '__getattribute__' of exceptions.NameError object>"
p43
sS'args'
p44
S'("name \'media_recebido\' is not defined",)'
p45
sS'__subclasshook__'
p46
S'<built-in method __subclasshook__ of type object>'
p47
sS'__unicode__'
p48
S'<built-in method __unicode__ of exceptions.NameError object>'
p49
sS'__delattr__'
p50
S"<method-wrapper '__delattr__' of exceptions.NameError object>"
p51
sS'__repr__'
p52
S"<method-wrapper '__repr__' of exceptions.NameError object>"
p53
sS'__hash__'
p54
S"<method-wrapper '__hash__' of exceptions.NameError object>"
p55
ssS'evalue'
p56
S"name 'media_recebido' is not defined"
p57
sS'request'
p58
cgluon.html
XML_unpickle
p59
(S's\x9ci\x00\x00<div><table><tr><td style="font-weight:bold;vertical-align:top;">ajax</td><td style="vertical-align:top;">:</td><td><div>False</div></td></tr><tr><td style="font-weight:bold;vertical-align:top;">application</td><td style="vertical-align:top;">:</td><td><div>aluminum</div></td></tr><tr><td style="font-weight:bold;vertical-align:top;">args</td><td style="vertical-align:top;">:</td><td><div><table><tr><td><div>128</div></td></tr></table></div></td></tr><tr><td style="font-weight:bold;vertical-align:top;">cid</td><td style="vertical-align:top;">:</td><td><div>None</div></td></tr><tr><td style="font-weight:bold;vertical-align:top;">client</td><td style="vertical-align:top;">:</td><td><div>191.212.144.51</div></td></tr><tr><td style="font-weight:bold;vertical-align:top;">controller</td><td style="vertical-align:top;">:</td><td><div>acs_cobranca</div></td></tr><tr><td style="font-weight:bold;vertical-align:top;">cookies</td><td style="vertical-align:top;">:</td><td><div><table><tr><td style="font-weight:bold;vertical-align:top;">session_id_admin</td><td style="vertical-align:top;">:</td><td><div>191.212.144.51-22b99efb-06eb-4a0c-a880-6358eafb3d60<table><tr><td style="font-weight:bold;vertical-align:top;">comment</td><td style="vertical-align:top;">:</td><td><div></div></td></tr><tr><td style="font-weight:bold;vertical-align:top;">domain</td><td style="vertical-align:top;">:</td><td><div></div></td></tr><tr><td style="font-weight:bold;vertical-align:top;">expires</td><td style="vertical-align:top;">:</td><td><div></div></td></tr><tr><td style="font-weight:bold;vertical-align:top;">httponly</td><td style="vertical-align:top;">:</td><td><div></div></td></tr><tr><td style="font-weight:bold;vertical-align:top;">max-age</td><td style="vertical-align:top;">:</td><td><div></div></td></tr><tr><td style="font-weight:bold;vertical-align:top;">path</td><td style="vertical-align:top;">:</td><td><div></div></td></tr><tr><td style="font-weight:bold;vertical-align:top;">secure</td><td style="vertical-align:top;">:</td><td><div></div></td></tr><tr><td style="font-weight:bold;vertical-align:top;">version</td><td style="vertical-align:top;">:</td><td><div></div></td></tr></table></div></td></tr><tr><td style="font-weight:bold;vertical-align:top;">session_id_agrosystem</td><td style="vertical-align:top;">:</td><td><div>177.37.187.208-fff9fd97-fca3-403a-a8ac-ed290b131819<table><tr><td style="font-weight:bold;vertical-align:top;">comment</td><td style="vertical-align:top;">:</td><td><div></div></td></tr><tr><td style="font-weight:bold;vertical-align:top;">domain</td><td style="vertical-align:top;">:</td><td><div></div></td></tr><tr><td style="font-weight:bold;vertical-align:top;">expires</td><td style="vertical-align:top;">:</td><td><div></div></td></tr><tr><td style="font-weight:bold;vertical-align:top;">httponly</td><td style="vertical-align:top;">:</td><td><div></div></td></tr><tr><td style="font-weight:bold;vertical-align:top;">max-age</td><td style="vertical-align:top;">:</td><td><div></div></td></tr><tr><td style="font-weight:bold;vertical-align:top;">path</td><td style="vertical-align:top;">:</td><td><div></div></td></tr><tr><td style="font-weight:bold;vertical-align:top;">secure</td><td style="vertical-align:top;">:</td><td><div></div></td></tr><tr><td style="font-weight:bold;vertical-align:top;">version</td><td style="vertical-align:top;">:</td><td><div></div></td></tr></table></div></td></tr><tr><td style="font-weight:bold;vertical-align:top;">session_id_aluminum</td><td style="vertical-align:top;">:</td><td><div>177.37.244.5-4d01ecd9-3867-4244-afe1-f5668f54b132<table><tr><td style="font-weight:bold;vertical-align:top;">comment</td><td style="vertical-align:top;">:</td><td><div></div></td></tr><tr><td style="font-weight:bold;vertical-align:top;">domain</td><td style="vertical-align:top;">:</td><td><div></div></td></tr><tr><td style="font-weight:bold;vertical-align:top;">expires</td><td style="vertical-align:top;">:</td><td><div></div></td></tr><tr><td style="font-weight:bold;vertical-align:top;">httponly</td><td style="vertical-align:top;">:</td><td><div></div></td></tr><tr><td style="font-weight:bold;vertical-align:top;">max-age</td><td style="vertical-align:top;">:</td><td><div></div></td></tr><tr><td style="font-weight:bold;vertical-align:top;">path</td><td style="vertical-align:top;">:</td><td><div></div></td></tr><tr><td style="font-weight:bold;vertical-align:top;">secure</td><td style="vertical-align:top;">:</td><td><div></div></td></tr><tr><td style="font-weight:bold;vertical-align:top;">version</td><td style="vertical-align:top;">:</td><td><div></div></td></tr></table></div></td></tr><tr><td style="font-weight:bold;vertical-align:top;">session_id_welcome</td><td style="vertical-align:top;">:</td><td><div>191.212.144.51-6f09a580-7f3c-4ef4-8cac-b4ef6b869612<table><tr><td style="font-weight:bold;vertical-align:top;">comment</td><td style="vertical-align:top;">:</td><td><div></div></td></tr><tr><td style="font-weight:bold;vertical-align:top;">domain</td><td style="vertical-align:top;">:</td><td><div></div></td></tr><tr><td style="font-weight:bold;vertical-align:top;">expires</td><td style="vertical-align:top;">:</td><td><div></div></td></tr><tr><td style="font-weight:bold;vertical-align:top;">httponly</td><td style="vertical-align:top;">:</td><td><div></div></td></tr><tr><td style="font-weight:bold;vertical-align:top;">max-age</td><td style="vertical-align:top;">:</td><td><div></div></td></tr><tr><td style="font-weight:bold;vertical-align:top;">path</td><td style="vertical-align:top;">:</td><td><div></div></td></tr><tr><td style="font-weight:bold;vertical-align:top;">secure</td><td style="vertical-align:top;">:</td><td><div></div></td></tr><tr><td style="font-weight:bold;vertical-align:top;">version</td><td style="vertical-align:top;">:</td><td><div></div></td></tr></table></div></td></tr></table></div></td></tr><tr><td style="font-weight:bold;vertical-align:top;">env</td><td style="vertical-align:top;">:</td><td><div><table><tr><td style="font-weight:bold;vertical-align:top;">CONTENT_LENGTH</td><td style="vertical-align:top;">:</td><td><div></div></td></tr><tr><td style="font-weight:bold;vertical-align:top;">CONTENT_TYPE</td><td style="vertical-align:top;">:</td><td><div></div></td></tr><tr><td style="font-weight:bold;vertical-align:top;">DOCUMENT_ROOT</td><td style="vertical-align:top;">:</td><td><div>/usr/local/openresty/nginx/html</div></td></tr><tr><td style="font-weight:bold;vertical-align:top;">HTTPS</td><td style="vertical-align:top;">:</td><td><div>on</div></td></tr><tr><td style="font-weight:bold;vertical-align:top;">HTTP_ACCEPT</td><td style="vertical-align:top;">:</td><td><div>text/html,application/xhtml+xml,application/xml;q=0.9,image/avif,image/webp,image/apng,*/*;q=0.8,application/signed-exchange;v=b3;q=0.9</div></td></tr><tr><td style="font-weight:bold;vertical-align:top;">HTTP_ACCEPT_ENCODING</td><td style="vertical-align:top;">:</td><td><div>gzip, deflate, br</div></td></tr><tr><td style="font-weight:bold;vertical-align:top;">HTTP_ACCEPT_LANGUAGE</td><td style="vertical-align:top;">:</td><td><div>pt-BR,pt;q=0.9</div></td></tr><tr><td style="font-weight:bold;vertical-align:top;">HTTP_CONNECTION</td><td style="vertical-align:top;">:</td><td><div>close</div></td></tr><tr><td style="font-weight:bold;vertical-align:top;">HTTP_COOKIE</td><td style="vertical-align:top;">:</td><td><div>_ga=GA1.2.284465024.1588256692; session_id_agrosystem=177.37.187.208-fff9fd97-fca3-403a-a8ac-ed290b131819; _gid=GA1.2.84443210.1621362294; session_id_aluminum=177.37.244.5-4d01ecd9-3867-4244-afe1-f5668f54b132; session_id_welcome=191.212.144.51-6f09a580-7f3c-4ef4-8cac-b4ef6b869612; session_id_admin=191.212.144.51-22b99efb-06eb-4a0c-a880-6358eafb3d60</div></td></tr><tr><td style="font-weight:bold;vertical-align:top;">HTTP_HOST</td><td style="vertical-align:top;">:</td><td><div>rogoberto.pythonanywhere.com</div></td></tr><tr><td style="font-weight:bold;vertical-align:top;">HTTP_REFERER</td><td style="vertical-align:top;">:</td><td><div>https://rogoberto.pythonanywhere.com/aluminum/acs_cobranca/relatorio_cobranca/186</div></td></tr><tr><td style="font-weight:bold;vertical-align:top;">HTTP_SAVE_DATA</td><td style="vertical-align:top;">:</td><td><div>on</div></td></tr><tr><td style="font-weight:bold;vertical-align:top;">HTTP_SEC_CH_UA</td><td style="vertical-align:top;">:</td><td><div>&quot; Not A;Brand&quot;;v=&quot;99&quot;, &quot;Chromium&quot;;v=&quot;90&quot;, &quot;Google Chrome&quot;;v=&quot;90&quot;</div></td></tr><tr><td style="font-weight:bold;vertical-align:top;">HTTP_SEC_CH_UA_MOBILE</td><td style="vertical-align:top;">:</td><td><div>?1</div></td></tr><tr><td style="font-weight:bold;vertical-align:top;">HTTP_SEC_FETCH_DEST</td><td style="vertical-align:top;">:</td><td><div>document</div></td></tr><tr><td style="font-weight:bold;vertical-align:top;">HTTP_SEC_FETCH_MODE</td><td style="vertical-align:top;">:</td><td><div>navigate</div></td></tr><tr><td style="font-weight:bold;vertical-align:top;">HTTP_SEC_FETCH_SITE</td><td style="vertical-align:top;">:</td><td><div>same-origin</div></td></tr><tr><td style="font-weight:bold;vertical-align:top;">HTTP_SEC_FETCH_USER</td><td style="vertical-align:top;">:</td><td><div>?1</div></td></tr><tr><td style="font-weight:bold;vertical-align:top;">HTTP_UPGRADE_INSECURE_REQUESTS</td><td style="vertical-align:top;">:</td><td><div>1</div></td></tr><tr><td style="font-weight:bold;vertical-align:top;">HTTP_USER_AGENT</td><td style="vertical-align:top;">:</td><td><div>Mozilla/5.0 (Linux; Android 9; ASUS_X01BDA) AppleWebKit/537.36 (KHTML, like Gecko) Chrome/90.0.4430.210 Mobile Safari/537.36</div></td></tr><tr><td style="font-weight:bold;vertical-align:top;">HTTP_X_FORWARDED_FOR</td><td style="vertical-align:top;">:</td><td><div>191.212.144.51</div></td></tr><tr><td style="font-weight:bold;vertical-align:top;">HTTP_X_REAL_IP</td><td style="vertical-align:top;">:</td><td><div>191.212.144.51</div></td></tr><tr><td style="font-weight:bold;vertical-align:top;">PATH_INFO</td><td style="vertical-align:top;">:</td><td><div>/aluminum/acs_cobranca/index/128</div></td></tr><tr><td style="font-weight:bold;vertical-align:top;">QUERY_STRING</td><td style="vertical-align:top;">:</td><td><div></div></td></tr><tr><td style="font-weight:bold;vertical-align:top;">REMOTE_ADDR</td><td style="vertical-align:top;">:</td><td><div>10.0.0.93</div></td></tr><tr><td style="font-weight:bold;vertical-align:top;">REMOTE_PORT</td><td style="vertical-align:top;">:</td><td><div>47124</div></td></tr><tr><td style="font-weight:bold;vertical-align:top;">REQUEST_METHOD</td><td style="vertical-align:top;">:</td><td><div>GET</div></td></tr><tr><td style="font-weight:bold;vertical-align:top;">REQUEST_URI</td><td style="vertical-align:top;">:</td><td><div>/aluminum/acs_cobranca/index/128</div></td></tr><tr><td style="font-weight:bold;vertical-align:top;">SCRIPT_NAME</td><td style="vertical-align:top;">:</td><td><div></div></td></tr><tr><td style="font-weight:bold;vertical-align:top;">SERVER_NAME</td><td style="vertical-align:top;">:</td><td><div>rogoberto.pythonanywhere.com</div></td></tr><tr><td style="font-weight:bold;vertical-align:top;">SERVER_PORT</td><td style="vertical-align:top;">:</td><td><div>443</div></td></tr><tr><td style="font-weight:bold;vertical-align:top;">SERVER_PROTOCOL</td><td style="vertical-align:top;">:</td><td><div>HTTP/1.1</div></td></tr><tr><td style="font-weight:bold;vertical-align:top;">app_folders</td><td style="vertical-align:top;">:</td><td><div>set([&#x27;/home/rogoberto/web2py/applications/welcome/&#x27;, &#x27;/home/rogoberto/web2py/applications/aluminum/&#x27;, &#x27;/home/rogoberto/web2py/applications/prodigy/&#x27;, &#x27;/home/rogoberto/web2py/applications/examples/&#x27;, &#x27;/home/rogoberto/web2py/applications/admin/&#x27;, &#x27;/home/rogoberto/web2py/applications/agrosystem/&#x27;])</div></td></tr><tr><td style="font-weight:bold;vertical-align:top;">applications_parent</td><td style="vertical-align:top;">:</td><td><div>/home/rogoberto/web2py</div></td></tr><tr><td style="font-weight:bold;vertical-align:top;">content_length</td><td style="vertical-align:top;">:</td><td><div></div></td></tr><tr><td style="font-weight:bold;vertical-align:top;">content_type</td><td style="vertical-align:top;">:</td><td><div></div></td></tr><tr><td style="font-weight:bold;vertical-align:top;">db_sessions</td><td style="vertical-align:top;">:</td><td><div>set([])</div></td></tr><tr><td style="font-weight:bold;vertical-align:top;">debugging</td><td style="vertical-align:top;">:</td><td><div>False</div></td></tr><tr><td style="font-weight:bold;vertical-align:top;">document_root</td><td style="vertical-align:top;">:</td><td><div>/usr/local/openresty/nginx/html</div></td></tr><tr><td style="font-weight:bold;vertical-align:top;">gluon_parent</td><td style="vertical-align:top;">:</td><td><div>/home/rogoberto/web2py</div></td></tr><tr><td style="font-weight:bold;vertical-align:top;">http_accept</td><td style="vertical-align:top;">:</td><td><div>text/html,application/xhtml+xml,application/xml;q=0.9,image/avif,image/webp,image/apng,*/*;q=0.8,application/signed-exchange;v=b3;q=0.9</div></td></tr><tr><td style="font-weight:bold;vertical-align:top;">http_accept_encoding</td><td style="vertical-align:top;">:</td><td><div>gzip, deflate, br</div></td></tr><tr><td style="font-weight:bold;vertical-align:top;">http_accept_language</td><td style="vertical-align:top;">:</td><td><div>pt-BR,pt;q=0.9</div></td></tr><tr><td style="font-weight:bold;vertical-align:top;">http_connection</td><td style="vertical-align:top;">:</td><td><div>close</div></td></tr><tr><td style="font-weight:bold;vertical-align:top;">http_cookie</td><td style="vertical-align:top;">:</td><td><div>_ga=GA1.2.284465024.1588256692; session_id_agrosystem=177.37.187.208-fff9fd97-fca3-403a-a8ac-ed290b131819; _gid=GA1.2.84443210.1621362294; session_id_aluminum=177.37.244.5-4d01ecd9-3867-4244-afe1-f5668f54b132; session_id_welcome=191.212.144.51-6f09a580-7f3c-4ef4-8cac-b4ef6b869612; session_id_admin=191.212.144.51-22b99efb-06eb-4a0c-a880-6358eafb3d60</div></td></tr><tr><td style="font-weight:bold;vertical-align:top;">http_host</td><td style="vertical-align:top;">:</td><td><div>rogoberto.pythonanywhere.com</div></td></tr><tr><td style="font-weight:bold;vertical-align:top;">http_referer</td><td style="vertical-align:top;">:</td><td><div>https://rogoberto.pythonanywhere.com/aluminum/acs_cobranca/relatorio_cobranca/186</div></td></tr><tr><td style="font-weight:bold;vertical-align:top;">http_save_data</td><td style="vertical-align:top;">:</td><td><div>on</div></td></tr><tr><td style="font-weight:bold;vertical-align:top;">http_sec_ch_ua</td><td style="vertical-align:top;">:</td><td><div>&quot; Not A;Brand&quot;;v=&quot;99&quot;, &quot;Chromium&quot;;v=&quot;90&quot;, &quot;Google Chrome&quot;;v=&quot;90&quot;</div></td></tr><tr><td style="font-weight:bold;vertical-align:top;">http_sec_ch_ua_mobile</td><td style="vertical-align:top;">:</td><td><div>?1</div></td></tr><tr><td style="font-weight:bold;vertical-align:top;">http_sec_fetch_dest</td><td style="vertical-align:top;">:</td><td><div>document</div></td></tr><tr><td style="font-weight:bold;vertical-align:top;">http_sec_fetch_mode</td><td style="vertical-align:top;">:</td><td><div>navigate</div></td></tr><tr><td style="font-weight:bold;vertical-align:top;">http_sec_fetch_site</td><td style="vertical-align:top;">:</td><td><div>same-origin</div></td></tr><tr><td style="font-weight:bold;vertical-align:top;">http_sec_fetch_user</td><td style="vertical-align:top;">:</td><td><div>?1</div></td></tr><tr><td style="font-weight:bold;vertical-align:top;">http_upgrade_insecure_requests</td><td style="vertical-align:top;">:</td><td><div>1</div></td></tr><tr><td style="font-weight:bold;vertical-align:top;">http_user_agent</td><td style="vertical-align:top;">:</td><td><div>Mozilla/5.0 (Linux; Android 9; ASUS_X01BDA) AppleWebKit/537.36 (KHTML, like Gecko) Chrome/90.0.4430.210 Mobile Safari/537.36</div></td></tr><tr><td style="font-weight:bold;vertical-align:top;">http_x_forwarded_for</td><td style="vertical-align:top;">:</td><td><div>191.212.144.51</div></td></tr><tr><td style="font-weight:bold;vertical-align:top;">http_x_real_ip</td><td style="vertical-align:top;">:</td><td><div>191.212.144.51</div></td></tr><tr><td style="font-weight:bold;vertical-align:top;">https</td><td style="vertical-align:top;">:</td><td><div>on</div></td></tr><tr><td style="font-weight:bold;vertical-align:top;">is_jython</td><td style="vertical-align:top;">:</td><td><div>False</div></td></tr><tr><td style="font-weight:bold;vertical-align:top;">is_py2</td><td style="vertical-align:top;">:</td><td><div>True</div></td></tr><tr><td style="font-weight:bold;vertical-align:top;">is_pypy</td><td style="vertical-align:top;">:</td><td><div>False</div></td></tr><tr><td style="font-weight:bold;vertical-align:top;">is_source</td><td style="vertical-align:top;">:</td><td><div>True</div></td></tr><tr><td style="font-weight:bold;vertical-align:top;">local_hosts</td><td style="vertical-align:top;">:</td><td><div><table><tr><td><div>35.173.69.207</div></td></tr><tr><td><div>::ffff:127.0.0.1</div></td></tr><tr><td><div>::1</div></td></tr><tr><td><div>rogoberto.pythonanywhere.com</div></td></tr><tr><td><div>green-liveweb16</div></td></tr><tr><td><div>127.0.0.1</div></td></tr><tr><td><div>localhost</div></td></tr></table></div></td></tr><tr><td style="font-weight:bold;vertical-align:top;">path_info</td><td style="vertical-align:top;">:</td><td><div>/aluminum/acs_cobranca/index/128</div></td></tr><tr><td style="font-weight:bold;vertical-align:top;">query_string</td><td style="vertical-align:top;">:</td><td><div></div></td></tr><tr><td style="font-weight:bold;vertical-align:top;">remote_addr</td><td style="vertical-align:top;">:</td><td><div>10.0.0.93</div></td></tr><tr><td style="font-weight:bold;vertical-align:top;">remote_port</td><td style="vertical-align:top;">:</td><td><div>47124</div></td></tr><tr><td style="font-weight:bold;vertical-align:top;">request_method</td><td style="vertical-align:top;">:</td><td><div>GET</div></td></tr><tr><td style="font-weight:bold;vertical-align:top;">request_uri</td><td style="vertical-align:top;">:</td><td><div>/aluminum/acs_cobranca/index/128</div></td></tr><tr><td style="font-weight:bold;vertical-align:top;">script_name</td><td style="vertical-align:top;">:</td><td><div></div></td></tr><tr><td style="font-weight:bold;vertical-align:top;">server_name</td><td style="vertical-align:top;">:</td><td><div>rogoberto.pythonanywhere.com</div></td></tr><tr><td style="font-weight:bold;vertical-align:top;">server_port</td><td style="vertical-align:top;">:</td><td><div>443</div></td></tr><tr><td style="font-weight:bold;vertical-align:top;">server_protocol</td><td style="vertical-align:top;">:</td><td><div>HTTP/1.1</div></td></tr><tr><td style="font-weight:bold;vertical-align:top;">uwsgi.node</td><td style="vertical-align:top;">:</td><td><div>green-liveweb16</div></td></tr><tr><td style="font-weight:bold;vertical-align:top;">uwsgi.version</td><td style="vertical-align:top;">:</td><td><div>2.0.17.1</div></td></tr><tr><td style="font-weight:bold;vertical-align:top;">uwsgi_node</td><td style="vertical-align:top;">:</td><td><div>green-liveweb16</div></td></tr><tr><td style="font-weight:bold;vertical-align:top;">uwsgi_version</td><td style="vertical-align:top;">:</td><td><div>2.0.17.1</div></td></tr><tr><td style="font-weight:bold;vertical-align:top;">web2py_original_uri</td><td style="vertical-align:top;">:</td><td><div>/aluminum/acs_cobranca/index/128</div></td></tr><tr><td style="font-weight:bold;vertical-align:top;">web2py_path</td><td style="vertical-align:top;">:</td><td><div>/home/rogoberto/web2py</div></td></tr><tr><td style="font-weight:bold;vertical-align:top;">web2py_version</td><td style="vertical-align:top;">:</td><td><div>2.17.1-stable+timestamp.2018.08.06.01.02.56</div></td></tr><tr><td style="font-weight:bold;vertical-align:top;">wsgi.errors</td><td style="vertical-align:top;">:</td><td><div>&lt;uwsgi_file__bin_user_wsgi_wrapper.ErrorLogFile object at 0x7f570ec32cd0&gt;</div></td></tr><tr><td style="font-weight:bold;vertical-align:top;">wsgi.file_wrapper</td><td style="vertical-align:top;">:</td><td><div>&lt;built-in function uwsgi_sendfile&gt;</div></td></tr><tr><td style="font-weight:bold;vertical-align:top;">wsgi.input</td><td style="vertical-align:top;">:</td><td><div>&lt;uwsgi._Input object at 0x7f570dbcda98&gt;</div></td></tr><tr><td style="font-weight:bold;vertical-align:top;">wsgi.multiprocess</td><td style="vertical-align:top;">:</td><td><div>True</div></td></tr><tr><td style="font-weight:bold;vertical-align:top;">wsgi.multithread</td><td style="vertical-align:top;">:</td><td><div>False</div></td></tr><tr><td style="font-weight:bold;vertical-align:top;">wsgi.run_once</td><td style="vertical-align:top;">:</td><td><div>False</div></td></tr><tr><td style="font-weight:bold;vertical-align:top;">wsgi.url_scheme</td><td style="vertical-align:top;">:</td><td><div>https</div></td></tr><tr><td style="font-weight:bold;vertical-align:top;">wsgi.version</td><td style="vertical-align:top;">:</td><td><div><table><tr><td><div>1</div></td></tr><tr><td><div>0</div></td></tr></table></div></td></tr><tr><td style="font-weight:bold;vertical-align:top;">wsgi_errors</td><td style="vertical-align:top;">:</td><td><div>&lt;uwsgi_file__bin_user_wsgi_wrapper.ErrorLogFile object at 0x7f570ec32cd0&gt;</div></td></tr><tr><td style="font-weight:bold;vertical-align:top;">wsgi_file_wrapper</td><td style="vertical-align:top;">:</td><td><div>&lt;built-in function uwsgi_sendfile&gt;</div></td></tr><tr><td style="font-weight:bold;vertical-align:top;">wsgi_input</td><td style="vertical-align:top;">:</td><td><div>&lt;uwsgi._Input object at 0x7f570dbcda98&gt;</div></td></tr><tr><td style="font-weight:bold;vertical-align:top;">wsgi_multiprocess</td><td style="vertical-align:top;">:</td><td><div>True</div></td></tr><tr><td style="font-weight:bold;vertical-align:top;">wsgi_multithread</td><td style="vertical-align:top;">:</td><td><div>False</div></td></tr><tr><td style="font-weight:bold;vertical-align:top;">wsgi_run_once</td><td style="vertical-align:top;">:</td><td><div>False</div></td></tr><tr><td style="font-weight:bold;vertical-align:top;">wsgi_url_scheme</td><td style="vertical-align:top;">:</td><td><div>https</div></td></tr><tr><td style="font-weight:bold;vertical-align:top;">wsgi_version</td><td style="vertical-align:top;">:</td><td><div><table><tr><td><div>1</div></td></tr><tr><td><div>0</div></td></tr></table></div></td></tr></table></div></td></tr><tr><td style="font-weight:bold;vertical-align:top;">extension</td><td style="vertical-align:top;">:</td><td><div>html</div></td></tr><tr><td style="font-weight:bold;vertical-align:top;">folder</td><td style="vertical-align:top;">:</td><td><div>/home/rogoberto/web2py/applications/aluminum/</div></td></tr><tr><td style="font-weight:bold;vertical-align:top;">function</td><td style="vertical-align:top;">:</td><td><div>index</div></td></tr><tr><td style="font-weight:bold;vertical-align:top;">global_settings</td><td style="vertical-align:top;">:</td><td><div><table><tr><td style="font-weight:bold;vertical-align:top;">app_folders</td><td style="vertical-align:top;">:</td><td><div>set([&#x27;/home/rogoberto/web2py/applications/welcome/&#x27;, &#x27;/home/rogoberto/web2py/applications/aluminum/&#x27;, &#x27;/home/rogoberto/web2py/applications/prodigy/&#x27;, &#x27;/home/rogoberto/web2py/applications/examples/&#x27;, &#x27;/home/rogoberto/web2py/applications/admin/&#x27;, &#x27;/home/rogoberto/web2py/applications/agrosystem/&#x27;])</div></td></tr><tr><td style="font-weight:bold;vertical-align:top;">applications_parent</td><td style="vertical-align:top;">:</td><td><div>/home/rogoberto/web2py</div></td></tr><tr><td style="font-weight:bold;vertical-align:top;">db_sessions</td><td style="vertical-align:top;">:</td><td><div>set([])</div></td></tr><tr><td style="font-weight:bold;vertical-align:top;">debugging</td><td style="vertical-align:top;">:</td><td><div>False</div></td></tr><tr><td style="font-weight:bold;vertical-align:top;">gluon_parent</td><td style="vertical-align:top;">:</td><td><div>/home/rogoberto/web2py</div></td></tr><tr><td style="font-weight:bold;vertical-align:top;">is_jython</td><td style="vertical-align:top;">:</td><td><div>False</div></td></tr><tr><td style="font-weight:bold;vertical-align:top;">is_py2</td><td style="vertical-align:top;">:</td><td><div>True</div></td></tr><tr><td style="font-weight:bold;vertical-align:top;">is_pypy</td><td style="vertical-align:top;">:</td><td><div>False</div></td></tr><tr><td style="font-weight:bold;vertical-align:top;">is_source</td><td style="vertical-align:top;">:</td><td><div>True</div></td></tr><tr><td style="font-weight:bold;vertical-align:top;">local_hosts</td><td style="vertical-align:top;">:</td><td><div><table><tr><td><div>35.173.69.207</div></td></tr><tr><td><div>::ffff:127.0.0.1</div></td></tr><tr><td><div>::1</div></td></tr><tr><td><div>rogoberto.pythonanywhere.com</div></td></tr><tr><td><div>green-liveweb16</div></td></tr><tr><td><div>127.0.0.1</div></td></tr><tr><td><div>localhost</div></td></tr></table></div></td></tr><tr><td style="font-weight:bold;vertical-align:top;">web2py_version</td><td style="vertical-align:top;">:</td><td><div>2.17.1-stable+timestamp.2018.08.06.01.02.56</div></td></tr></table></div></td></tr><tr><td style="font-weight:bold;vertical-align:top;">is_https</td><td style="vertical-align:top;">:</td><td><div>True</div></td></tr><tr><td style="font-weight:bold;vertical-align:top;">is_local</td><td style="vertical-align:top;">:</td><td><div>False</div></td></tr><tr><td style="font-weight:bold;vertical-align:top;">is_restful</td><td style="vertical-align:top;">:</td><td><div>False</div></td></tr><tr><td style="font-weight:bold;vertical-align:top;">is_scheduler</td><td style="vertical-align:top;">:</td><td><div>False</div></td></tr><tr><td style="font-weight:bold;vertical-align:top;">is_shell</td><td style="vertical-align:top;">:</td><td><div>False</div></td></tr><tr><td style="font-weight:bold;vertical-align:top;">method</td><td style="vertical-align:top;">:</td><td><div>GET</div></td></tr><tr><td style="font-weight:bold;vertical-align:top;">now</td><td style="vertical-align:top;">:</td><td><div>datetime.datetime(2021, 5, 21, 2, 12, 34, 402960)</div></td></tr><tr><td style="font-weight:bold;vertical-align:top;">url</td><td style="vertical-align:top;">:</td><td><div>/aluminum/acs_cobranca/index/128</div></td></tr><tr><td style="font-weight:bold;vertical-align:top;">utcnow</td><td style="vertical-align:top;">:</td><td><div>datetime.datetime(2021, 5, 21, 2, 12, 34, 402974)</div></td></tr><tr><td style="font-weight:bold;vertical-align:top;">wsgi</td><td style="vertical-align:top;">:</td><td><div>&lt;gluon.main.LazyWSGI object at 0x7f5707a94fd0&gt;</div></td></tr></table></div>'
tRp60
sS'frames'
p61
(lp62
(dp63
S'file'
p64
S'/home/rogoberto/web2py/gluon/restricted.py'
p65
sS'dump'
p66
(dp67
S'environment'
p68
S"{'A': <class 'gluon.html.A'>, 'ANY_OF': <class 'gluon.validators.ANY_OF'>, 'ASSIGNJS': <function ASSIGNJS>, 'AppConfig': <function AppConfig>, 'Auth': <class 'gluon.tools.Auth'>, 'B': <class 'gluon.html.B'>, 'BEAUTIFY': <class 'gluon.html.BEAUTIFY'>, 'BODY': <class 'gluon.html.BODY'>, 'BR': <class 'gluon.html.BR'>, 'BUTTON': <class 'gluon.html.BUTTON'>, ...}"
p69
sS'ccode'
p70
S'<code object <module> at 0x7f5707744f30, file "/.../aluminum/views/acs_cobranca/index.html", line 1>'
p71
ssS'lnum'
p72
I219
sS'lines'
p73
(dp74
I214
S'    if environment is None:'
p75
sI215
S'        environment = {}'
p76
sI216
S"    environment['__file__'] = layer"
p77
sI217
S"    environment['__name__'] = '__restricted__'"
p78
sI218
S'    try:'
p79
sI219
S'        exec(ccode, environment)'
p80
sI220
S'    except HTTP:'
p81
sI221
S'        raise'
p82
sI222
S'    except RestrictedError:'
p83
sI223
S'        # do not encapsulate (obfuscate) the original RestrictedError'
p84
ssS'call'
p85
S'(ccode=<code object <module> at 0x7f5707744f30, file "/.../aluminum/views/acs_cobranca/index.html", line 1>, environment={\'A\': <class \'gluon.html.A\'>, \'ANY_OF\': <class \'gluon.validators.ANY_OF\'>, \'ASSIGNJS\': <function ASSIGNJS>, \'AppConfig\': <function AppConfig>, \'Auth\': <class \'gluon.tools.Auth\'>, \'B\': <class \'gluon.html.B\'>, \'BEAUTIFY\': <class \'gluon.html.BEAUTIFY\'>, \'BODY\': <class \'gluon.html.BODY\'>, \'BR\': <class \'gluon.html.BR\'>, \'BUTTON\': <class \'gluon.html.BUTTON\'>, ...}, layer=\'/home/rogoberto/web2py/applications/aluminum/views/acs_cobranca/index.html\', scode=r"response.write(\'<!DOCTYPE html>\\n<!--[if (gt IE ...nse.write(\'\\n  </body>\\n</html>\\n\', escape=False)")'
p86
sS'func'
p87
S'restricted'
p88
sa(dp89
g64
S'/home/rogoberto/web2py/applications/aluminum/views/acs_cobranca/index.html'
p90
sg66
(dp91
sg72
I451
sg73
(dp92
I448
S"                response.write('</b>\\n              </div>\\n            </li>\\n            ', escape=False)"
p93
sI449
S'                setenta=row.total_venda_praso*0.7'
p94
sI450
S"                response.write('\\n            ', escape=False)"
p95
sI451
S'                if media_recebido>0 and setenta>0:'
p96
sI452
S"                    response.write('\\n            ', escape=False)"
p97
sI453
S'                    projecao=setenta/media_recebido'
p98
sI454
S'                    response.write(\'\\n            <li class="list-group-item d-flex justify-content-between">\\n              <div class="text-dark">\\n                <h6 class="my-0"><small>\', escape=False)'
p99
sI455
S'                    response.write(int(projecao))'
p100
sI456
S"                    response.write(' Dias</small></h6>\\n                ', escape=False)"
p101
sI457
S'                    if dias_trabalhados>35 and projecao>80:'
p102
sI458
S'                        response.write(\'\\n                <small class="text-danger">Cobra\\xc3\\xa7a Ruim ou Atrasada</small>\\n                \', escape=False)'
p103
sI459
S'                    elif projecao>120:'
p104
sI460
S'                        response.write(\'\\n                <small class="text-danger">Cobra\\xc3\\xa7a Ruim ou Atrasada</small>\\n                \', escape=False)'
p105
sI461
S'                    else:'
p106
sI442
S'                    response.write(\'\\n                <small class="text-success">R$ \', escape=False)'
p107
sI443
S'                    response.write("{:,.2f}".format(round(media_deposito,1)).replace(",","#").replace(".",",").replace("#","."))'
p108
sI444
S"                    response.write(' Por pessoa</small>\\n                ', escape=False)"
p109
sI445
S'                    pass'
p110
sI446
S'                response.write(\'\\n              </div>\\n              <div>\\n                <b class="text-success">R$ \', escape=False)'
p111
sI447
S'                response.write("{:,.2f}".format(round(media_deposito,1)).replace(",","#").replace(".",",").replace("#","."))'
p112
ssg85
S'()'
p113
sg87
S'<module>'
p114
sasS'pyver'
p115
S'Python 2.7.12: /usr/local/bin/uwsgi (prefix: /usr)'
p116
sS'session'
p117
g59
(S's\xf2\t\x00\x00<div><table><tr><td style="font-weight:bold;vertical-align:top;">auth</td><td style="vertical-align:top;">:</td><td><div><table><tr><td style="font-weight:bold;vertical-align:top;">expiration</td><td style="vertical-align:top;">:</td><td><div>2592000</div></td></tr><tr><td style="font-weight:bold;vertical-align:top;">hmac_key</td><td style="vertical-align:top;">:</td><td><div>2e3b92a5-2784-4079-8459-f5351170b8ef</div></td></tr><tr><td style="font-weight:bold;vertical-align:top;">last_visit</td><td style="vertical-align:top;">:</td><td><div>datetime.datetime(2021, 5, 20, 16, 55, 59, 859894)</div></td></tr><tr><td style="font-weight:bold;vertical-align:top;">remember_me</td><td style="vertical-align:top;">:</td><td><div>True</div></td></tr><tr><td style="font-weight:bold;vertical-align:top;">user</td><td style="vertical-align:top;">:</td><td><div><table><tr><td style="font-weight:bold;vertical-align:top;">email</td><td style="vertical-align:top;">:</td><td><div>betin@gmail.com</div></td></tr><tr><td style="font-weight:bold;vertical-align:top;">first_name</td><td style="vertical-align:top;">:</td><td><div>Rogoberto</div></td></tr><tr><td style="font-weight:bold;vertical-align:top;">id</td><td style="vertical-align:top;">:</td><td><div>1L</div></td></tr><tr><td style="font-weight:bold;vertical-align:top;">last_name</td><td style="vertical-align:top;">:</td><td><div>Ribeiro</div></td></tr><tr><td style="font-weight:bold;vertical-align:top;">registration_id</td><td style="vertical-align:top;">:</td><td><div></div></td></tr><tr><td style="font-weight:bold;vertical-align:top;">registration_key</td><td style="vertical-align:top;">:</td><td><div></div></td></tr><tr><td style="font-weight:bold;vertical-align:top;">reset_password_key</td><td style="vertical-align:top;">:</td><td><div></div></td></tr></table></div></td></tr><tr><td style="font-weight:bold;vertical-align:top;">user_groups</td><td style="vertical-align:top;">:</td><td><div><table><tr><td style="font-weight:bold;vertical-align:top;">1</td><td style="vertical-align:top;">:</td><td><div>user_1</div></td></tr><tr><td style="font-weight:bold;vertical-align:top;">2</td><td style="vertical-align:top;">:</td><td><div>admin</div></td></tr><tr><td style="font-weight:bold;vertical-align:top;">3</td><td style="vertical-align:top;">:</td><td><div>wiki_editor</div></td></tr></table></div></td></tr></table></div></td></tr><tr><td style="font-weight:bold;vertical-align:top;">flash</td><td style="vertical-align:top;">:</td><td><div>None</div></td></tr></table></div>'
tRp118
sS'etype'
p119
S"<type 'exceptions.NameError'>"
p120
sS'date'
p121
S'Fri May 21 02:12:34 2021'
p122
sS'response'
p123
g59
(S's\xcd\x1d\x00\x00<div><table><tr><td style="font-weight:bold;vertical-align:top;">body</td><td style="vertical-align:top;">:</td><td><div>&lt;cStringIO.StringO object at 0x7f5707a9f180&gt;</div></td></tr><tr><td style="font-weight:bold;vertical-align:top;">cookies</td><td style="vertical-align:top;">:</td><td><div><table><tr><td style="font-weight:bold;vertical-align:top;">session_id_aluminum</td><td style="vertical-align:top;">:</td><td><div>177.37.244.5-4d01ecd9-3867-4244-afe1-f5668f54b132<table><tr><td style="font-weight:bold;vertical-align:top;">comment</td><td style="vertical-align:top;">:</td><td><div></div></td></tr><tr><td style="font-weight:bold;vertical-align:top;">domain</td><td style="vertical-align:top;">:</td><td><div></div></td></tr><tr><td style="font-weight:bold;vertical-align:top;">expires</td><td style="vertical-align:top;">:</td><td><div></div></td></tr><tr><td style="font-weight:bold;vertical-align:top;">httponly</td><td style="vertical-align:top;">:</td><td><div></div></td></tr><tr><td style="font-weight:bold;vertical-align:top;">max-age</td><td style="vertical-align:top;">:</td><td><div></div></td></tr><tr><td style="font-weight:bold;vertical-align:top;">path</td><td style="vertical-align:top;">:</td><td><div>/</div></td></tr><tr><td style="font-weight:bold;vertical-align:top;">secure</td><td style="vertical-align:top;">:</td><td><div></div></td></tr><tr><td style="font-weight:bold;vertical-align:top;">version</td><td style="vertical-align:top;">:</td><td><div></div></td></tr></table></div></td></tr></table></div></td></tr><tr><td style="font-weight:bold;vertical-align:top;">delimiters</td><td style="vertical-align:top;">:</td><td><div><table><tr><td><div>{{</div></td></tr><tr><td><div>}}</div></td></tr></table></div></td></tr><tr><td style="font-weight:bold;vertical-align:top;">files</td><td style="vertical-align:top;">:</td><td><div><table><tr><td><div>/aluminum/static/js/jquery.js</div></td></tr><tr><td><div>/aluminum/static/css/calendar.css</div></td></tr><tr><td><div>/aluminum/static/js/calendar.js</div></td></tr><tr><td><div>/aluminum/static/js/web2py.js</div></td></tr></table></div></td></tr><tr><td style="font-weight:bold;vertical-align:top;">flash</td><td style="vertical-align:top;">:</td><td><div></div></td></tr><tr><td style="font-weight:bold;vertical-align:top;">form_label_separator</td><td style="vertical-align:top;">:</td><td><div></div></td></tr><tr><td style="font-weight:bold;vertical-align:top;">formstyle</td><td style="vertical-align:top;">:</td><td><div>bootstrap4_inline</div></td></tr><tr><td style="font-weight:bold;vertical-align:top;">generic_patterns</td><td style="vertical-align:top;">:</td><td><div><table></table></div></td></tr><tr><td style="font-weight:bold;vertical-align:top;">google_analytics_id</td><td style="vertical-align:top;">:</td><td><div>None</div></td></tr><tr><td style="font-weight:bold;vertical-align:top;">headers</td><td style="vertical-align:top;">:</td><td><div><table><tr><td style="font-weight:bold;vertical-align:top;">X-Powered-By</td><td style="vertical-align:top;">:</td><td><div>web2py</div></td></tr></table></div></td></tr><tr><td style="font-weight:bold;vertical-align:top;">menu</td><td style="vertical-align:top;">:</td><td><div><table><tr><td><div><table><tr><td><div>Principal</div></td></tr><tr><td><div>False</div></td></tr><tr><td><div>/aluminum</div></td></tr><tr><td><div><table></table></div></td></tr></table></div></td></tr><tr><td><div><table><tr><td><div>Principal</div></td></tr><tr><td><div>False</div></td></tr><tr><td><div>/aluminum</div></td></tr><tr><td><div><table></table></div></td></tr></table></div></td></tr></table></div></td></tr><tr><td style="font-weight:bold;vertical-align:top;">meta</td><td style="vertical-align:top;">:</td><td><div><table><tr><td style="font-weight:bold;vertical-align:top;">author</td><td style="vertical-align:top;">:</td><td><div>Your Name &lt;you@example.com&gt;</div></td></tr><tr><td style="font-weight:bold;vertical-align:top;">description</td><td style="vertical-align:top;">:</td><td><div>a cool new app</div></td></tr><tr><td style="font-weight:bold;vertical-align:top;">generator</td><td style="vertical-align:top;">:</td><td><div>Web2py Web Framework</div></td></tr><tr><td style="font-weight:bold;vertical-align:top;">keywords</td><td style="vertical-align:top;">:</td><td><div><table><tr><td><div>web2py</div></td></tr><tr><td><div>python</div></td></tr><tr><td><div>framework</div></td></tr></table></div></td></tr></table></div></td></tr><tr><td style="font-weight:bold;vertical-align:top;">models_to_run</td><td style="vertical-align:top;">:</td><td><div><table><tr><td><div>^\\w+\\.py$</div></td></tr><tr><td><div>^acs_cobranca/\\w+\\.py$</div></td></tr><tr><td><div>^acs_cobranca/index/\\w+\\.py$</div></td></tr></table></div></td></tr><tr><td style="font-weight:bold;vertical-align:top;">postprocessing</td><td style="vertical-align:top;">:</td><td><div><table></table></div></td></tr><tr><td style="font-weight:bold;vertical-align:top;">session_client</td><td style="vertical-align:top;">:</td><td><div>191.212.144.51</div></td></tr><tr><td style="font-weight:bold;vertical-align:top;">session_cookie_compression_level</td><td style="vertical-align:top;">:</td><td><div>None</div></td></tr><tr><td style="font-weight:bold;vertical-align:top;">session_cookie_expires</td><td style="vertical-align:top;">:</td><td><div>2592000</div></td></tr><tr><td style="font-weight:bold;vertical-align:top;">session_data_name</td><td style="vertical-align:top;">:</td><td><div>session_data_aluminum</div></td></tr><tr><td style="font-weight:bold;vertical-align:top;">session_file</td><td style="vertical-align:top;">:</td><td><div>&lt;open file &#x27;/home/rogoberto/web2py/applications/aluminum/sessions/11d/1c1/177.37.244.5-4d01ecd9-3867-4244-afe1-f5668f54b132&#x27;, mode &#x27;rb+&#x27; at 0x7f5707b0af60&gt;</div></td></tr><tr><td style="font-weight:bold;vertical-align:top;">session_filename</td><td style="vertical-align:top;">:</td><td><div>/home/rogoberto/web2py/applications/aluminum/sessions/177.37.244.5-4d01ecd9-3867-4244-afe1-f5668f54b132</div></td></tr><tr><td style="font-weight:bold;vertical-align:top;">session_hash</td><td style="vertical-align:top;">:</td><td><div>617743a1a42890c407812b89aa454467</div></td></tr><tr><td style="font-weight:bold;vertical-align:top;">session_id</td><td style="vertical-align:top;">:</td><td><div>177.37.244.5-4d01ecd9-3867-4244-afe1-f5668f54b132</div></td></tr><tr><td style="font-weight:bold;vertical-align:top;">session_id_name</td><td style="vertical-align:top;">:</td><td><div>session_id_aluminum</div></td></tr><tr><td style="font-weight:bold;vertical-align:top;">session_locked</td><td style="vertical-align:top;">:</td><td><div>True</div></td></tr><tr><td style="font-weight:bold;vertical-align:top;">session_masterapp</td><td style="vertical-align:top;">:</td><td><div>aluminum</div></td></tr><tr><td style="font-weight:bold;vertical-align:top;">session_new</td><td style="vertical-align:top;">:</td><td><div>False</div></td></tr><tr><td style="font-weight:bold;vertical-align:top;">session_storage_type</td><td style="vertical-align:top;">:</td><td><div>file</div></td></tr><tr><td style="font-weight:bold;vertical-align:top;">show_toolbar</td><td style="vertical-align:top;">:</td><td><div>False</div></td></tr><tr><td style="font-weight:bold;vertical-align:top;">status</td><td style="vertical-align:top;">:</td><td><div>200</div></td></tr><tr><td style="font-weight:bold;vertical-align:top;">view</td><td style="vertical-align:top;">:</td><td><div>acs_cobranca/index.html</div></td></tr></table></div>'
tRp124
sS'locals'
p125
(dp126
S'IS_SLUG'
p127
S"<class 'gluon.validators.IS_SLUG'>"
p128
sS'PY2'
p129
S'True'
p130
sS'OBJECT'
p131
S"<class 'gluon.html.OBJECT'>"
p132
sS'SQLDB'
p133
S"<class 'pydal.base.DAL'>"
p134
sg117
S"<Storage {'_auth_next': None, 'flash': None, 'au...gin]': ['620d7cda-af9b-4978-a1f4-21073e9afb06']}>"
p135
sS'LINK'
p136
S"<class 'gluon.html.LINK'>"
p137
sS'BR'
p138
S"<class 'gluon.html.BR'>"
p139
sS'local_import'
p140
S'<function <lambda>>'
p141
sS'OPTGROUP'
p142
S"<class 'gluon.html.OPTGROUP'>"
p143
sS'__package__'
p144
S'None'
p145
sS'total_adiantamento'
p146
S'0'
sS'row'
p147
S'<Row {\'total_saldo_cobrador\': -4684.110000000001...volucao\': <Set ("devolucao"."sub_venda" = 186)>}>'
p148
sS'PRE'
p149
S"<class 'gluon.html.PRE'>"
p150
sS'IS_INT_IN_RANGE'
p151
S"<class 'gluon.validators.IS_INT_IN_RANGE'>"
p152
sS'to_bytes'
p153
S'<function to_bytes>'
p154
sS'IS_LOWER'
p155
S"<class 'gluon.validators.IS_LOWER'>"
p156
sS'IS_STRONG'
p157
S"<class 'gluon.validators.IS_STRONG'>"
p158
sS'cache'
p159
S'<gluon.cache.Cache object>'
p160
sS'IS_IN_DB'
p161
S"<class 'gluon.validators.IS_IN_DB'>"
p162
sS'deposito'
p163
S'0'
sS'TAG'
p164
S'<gluon.html.__TAG__ object>'
p165
sS'valor'
p166
S'0'
sS'SQLField'
p167
S"<class 'pydal.objects.Field'>"
p168
sS'mail'
p169
S'<gluon.tools.Mail object>'
p170
sS'BODY'
p171
S"<class 'gluon.html.BODY'>"
p172
sS'IS_DATE_IN_RANGE'
p173
S"<class 'gluon.validators.IS_DATE_IN_RANGE'>"
p174
sS'IFRAME'
p175
S"<class 'gluon.html.IFRAME'>"
p176
sS'URL'
p177
S'<function URL>'
p178
sS'__file__'
p179
S"'/home/rogoberto/web2py/applications/aluminum/views/acs_cobranca/index.html'"
p180
sS'db'
p181
S'<DAL uri="sqlite://storage.sqlite">'
p182
sS'auth'
p183
S'<gluon.tools.Auth object>'
p184
sS'P'
S"<class 'gluon.html.P'>"
p185
sS'TFOOT'
p186
S"<class 'gluon.html.TFOOT'>"
p187
sS'iteritems'
p188
S'<function <lambda>>'
p189
sS'XHTML'
p190
S"<class 'gluon.html.XHTML'>"
p191
sS'datetime'
p192
S"<module 'datetime' (built-in)>"
p193
sS'total_custo_devolucao_nova'
p194
S'0'
sS'ON'
p195
g130
sS'OL'
p196
S"<class 'gluon.html.OL'>"
p197
sS'TEXTAREA'
p198
S"<class 'gluon.html.TEXTAREA'>"
p199
sS'MENU'
p200
S"<class 'gluon.html.MENU'>"
p201
sS'despesa'
p202
S'0'
sS'IS_IMAGE'
p203
S"<class 'gluon.validators.IS_IMAGE'>"
p204
sS'_item'
p205
S"(<lazyT 'Home'>, False, '/aluminum', [])"
p206
sS'EM'
p207
S"<class 'gluon.html.EM'>"
p208
sS'CODE'
p209
S"<class 'gluon.html.CODE'>"
p210
sS'HTTP'
p211
S"<class 'gluon.http.HTTP'>"
p212
sS'HR'
p213
S"<class 'gluon.html.HR'>"
p214
sS'IS_DATETIME'
p215
S"<class 'gluon.validators.IS_DATETIME'>"
p216
sS'reduce'
p217
S'<built-in function reduce>'
p218
sS'STYLE'
p219
S"<class 'gluon.html.STYLE'>"
p220
sS'LABEL'
p221
S"<class 'gluon.html.LABEL'>"
p222
sS'CLEANUP'
p223
S"<class 'gluon.validators.CLEANUP'>"
p224
sS'BUTTON'
p225
S"<class 'gluon.html.BUTTON'>"
p226
sS'SELECT'
p227
S"<class 'gluon.html.SELECT'>"
p228
sS'CENTER'
p229
S"<class 'gluon.html.CENTER'>"
p230
sS'percento_recebido'
p231
S'0'
sS'sum'
p232
S'<pydal.objects.Expression object>'
p233
sS'Auth'
p234
S"<class 'gluon.tools.Auth'>"
p235
sS'caderno'
p236
S'0'
sS'urlopen'
p237
S'<function urlopen>'
p238
sS'HTML'
p239
S"<class 'gluon.html.HTML'>"
p240
sS'media_deposito'
p241
S'90.0'
p242
sS'SQLFORM'
p243
S"<class 'gluon.sqlhtml.SQLFORM'>"
p244
sS'total_vale_cobrador'
p245
S'0'
sS'LOAD'
p246
S'<function LOAD>'
p247
sS'redirect'
p248
S'<function redirect>'
p249
sS'FIELDSET'
p250
S"<class 'gluon.html.FIELDSET'>"
p251
sS'IS_EQUAL_TO'
p252
S"<class 'gluon.validators.IS_EQUAL_TO'>"
p253
sS'embed64'
p254
S'<function embed64>'
p255
sS'IS_LIST_OF'
p256
S"<class 'gluon.validators.IS_LIST_OF'>"
p257
sS'__name__'
p258
S"'__restricted__'"
p259
sS'EMBED'
p260
S"<class 'gluon.html.EMBED'>"
p261
sS'configuration'
p262
S"{'host': {'names': 'localhost:*, 127.0.0.1:*, *:...': 'sqlite://storage.sqlite', 'pool_size': '10'}}"
p263
sS'percento_deposito'
p264
S'0.01700326840603805'
p265
sS'H2'
p266
S"<class 'gluon.html.H2'>"
p267
sS'H3'
p268
S"<class 'gluon.html.H3'>"
p269
sS'AppConfig'
p270
S'<function AppConfig>'
p271
sS'H1'
p272
S"<class 'gluon.html.H1'>"
p273
sS'H6'
p274
S"<class 'gluon.html.H6'>"
p275
sS'H4'
p276
S"<class 'gluon.html.H4'>"
p277
sS'H5'
p278
S"<class 'gluon.html.H5'>"
p279
sS'UL'
p280
S"<class 'gluon.html.UL'>"
p281
sS'IS_UPPER'
p282
S"<class 'gluon.validators.IS_UPPER'>"
p283
sS'xmlescape'
p284
S'<function xmlescape>'
p285
sS'IS_TIME'
p286
S"<class 'gluon.validators.IS_TIME'>"
p287
sS'debito'
p288
S'0'
sS'q_pessoas'
p289
S'264655.0'
p290
sS'OPTION'
p291
S"<class 'gluon.html.OPTION'>"
p292
sS'TITLE'
p293
S"<class 'gluon.html.TITLE'>"
p294
sS'CRYPT'
p295
S"<class 'gluon.validators.CRYPT'>"
p296
sS'IS_EMPTY_OR'
p297
S"<class 'gluon.validators.IS_EMPTY_OR'>"
p298
sS'MARKMIN'
p299
S"<class 'gluon.html.MARKMIN'>"
p300
sS'setenta'
p301
S'370517.0'
p302
sS'total_custo_devolucao_aproveitamento'
p303
S'0'
sS'INPUT'
p304
S"<class 'gluon.html.INPUT'>"
p305
sS'STRONG'
p306
S"<class 'gluon.html.STRONG'>"
p307
sS'COL'
p308
S"<class 'gluon.html.COL'>"
p309
sS'__builtins__'
p310
S"{'ArithmeticError': <type 'exceptions.ArithmeticError'>, 'AssertionError': <type 'exceptions.AssertionError'>, 'AttributeError': <type 'exceptions.AttributeError'>, 'BaseException': <type 'exceptions.BaseException'>, 'BufferError': <type 'exceptions.BufferError'>, 'BytesWarning': <type 'exceptions.BytesWarning'>, 'DeprecationWarning': <type 'exceptions.DeprecationWarning'>, 'EOFError': <type 'exceptions.EOFError'>, 'Ellipsis': Ellipsis, 'EnvironmentError': <type 'exceptions.EnvironmentError'>, ...}"
p311
sS'rows'
p312
S'<Rows (1)>'
p313
sS'media_despesa'
p314
S'225.89'
p315
sS'SCRIPT'
p316
S"<class 'gluon.html.SCRIPT'>"
p317
sS'recebido'
p318
S'0'
sS'TABLE'
p319
S"<class 'gluon.html.TABLE'>"
p320
sS'IS_IPV4'
p321
S"<class 'gluon.validators.IS_IPV4'>"
p322
sS'IS_LENGTH'
p323
S"<class 'gluon.validators.IS_LENGTH'>"
p324
sS'IS_IPV6'
p325
S"<class 'gluon.validators.IS_IPV6'>"
p326
sS'XML'
p327
S"<class 'gluon.html.XML'>"
p328
sS'ANY_OF'
p329
S"<class 'gluon.validators.ANY_OF'>"
p330
sS'B'
S"<class 'gluon.html.B'>"
p331
sS'IMG'
p332
S"<class 'gluon.html.IMG'>"
p333
sS'SQLTABLE'
p334
S"<class 'gluon.sqlhtml.SQLTABLE'>"
p335
sS'IS_MATCH'
p336
S"<class 'gluon.validators.IS_MATCH'>"
p337
sS'IS_ALPHANUMERIC'
p338
S"<class 'gluon.validators.IS_ALPHANUMERIC'>"
p339
sS'hj'
p340
S'datetime.date(2021, 5, 21)'
p341
sS'chegada'
p342
S'datetime.date(2021, 8, 3)'
p343
sS'SPAN'
p344
S"<class 'gluon.html.SPAN'>"
p345
sS'IS_JSON'
p346
S"<class 'gluon.validators.IS_JSON'>"
p347
sS'IS_IPADDRESS'
p348
S"<class 'gluon.validators.IS_IPADDRESS'>"
p349
sS'dias_trabalhados'
p350
S'1'
sS'BEAUTIFY'
p351
S"<class 'gluon.html.BEAUTIFY'>"
p352
sS'META'
p353
S"<class 'gluon.html.META'>"
p354
sS'percento_despesa'
p355
S'0'
sS'projeto'
p356
S"<Row {'empresa': 21L, 'total_salario_funcionario...tal_cobrado': 0.0, 'total_pecas_mercadoria': 0L}>"
p357
sS'IS_DATE'
p358
S"<class 'gluon.validators.IS_DATE'>"
p359
sS'IS_EMAIL'
p360
S"<class 'gluon.validators.IS_EMAIL'>"
p361
sS'IS_NOT_EMPTY'
p362
S"<class 'gluon.validators.IS_NOT_EMPTY'>"
p363
sS'xrange'
p364
S"<type 'xrange'>"
p365
sS'TBODY'
p366
S"<class 'gluon.html.TBODY'>"
p367
sS'CAT'
p368
S"<class 'gluon.html.CAT'>"
p369
sS'Field'
p370
S"<class 'pydal.objects.Field'>"
p371
sS'IS_LIST_OF_EMAILS'
p372
S"<class 'gluon.validators.IS_LIST_OF_EMAILS'>"
p373
sg58
S"<Storage {'_vars': None, 'function': 'index', 'c...web2py/applications/aluminum/', 'method': 'GET'}>"
p374
sS'DIV'
p375
S"<class 'gluon.html.DIV'>"
p376
sS'LEGEND'
p377
S"<class 'gluon.html.LEGEND'>"
p378
sS'to_native'
p379
S'<function to_native>'
p380
sS'COLGROUP'
p381
S"<class 'gluon.html.COLGROUP'>"
p382
sS'DAL'
p383
S"<class 'pydal.base.DAL'>"
p384
sS'ASSIGNJS'
p385
S'<function ASSIGNJS>'
p386
sS'TR'
p387
S"<class 'gluon.html.TR'>"
p388
sS'LI'
p389
S"<class 'gluon.html.LI'>"
p390
sS'TH'
p391
S"<class 'gluon.html.TH'>"
p392
sS'TD'
p393
S"<class 'gluon.html.TD'>"
p394
sS'IS_URL'
p395
S"<class 'gluon.validators.IS_URL'>"
p396
sS'A'
S"<class 'gluon.html.A'>"
p397
sS'HEAD'
p398
S"<class 'gluon.html.HEAD'>"
p399
sS'IS_DATETIME_IN_RANGE'
p400
S"<class 'gluon.validators.IS_DATETIME_IN_RANGE'>"
p401
sS'FORM'
p402
S"<class 'gluon.html.FORM'>"
p403
sS'I'
S"<class 'gluon.html.I'>"
p404
sS'Request'
p405
S'<class urllib2.Request>'
p406
sS'IS_NOT_IN_DB'
p407
S"<class 'gluon.validators.IS_NOT_IN_DB'>"
p408
sS'saldo'
p409
S'0'
sg121
S"<type 'datetime.date'>"
p410
sg123
S"<Storage {'body': <cStringIO.StringO object at 0...f5707a99668>, 'view': 'acs_cobranca/index.html'}>"
p411
sS'THEAD'
p412
S"<class 'gluon.html.THEAD'>"
p413
sS'a'
S'1'
sS'IS_NULL_OR'
p414
S"<class 'gluon.validators.IS_EMPTY_OR'>"
p415
sS'fichas'
p416
S'0'
sS'usuario'
p417
S"<Row {'registration_id': '', 'last_name': 'Ribei...word_key': '', 'registration_key': '', 'id': 1L}>"
p418
sS'IS_FLOAT_IN_RANGE'
p419
S"<class 'gluon.validators.IS_FLOAT_IN_RANGE'>"
p420
sS'IS_EXPR'
p421
S"<class 'gluon.validators.IS_EXPR'>"
p422
sS'T'
S'<gluon.languages.translator object>'
p423
sS'IS_IN_SET'
p424
S"<class 'gluon.validators.IS_IN_SET'>"
p425
sS'IS_UPLOAD_FILENAME'
p426
S"<class 'gluon.validators.IS_UPLOAD_FILENAME'>"
p427
sS'TT'
p428
S"<class 'gluon.html.TT'>"
p429
sS'IS_DECIMAL_IN_RANGE'
p430
S"<class 'gluon.validators.IS_DECIMAL_IN_RANGE'>"
p431
sssS'traceback'
p432
S'Traceback (most recent call last):\n  File "/home/rogoberto/web2py/gluon/restricted.py", line 219, in restricted\n    exec(ccode, environment)\n  File "/home/rogoberto/web2py/applications/aluminum/views/acs_cobranca/index.html", line 451, in <module>\nNameError: name \'media_recebido\' is not defined\n'
p433
s.